; Listing generated by Microsoft (R) Optimizing Compiler Version 19.42.34436.0 

include listing.inc

INCLUDELIB MSVCRTD
INCLUDELIB OLDNAMES

msvcjmc	SEGMENT
__3A77C584_concurrencysal@h DB 01H
__7D61E6FE_sal@h DB 01H
__F85DFF2E_vadefs@h DB 01H
__E62C82FD_vcruntime@h DB 01H
__02F1C7E0_xkeycheck@h DB 01H
__0731AE6E_yvals_core@h DB 01H
__1B0272D9_corecrt@h DB 01H
__B9985323_float@h DB 01H
__1C7C89ED_cfloat DB 01H
__3E26BF77_limits@h DB 01H
__DACAF7EF_climits DB 01H
__BCF39F11_vcruntime_new@h DB 01H
__86CDF331_vcruntime_new_debug@h DB 01H
__935DC21B_crtdbg@h DB 01H
__C5864FDA_crtdefs@h DB 01H
__7A030B0F_use_ansi@h DB 01H
__E86563A2_yvals@h DB 01H
__BB16330F_corecrt_math@h DB 01H
__3BF2A406_math@h DB 01H
__45DED006_corecrt_malloc@h DB 01H
__13F5961F_stddef@h DB 01H
__FD6DBD68_corecrt_search@h DB 01H
__E2E33A61_corecrt_wstdlib@h DB 01H
__6E5ACABA_stdlib@h DB 01H
__5E25D51D_cstdlib DB 01H
__810D3946_xtr1common DB 01H
__020D51C1_intrin0@inl@h DB 01H
__DCABF6D1_intrin0@h DB 01H
__1FDBE849_cmath DB 01H
__44420885_corecrt_stdio_config@h DB 01H
__AB601D8D_corecrt_wstdio@h DB 01H
__C1EC35D3_stdio@h DB 01H
__6F38426A_cstdio DB 01H
__61CC25A1_errno@h DB 01H
__731D38DD_vcruntime_string@h DB 01H
__E4C945B4_corecrt_memcpy_s@h DB 01H
__8EAFF484_corecrt_memory@h DB 01H
__6490AEC5_corecrt_wstring@h DB 01H
__E8295E1E_string@h DB 01H
__12B77DFD_cstring DB 01H
__EF1F6BBA_corecrt_wconio@h DB 01H
__74484FB3_corecrt_wctype@h DB 01H
__3D1D430C_corecrt_wdirect@h DB 01H
__8ECB7138_corecrt_share@h DB 01H
__DB7FEBA6_corecrt_wio@h DB 01H
__9A9F0068_corecrt_wprocess@h DB 01H
__369A9BC3_corecrt_wtime@h DB 01H
__CE789B9D_types@h DB 01H
__9901C817_stat@h DB 01H
__3FCAD62E_wchar@h DB 01H
__F5B39439_cwchar DB 01H
__B673110F_iosfwd DB 01H
__FBEE0FB0_cstddef DB 01H
__20B1B3B7_initializer_list DB 01H
__80509148_stdint@h DB 01H
__E37B3460_cstdint DB 01H
__4C58012B_type_traits DB 01H
__69285096_utility DB 01H
__9DF8D3B1___msvc_iter_core@hpp DB 01H
__EC88E9B5_xutility DB 01H
__FD245EF5_iterator DB 01H
__F7972D0B_share@h DB 01H
__CB3B79BB___msvc_system_error_abi@hpp DB 01H
__F2193691_cerrno DB 01H
__FA77ED4C_malloc@h DB 01H
__89766DA4_corecrt_terminate@h DB 01H
__412BB509_eh@h DB 01H
__8E23F663_vcruntime_exception@h DB 01H
__0DD9214C_exception DB 01H
__F8F3CAFF___msvc_sanitizer_annotate_container@hpp DB 01H
__39B162D3___msvc_string_view@hpp DB 01H
__7A9AC489_limits DB 01H
__8483113F_new DB 01H
__07D5AD9A_xatomic@h DB 01H
__03BD3355_xmemory DB 01H
__776EB5C9_xstring DB 01H
__84971B11_stdexcept DB 01H
__44A9703E_xcall_once@h DB 01H
__40F076AD_xerrc@h DB 01H
__5F635487___msvc_threads_core@hpp DB 01H
__0A9237D2_time@h DB 01H
__D9687441_ctime DB 01H
__5A4C0AF4_xtimec@h DB 01H
__1B4D3CBC_xthreads@h DB 01H
__11AF984B_atomic DB 01H
__FBF4621E_system_error DB 01H
__8916352E_vcruntime_typeinfo@h DB 01H
__9C571AAC_typeinfo DB 01H
__C634C807_memory DB 01H
__EA719F08_xfacet DB 01H
__0FD15498___msvc_xlocinfo_types@hpp DB 01H
__1EC467ED_ctype@h DB 01H
__60F3A5CD_cctype DB 01H
__791C33B7_locale@h DB 01H
__CD8909CC_clocale DB 01H
__83DEF964_xlocinfo DB 01H
__A850C1F8_xlocale DB 01H
__BA3B8E77_xiosbase DB 01H
__8637A3AD_streambuf DB 01H
__36D7A7EF_xlocnum DB 01H
__7C4E2B29_ios DB 01H
__BB401B3C_ostream DB 01H
__D8902E06_istream DB 01H
__8EF193AA_iostream DB 01H
__1DB5B2D7_xlocmon DB 01H
__27C35076_xloctime DB 01H
__2452E854_iomanip DB 01H
__B2E74E9B_string DB 01H
__0BD860A1_stdafx@h DB 01H
__B4CDCCFA_functions@h DB 01H
__686F7F7C_isLeapYear@cpp DB 01H
msvcjmc	ENDS
CONST	SEGMENT
?_Valid_strftime_specifiers@std@@3QBDB DB 061H		; std::_Valid_strftime_specifiers
	DB	041H
	DB	062H
	DB	042H
	DB	063H
	DB	043H
	DB	064H
	DB	044H
	DB	065H
	DB	046H
	DB	067H
	DB	047H
	DB	068H
	DB	048H
	DB	049H
	DB	06aH
	DB	06dH
	DB	04dH
	DB	06eH
	DB	070H
	DB	072H
	DB	052H
	DB	053H
	DB	074H
	DB	054H
	DB	075H
	DB	055H
	DB	056H
	DB	077H
	DB	057H
	DB	078H
	DB	058H
	DB	079H
	DB	059H
	DB	07aH
	DB	05aH
CONST	ENDS
PUBLIC	?__empty_global_delete@@YAXPEAX@Z		; __empty_global_delete
PUBLIC	?__empty_global_delete@@YAXPEAX_K@Z		; __empty_global_delete
PUBLIC	wmemcpy
PUBLIC	??$_Maklocstr@_W@std@@YAPEA_WPEBDPEA_WAEBU_Cvtvec@@@Z ; std::_Maklocstr<wchar_t>
PUBLIC	?_Maklocwcs@std@@YAPEA_WPEB_W@Z			; std::_Maklocwcs
PUBLIC	??$_Maklocstr@D@std@@YAPEADPEBDPEADAEBU_Cvtvec@@@Z ; std::_Maklocstr<char>
PUBLIC	??$_Getvals@_W@?$time_get@DV?$istreambuf_iterator@DU?$char_traits@D@std@@@std@@@std@@IEAAX_WAEBV_Locinfo@1@@Z ; std::time_get<char,std::istreambuf_iterator<char,std::char_traits<char> > >::_Getvals<wchar_t>
PUBLIC	??$_Getvals@_W@?$time_get@_WV?$istreambuf_iterator@_WU?$char_traits@_W@std@@@std@@@std@@IEAAX_WAEBV_Locinfo@1@@Z ; std::time_get<wchar_t,std::istreambuf_iterator<wchar_t,std::char_traits<wchar_t> > >::_Getvals<wchar_t>
PUBLIC	?isLeapYear@@YA_NH@Z				; isLeapYear
PUBLIC	__JustMyCode_Default
PUBLIC	??_C@_0GC@LEHJKL@C?3?2Program?5Files?2Microsoft?5Visu@ ; `string'
PUBLIC	?__LINE__Var@?0??_Maklocwcs@std@@YAPEA_WPEB_W@Z@4JA ; `std::_Maklocwcs'::`1'::__LINE__Var
PUBLIC	??_C@_0GC@IDPJHLAK@C?3?2Program?5Files?2Microsoft?5Visu@ ; `string'
PUBLIC	??_C@_0N@LPFKKEBD@?3AM?3am?3PM?3pm@		; `string'
PUBLIC	??_C@_1BK@MHIKGOKE@?$AA?3?$AAA?$AAM?$AA?3?$AAa?$AAm?$AA?3?$AAP?$AAM?$AA?3?$AAp?$AAm@ ; `string'
EXTRN	__imp__calloc_dbg:PROC
EXTRN	memcpy:PROC
EXTRN	__imp_wcslen:PROC
EXTRN	strlen:PROC
EXTRN	?_Xbad_alloc@std@@YAXXZ:PROC			; std::_Xbad_alloc
EXTRN	_Mbrtowc:PROC
EXTRN	__imp_?_Getcvt@_Locinfo@std@@QEBA?AU_Cvtvec@@XZ:PROC
EXTRN	__imp_?_Getdays@_Locinfo@std@@QEBAPEBDXZ:PROC
EXTRN	__imp_?_Getmonths@_Locinfo@std@@QEBAPEBDXZ:PROC
EXTRN	__imp_?_W_Getdays@_Locinfo@std@@QEBAPEBGXZ:PROC
EXTRN	__imp_?_W_Getmonths@_Locinfo@std@@QEBAPEBGXZ:PROC
EXTRN	_RTC_CheckStackVars:PROC
EXTRN	_RTC_InitBase:PROC
EXTRN	_RTC_Shutdown:PROC
EXTRN	__CheckForDebuggerJustMyCode:PROC
EXTRN	__GSHandlerCheck:PROC
EXTRN	__security_check_cookie:PROC
EXTRN	__security_cookie:QWORD
;	COMDAT pdata
pdata	SEGMENT
$pdata$?__empty_global_delete@@YAXPEAX@Z DD imagerel $LN3
	DD	imagerel $LN3+42
	DD	imagerel $unwind$?__empty_global_delete@@YAXPEAX@Z
pdata	ENDS
;	COMDAT pdata
pdata	SEGMENT
$pdata$?__empty_global_delete@@YAXPEAX_K@Z DD imagerel $LN3
	DD	imagerel $LN3+47
	DD	imagerel $unwind$?__empty_global_delete@@YAXPEAX_K@Z
pdata	ENDS
;	COMDAT pdata
pdata	SEGMENT
$pdata$wmemcpy DD imagerel $LN3
	DD	imagerel $LN3+84
	DD	imagerel $unwind$wmemcpy
pdata	ENDS
;	COMDAT pdata
pdata	SEGMENT
$pdata$??$_Maklocstr@_W@std@@YAPEA_WPEBDPEA_WAEBU_Cvtvec@@@Z DD imagerel $LN12
	DD	imagerel $LN12+588
	DD	imagerel $unwind$??$_Maklocstr@_W@std@@YAPEA_WPEBDPEA_WAEBU_Cvtvec@@@Z
pdata	ENDS
;	COMDAT pdata
pdata	SEGMENT
$pdata$?_Maklocwcs@std@@YAPEA_WPEB_W@Z DD imagerel $LN4
	DD	imagerel $LN4+145
	DD	imagerel $unwind$?_Maklocwcs@std@@YAPEA_WPEB_W@Z
pdata	ENDS
;	COMDAT pdata
pdata	SEGMENT
$pdata$??$_Maklocstr@D@std@@YAPEADPEBDPEADAEBU_Cvtvec@@@Z DD imagerel $LN7
	DD	imagerel $LN7+202
	DD	imagerel $unwind$??$_Maklocstr@D@std@@YAPEADPEBDPEADAEBU_Cvtvec@@@Z
pdata	ENDS
;	COMDAT pdata
pdata	SEGMENT
$pdata$??$_Getvals@_W@?$time_get@DV?$istreambuf_iterator@DU?$char_traits@D@std@@@std@@@std@@IEAAX_WAEBV_Locinfo@1@@Z DD imagerel $LN5
	DD	imagerel $LN5+357
	DD	imagerel $unwind$??$_Getvals@_W@?$time_get@DV?$istreambuf_iterator@DU?$char_traits@D@std@@@std@@@std@@IEAAX_WAEBV_Locinfo@1@@Z
pdata	ENDS
;	COMDAT pdata
pdata	SEGMENT
$pdata$??$_Getvals@_W@?$time_get@_WV?$istreambuf_iterator@_WU?$char_traits@_W@std@@@std@@@std@@IEAAX_WAEBV_Locinfo@1@@Z DD imagerel $LN5
	DD	imagerel $LN5+357
	DD	imagerel $unwind$??$_Getvals@_W@?$time_get@_WV?$istreambuf_iterator@_WU?$char_traits@_W@std@@@std@@@std@@IEAAX_WAEBV_Locinfo@1@@Z
pdata	ENDS
;	COMDAT pdata
pdata	SEGMENT
$pdata$?isLeapYear@@YA_NH@Z DD imagerel $LN6
	DD	imagerel $LN6+131
	DD	imagerel $unwind$?isLeapYear@@YA_NH@Z
pdata	ENDS
;	COMDAT rtc$TMZ
rtc$TMZ	SEGMENT
_RTC_Shutdown.rtc$TMZ DQ FLAT:_RTC_Shutdown
rtc$TMZ	ENDS
;	COMDAT rtc$IMZ
rtc$IMZ	SEGMENT
_RTC_InitBase.rtc$IMZ DQ FLAT:_RTC_InitBase
rtc$IMZ	ENDS
;	COMDAT ??_C@_1BK@MHIKGOKE@?$AA?3?$AAA?$AAM?$AA?3?$AAa?$AAm?$AA?3?$AAP?$AAM?$AA?3?$AAp?$AAm@
CONST	SEGMENT
??_C@_1BK@MHIKGOKE@?$AA?3?$AAA?$AAM?$AA?3?$AAa?$AAm?$AA?3?$AAP?$AAM?$AA?3?$AAp?$AAm@ DB ':'
	DB	00H, 'A', 00H, 'M', 00H, ':', 00H, 'a', 00H, 'm', 00H, ':', 00H
	DB	'P', 00H, 'M', 00H, ':', 00H, 'p', 00H, 'm', 00H, 00H, 00H ; `string'
CONST	ENDS
;	COMDAT ??_C@_0N@LPFKKEBD@?3AM?3am?3PM?3pm@
CONST	SEGMENT
??_C@_0N@LPFKKEBD@?3AM?3am?3PM?3pm@ DB ':AM:am:PM:pm', 00H ; `string'
CONST	ENDS
;	COMDAT ??_C@_0GC@IDPJHLAK@C?3?2Program?5Files?2Microsoft?5Visu@
CONST	SEGMENT
??_C@_0GC@IDPJHLAK@C?3?2Program?5Files?2Microsoft?5Visu@ DB 'C:\Program F'
	DB	'iles\Microsoft Visual Studio\2022\Community\VC\Tools\MSVC\14.'
	DB	'42.34433\include\xlocnum', 00H		; `string'
CONST	ENDS
;	COMDAT ?__LINE__Var@?0??_Maklocwcs@std@@YAPEA_WPEB_W@Z@4JA
_DATA	SEGMENT
?__LINE__Var@?0??_Maklocwcs@std@@YAPEA_WPEB_W@Z@4JA DD 049H ; `std::_Maklocwcs'::`1'::__LINE__Var
_DATA	ENDS
;	COMDAT ??_C@_0GC@LEHJKL@C?3?2Program?5Files?2Microsoft?5Visu@
CONST	SEGMENT
??_C@_0GC@LEHJKL@C?3?2Program?5Files?2Microsoft?5Visu@ DB 'C:\Program Fil'
	DB	'es\Microsoft Visual Studio\2022\Community\VC\Tools\MSVC\14.42'
	DB	'.34433\include\xlocale', 00H		; `string'
CONST	ENDS
;	COMDAT xdata
xdata	SEGMENT
$unwind$?isLeapYear@@YA_NH@Z DD 025051201H
	DD	010d2312H
	DD	07006001fH
	DD	05005H
xdata	ENDS
;	COMDAT xdata
xdata	SEGMENT
$unwind$??$_Getvals@_W@?$time_get@_WV?$istreambuf_iterator@_WU?$char_traits@_W@std@@@std@@@std@@IEAAX_WAEBV_Locinfo@1@@Z DD 025061e01H
	DD	0119231eH
	DD	070120026H
	DD	050106011H
xdata	ENDS
;	COMDAT xdata
xdata	SEGMENT
$unwind$??$_Getvals@_W@?$time_get@DV?$istreambuf_iterator@DU?$char_traits@D@std@@@std@@@std@@IEAAX_WAEBV_Locinfo@1@@Z DD 025061e01H
	DD	0119231eH
	DD	070120026H
	DD	050106011H
xdata	ENDS
;	COMDAT xdata
xdata	SEGMENT
$unwind$??$_Maklocstr@D@std@@YAPEADPEBDPEADAEBU_Cvtvec@@@Z DD 035051d01H
	DD	0118331dH
	DD	07011002bH
	DD	05010H
xdata	ENDS
;	COMDAT xdata
xdata	SEGMENT
$unwind$?_Maklocwcs@std@@YAPEA_WPEB_W@Z DD 035051301H
	DD	010e3313H
	DD	070070027H
	DD	05006H
xdata	ENDS
;	COMDAT voltbl
voltbl	SEGMENT
_volmd	DW	040H
	DW	0233H
voltbl	ENDS
;	COMDAT xdata
xdata	SEGMENT
$unwind$??$_Maklocstr@_W@std@@YAPEA_WPEBDPEA_WAEBU_Cvtvec@@@Z DD 035054719H
	DD	0118331dH
	DD	070110047H
	DD	05010H
	DD	imagerel __GSHandlerCheck
	DD	0228H
xdata	ENDS
;	COMDAT CONST
CONST	SEGMENT
??$_Maklocstr@_W@std@@YAPEA_WPEBDPEA_WAEBU_Cvtvec@@@Z$rtcName$0 DB 05fH ; std::_Maklocstr<wchar_t>
	DB	057H
	DB	063H
	DB	00H
??$_Maklocstr@_W@std@@YAPEA_WPEBDPEA_WAEBU_Cvtvec@@@Z$rtcName$1 DB 05fH ; std::_Maklocstr<wchar_t>
	DB	04dH
	DB	062H
	DB	073H
	DB	074H
	DB	031H
	DB	00H
	ORG $+1
??$_Maklocstr@_W@std@@YAPEA_WPEBDPEA_WAEBU_Cvtvec@@@Z$rtcName$2 DB 05fH ; std::_Maklocstr<wchar_t>
	DB	04dH
	DB	062H
	DB	073H
	DB	074H
	DB	032H
	DB	00H
	ORG $+13
??$_Maklocstr@_W@std@@YAPEA_WPEBDPEA_WAEBU_Cvtvec@@@Z$rtcVarDesc DD 0158H ; std::_Maklocstr<wchar_t>
	DD	08H
	DQ	FLAT:??$_Maklocstr@_W@std@@YAPEA_WPEBDPEA_WAEBU_Cvtvec@@@Z$rtcName$2
	DD	0f8H
	DD	08H
	DQ	FLAT:??$_Maklocstr@_W@std@@YAPEA_WPEBDPEA_WAEBU_Cvtvec@@@Z$rtcName$1
	DD	0d4H
	DD	02H
	DQ	FLAT:??$_Maklocstr@_W@std@@YAPEA_WPEBDPEA_WAEBU_Cvtvec@@@Z$rtcName$0
	ORG $+144
??$_Maklocstr@_W@std@@YAPEA_WPEBDPEA_WAEBU_Cvtvec@@@Z$rtcFrameData DD 03H ; std::_Maklocstr<wchar_t>
	DD	00H
	DQ	FLAT:??$_Maklocstr@_W@std@@YAPEA_WPEBDPEA_WAEBU_Cvtvec@@@Z$rtcVarDesc
CONST	ENDS
;	COMDAT xdata
xdata	SEGMENT
$unwind$wmemcpy DD 025051d01H
	DD	0118231dH
	DD	07011001dH
	DD	05010H
xdata	ENDS
;	COMDAT xdata
xdata	SEGMENT
$unwind$?__empty_global_delete@@YAXPEAX_K@Z DD 025051801H
	DD	01132318H
	DD	0700c001dH
	DD	0500bH
xdata	ENDS
;	COMDAT xdata
xdata	SEGMENT
$unwind$?__empty_global_delete@@YAXPEAX@Z DD 025051301H
	DD	010e2313H
	DD	07007001dH
	DD	05006H
xdata	ENDS
; Function compile flags: /Odt
;	COMDAT __JustMyCode_Default
_TEXT	SEGMENT
__JustMyCode_Default PROC				; COMDAT
  00000	c2 00 00	 ret	 0
__JustMyCode_Default ENDP
_TEXT	ENDS
; Function compile flags: /Odtp /RTCsu /ZI
; File C:\Уник\KPO\Calendar\laba01\isLeapYear.cpp
;	COMDAT ?isLeapYear@@YA_NH@Z
_TEXT	SEGMENT
tv70 = 192
year$ = 240
?isLeapYear@@YA_NH@Z PROC				; isLeapYear, COMDAT

; 4    : bool isLeapYear(int year) {

$LN6:
  00000	89 4c 24 08	 mov	 DWORD PTR [rsp+8], ecx
  00004	55		 push	 rbp
  00005	57		 push	 rdi
  00006	48 81 ec f8 00
	00 00		 sub	 rsp, 248		; 000000f8H
  0000d	48 8d 6c 24 20	 lea	 rbp, QWORD PTR [rsp+32]
  00012	48 8d 0d 00 00
	00 00		 lea	 rcx, OFFSET FLAT:__686F7F7C_isLeapYear@cpp
  00019	e8 00 00 00 00	 call	 __CheckForDebuggerJustMyCode
  0001e	90		 npad	 1

; 5    :     return (year % 4 == 0 && year % 100 != 0) || (year % 400 == 0);

  0001f	8b 85 f0 00 00
	00		 mov	 eax, DWORD PTR year$[rbp]
  00025	99		 cdq
  00026	83 e2 03	 and	 edx, 3
  00029	03 c2		 add	 eax, edx
  0002b	83 e0 03	 and	 eax, 3
  0002e	2b c2		 sub	 eax, edx
  00030	85 c0		 test	 eax, eax
  00032	75 14		 jne	 SHORT $LN3@isLeapYear
  00034	8b 85 f0 00 00
	00		 mov	 eax, DWORD PTR year$[rbp]
  0003a	99		 cdq
  0003b	b9 64 00 00 00	 mov	 ecx, 100		; 00000064H
  00040	f7 f9		 idiv	 ecx
  00042	8b c2		 mov	 eax, edx
  00044	85 c0		 test	 eax, eax
  00046	75 20		 jne	 SHORT $LN4@isLeapYear
$LN3@isLeapYear:
  00048	8b 85 f0 00 00
	00		 mov	 eax, DWORD PTR year$[rbp]
  0004e	99		 cdq
  0004f	b9 90 01 00 00	 mov	 ecx, 400		; 00000190H
  00054	f7 f9		 idiv	 ecx
  00056	8b c2		 mov	 eax, edx
  00058	85 c0		 test	 eax, eax
  0005a	74 0c		 je	 SHORT $LN4@isLeapYear
  0005c	c7 85 c0 00 00
	00 00 00 00 00	 mov	 DWORD PTR tv70[rbp], 0
  00066	eb 0a		 jmp	 SHORT $LN5@isLeapYear
$LN4@isLeapYear:
  00068	c7 85 c0 00 00
	00 01 00 00 00	 mov	 DWORD PTR tv70[rbp], 1
$LN5@isLeapYear:
  00072	0f b6 85 c0 00
	00 00		 movzx	 eax, BYTE PTR tv70[rbp]

; 6    : }

  00079	48 8d a5 d8 00
	00 00		 lea	 rsp, QWORD PTR [rbp+216]
  00080	5f		 pop	 rdi
  00081	5d		 pop	 rbp
  00082	c3		 ret	 0
?isLeapYear@@YA_NH@Z ENDP				; isLeapYear
_TEXT	ENDS
; Function compile flags: /Odtp /RTCsu /ZI
; File C:\Program Files\Microsoft Visual Studio\2022\Community\VC\Tools\MSVC\14.42.34433\include\xloctime
;	COMDAT ??$_Getvals@_W@?$time_get@_WV?$istreambuf_iterator@_WU?$char_traits@_W@std@@@std@@@std@@IEAAX_WAEBV_Locinfo@1@@Z
_TEXT	SEGMENT
$T1 = 200
tv85 = 264
tv93 = 264
this$ = 304
__formal$ = 312
_Lobj$ = 320
??$_Getvals@_W@?$time_get@_WV?$istreambuf_iterator@_WU?$char_traits@_W@std@@@std@@@std@@IEAAX_WAEBV_Locinfo@1@@Z PROC ; std::time_get<wchar_t,std::istreambuf_iterator<wchar_t,std::char_traits<wchar_t> > >::_Getvals<wchar_t>, COMDAT

; 238  :     void __CLR_OR_THIS_CALL _Getvals(_Elem2, const _Locinfo& _Lobj) { // get values

$LN5:
  00000	4c 89 44 24 18	 mov	 QWORD PTR [rsp+24], r8
  00005	66 89 54 24 10	 mov	 WORD PTR [rsp+16], dx
  0000a	48 89 4c 24 08	 mov	 QWORD PTR [rsp+8], rcx
  0000f	55		 push	 rbp
  00010	56		 push	 rsi
  00011	57		 push	 rdi
  00012	48 81 ec 30 01
	00 00		 sub	 rsp, 304		; 00000130H
  00019	48 8d 6c 24 20	 lea	 rbp, QWORD PTR [rsp+32]
  0001e	48 8d 0d 00 00
	00 00		 lea	 rcx, OFFSET FLAT:__27C35076_xloctime
  00025	e8 00 00 00 00	 call	 __CheckForDebuggerJustMyCode
  0002a	90		 npad	 1

; 239  :         _Cvt = _Lobj._Getcvt();

  0002b	48 8d 95 c8 00
	00 00		 lea	 rdx, QWORD PTR $T1[rbp]
  00032	48 8b 8d 40 01
	00 00		 mov	 rcx, QWORD PTR _Lobj$[rbp]
  00039	ff 15 00 00 00
	00		 call	 QWORD PTR __imp_?_Getcvt@_Locinfo@std@@QEBA?AU_Cvtvec@@XZ
  0003f	48 8b 8d 30 01
	00 00		 mov	 rcx, QWORD PTR this$[rbp]
  00046	48 8d 79 2c	 lea	 rdi, QWORD PTR [rcx+44]
  0004a	48 8b f0	 mov	 rsi, rax
  0004d	b9 2c 00 00 00	 mov	 ecx, 44			; 0000002cH
  00052	f3 a4		 rep movsb

; 240  : 
; 241  :         if (is_same_v<_Elem2, wchar_t>) {

  00054	33 c0		 xor	 eax, eax
  00056	83 f8 01	 cmp	 eax, 1
  00059	74 5c		 je	 SHORT $LN2@Getvals

; 242  :             _Days = reinterpret_cast<const _Elem*>(_Maklocwcs(reinterpret_cast<const wchar_t*>(_Lobj._W_Getdays())));

  0005b	48 8b 8d 40 01
	00 00		 mov	 rcx, QWORD PTR _Lobj$[rbp]
  00062	ff 15 00 00 00
	00		 call	 QWORD PTR __imp_?_W_Getdays@_Locinfo@std@@QEBAPEBGXZ
  00068	48 8b c8	 mov	 rcx, rax
  0006b	e8 00 00 00 00	 call	 ?_Maklocwcs@std@@YAPEA_WPEB_W@Z ; std::_Maklocwcs
  00070	48 8b 8d 30 01
	00 00		 mov	 rcx, QWORD PTR this$[rbp]
  00077	48 89 41 10	 mov	 QWORD PTR [rcx+16], rax

; 243  :             _Months =

  0007b	48 8b 8d 40 01
	00 00		 mov	 rcx, QWORD PTR _Lobj$[rbp]
  00082	ff 15 00 00 00
	00		 call	 QWORD PTR __imp_?_W_Getmonths@_Locinfo@std@@QEBAPEBGXZ
  00088	48 8b c8	 mov	 rcx, rax
  0008b	e8 00 00 00 00	 call	 ?_Maklocwcs@std@@YAPEA_WPEB_W@Z ; std::_Maklocwcs
  00090	48 8b 8d 30 01
	00 00		 mov	 rcx, QWORD PTR this$[rbp]
  00097	48 89 41 18	 mov	 QWORD PTR [rcx+24], rax

; 244  :                 reinterpret_cast<const _Elem*>(_Maklocwcs(reinterpret_cast<const wchar_t*>(_Lobj._W_Getmonths())));
; 245  :             _Ampm = reinterpret_cast<const _Elem*>(_Maklocwcs(L":AM:am:PM:pm"));

  0009b	48 8d 0d 00 00
	00 00		 lea	 rcx, OFFSET FLAT:??_C@_1BK@MHIKGOKE@?$AA?3?$AAA?$AAM?$AA?3?$AAa?$AAm?$AA?3?$AAP?$AAM?$AA?3?$AAp?$AAm@
  000a2	e8 00 00 00 00	 call	 ?_Maklocwcs@std@@YAPEA_WPEB_W@Z ; std::_Maklocwcs
  000a7	48 8b 8d 30 01
	00 00		 mov	 rcx, QWORD PTR this$[rbp]
  000ae	48 89 41 20	 mov	 QWORD PTR [rcx+32], rax

; 246  :         } else {

  000b2	e9 a3 00 00 00	 jmp	 $LN3@Getvals
$LN2@Getvals:

; 247  :             _Days   = _Maklocstr(_Lobj._Getdays(), static_cast<_Elem*>(nullptr), _Cvt);

  000b7	48 8b 85 30 01
	00 00		 mov	 rax, QWORD PTR this$[rbp]
  000be	48 83 c0 2c	 add	 rax, 44			; 0000002cH
  000c2	48 89 85 08 01
	00 00		 mov	 QWORD PTR tv85[rbp], rax
  000c9	48 8b 8d 40 01
	00 00		 mov	 rcx, QWORD PTR _Lobj$[rbp]
  000d0	ff 15 00 00 00
	00		 call	 QWORD PTR __imp_?_Getdays@_Locinfo@std@@QEBAPEBDXZ
  000d6	48 8b 8d 08 01
	00 00		 mov	 rcx, QWORD PTR tv85[rbp]
  000dd	4c 8b c1	 mov	 r8, rcx
  000e0	33 d2		 xor	 edx, edx
  000e2	48 8b c8	 mov	 rcx, rax
  000e5	e8 00 00 00 00	 call	 ??$_Maklocstr@_W@std@@YAPEA_WPEBDPEA_WAEBU_Cvtvec@@@Z ; std::_Maklocstr<wchar_t>
  000ea	48 8b 8d 30 01
	00 00		 mov	 rcx, QWORD PTR this$[rbp]
  000f1	48 89 41 10	 mov	 QWORD PTR [rcx+16], rax

; 248  :             _Months = _Maklocstr(_Lobj._Getmonths(), static_cast<_Elem*>(nullptr), _Cvt);

  000f5	48 8b 85 30 01
	00 00		 mov	 rax, QWORD PTR this$[rbp]
  000fc	48 83 c0 2c	 add	 rax, 44			; 0000002cH
  00100	48 89 85 08 01
	00 00		 mov	 QWORD PTR tv93[rbp], rax
  00107	48 8b 8d 40 01
	00 00		 mov	 rcx, QWORD PTR _Lobj$[rbp]
  0010e	ff 15 00 00 00
	00		 call	 QWORD PTR __imp_?_Getmonths@_Locinfo@std@@QEBAPEBDXZ
  00114	48 8b 8d 08 01
	00 00		 mov	 rcx, QWORD PTR tv93[rbp]
  0011b	4c 8b c1	 mov	 r8, rcx
  0011e	33 d2		 xor	 edx, edx
  00120	48 8b c8	 mov	 rcx, rax
  00123	e8 00 00 00 00	 call	 ??$_Maklocstr@_W@std@@YAPEA_WPEBDPEA_WAEBU_Cvtvec@@@Z ; std::_Maklocstr<wchar_t>
  00128	48 8b 8d 30 01
	00 00		 mov	 rcx, QWORD PTR this$[rbp]
  0012f	48 89 41 18	 mov	 QWORD PTR [rcx+24], rax

; 249  :             _Ampm   = _Maklocstr(":AM:am:PM:pm", static_cast<_Elem*>(nullptr), _Cvt);

  00133	48 8b 85 30 01
	00 00		 mov	 rax, QWORD PTR this$[rbp]
  0013a	48 83 c0 2c	 add	 rax, 44			; 0000002cH
  0013e	4c 8b c0	 mov	 r8, rax
  00141	33 d2		 xor	 edx, edx
  00143	48 8d 0d 00 00
	00 00		 lea	 rcx, OFFSET FLAT:??_C@_0N@LPFKKEBD@?3AM?3am?3PM?3pm@
  0014a	e8 00 00 00 00	 call	 ??$_Maklocstr@_W@std@@YAPEA_WPEBDPEA_WAEBU_Cvtvec@@@Z ; std::_Maklocstr<wchar_t>
  0014f	48 8b 8d 30 01
	00 00		 mov	 rcx, QWORD PTR this$[rbp]
  00156	48 89 41 20	 mov	 QWORD PTR [rcx+32], rax
$LN3@Getvals:

; 250  :         }
; 251  :     }

  0015a	48 8d a5 10 01
	00 00		 lea	 rsp, QWORD PTR [rbp+272]
  00161	5f		 pop	 rdi
  00162	5e		 pop	 rsi
  00163	5d		 pop	 rbp
  00164	c3		 ret	 0
??$_Getvals@_W@?$time_get@_WV?$istreambuf_iterator@_WU?$char_traits@_W@std@@@std@@@std@@IEAAX_WAEBV_Locinfo@1@@Z ENDP ; std::time_get<wchar_t,std::istreambuf_iterator<wchar_t,std::char_traits<wchar_t> > >::_Getvals<wchar_t>
_TEXT	ENDS
; Function compile flags: /Odtp /RTCsu /ZI
; File C:\Program Files\Microsoft Visual Studio\2022\Community\VC\Tools\MSVC\14.42.34433\include\xloctime
;	COMDAT ??$_Getvals@_W@?$time_get@DV?$istreambuf_iterator@DU?$char_traits@D@std@@@std@@@std@@IEAAX_WAEBV_Locinfo@1@@Z
_TEXT	SEGMENT
$T1 = 200
tv85 = 264
tv93 = 264
this$ = 304
__formal$ = 312
_Lobj$ = 320
??$_Getvals@_W@?$time_get@DV?$istreambuf_iterator@DU?$char_traits@D@std@@@std@@@std@@IEAAX_WAEBV_Locinfo@1@@Z PROC ; std::time_get<char,std::istreambuf_iterator<char,std::char_traits<char> > >::_Getvals<wchar_t>, COMDAT

; 238  :     void __CLR_OR_THIS_CALL _Getvals(_Elem2, const _Locinfo& _Lobj) { // get values

$LN5:
  00000	4c 89 44 24 18	 mov	 QWORD PTR [rsp+24], r8
  00005	66 89 54 24 10	 mov	 WORD PTR [rsp+16], dx
  0000a	48 89 4c 24 08	 mov	 QWORD PTR [rsp+8], rcx
  0000f	55		 push	 rbp
  00010	56		 push	 rsi
  00011	57		 push	 rdi
  00012	48 81 ec 30 01
	00 00		 sub	 rsp, 304		; 00000130H
  00019	48 8d 6c 24 20	 lea	 rbp, QWORD PTR [rsp+32]
  0001e	48 8d 0d 00 00
	00 00		 lea	 rcx, OFFSET FLAT:__27C35076_xloctime
  00025	e8 00 00 00 00	 call	 __CheckForDebuggerJustMyCode
  0002a	90		 npad	 1

; 239  :         _Cvt = _Lobj._Getcvt();

  0002b	48 8d 95 c8 00
	00 00		 lea	 rdx, QWORD PTR $T1[rbp]
  00032	48 8b 8d 40 01
	00 00		 mov	 rcx, QWORD PTR _Lobj$[rbp]
  00039	ff 15 00 00 00
	00		 call	 QWORD PTR __imp_?_Getcvt@_Locinfo@std@@QEBA?AU_Cvtvec@@XZ
  0003f	48 8b 8d 30 01
	00 00		 mov	 rcx, QWORD PTR this$[rbp]
  00046	48 8d 79 2c	 lea	 rdi, QWORD PTR [rcx+44]
  0004a	48 8b f0	 mov	 rsi, rax
  0004d	b9 2c 00 00 00	 mov	 ecx, 44			; 0000002cH
  00052	f3 a4		 rep movsb

; 240  : 
; 241  :         if (is_same_v<_Elem2, wchar_t>) {

  00054	33 c0		 xor	 eax, eax
  00056	83 f8 01	 cmp	 eax, 1
  00059	74 5c		 je	 SHORT $LN2@Getvals

; 242  :             _Days = reinterpret_cast<const _Elem*>(_Maklocwcs(reinterpret_cast<const wchar_t*>(_Lobj._W_Getdays())));

  0005b	48 8b 8d 40 01
	00 00		 mov	 rcx, QWORD PTR _Lobj$[rbp]
  00062	ff 15 00 00 00
	00		 call	 QWORD PTR __imp_?_W_Getdays@_Locinfo@std@@QEBAPEBGXZ
  00068	48 8b c8	 mov	 rcx, rax
  0006b	e8 00 00 00 00	 call	 ?_Maklocwcs@std@@YAPEA_WPEB_W@Z ; std::_Maklocwcs
  00070	48 8b 8d 30 01
	00 00		 mov	 rcx, QWORD PTR this$[rbp]
  00077	48 89 41 10	 mov	 QWORD PTR [rcx+16], rax

; 243  :             _Months =

  0007b	48 8b 8d 40 01
	00 00		 mov	 rcx, QWORD PTR _Lobj$[rbp]
  00082	ff 15 00 00 00
	00		 call	 QWORD PTR __imp_?_W_Getmonths@_Locinfo@std@@QEBAPEBGXZ
  00088	48 8b c8	 mov	 rcx, rax
  0008b	e8 00 00 00 00	 call	 ?_Maklocwcs@std@@YAPEA_WPEB_W@Z ; std::_Maklocwcs
  00090	48 8b 8d 30 01
	00 00		 mov	 rcx, QWORD PTR this$[rbp]
  00097	48 89 41 18	 mov	 QWORD PTR [rcx+24], rax

; 244  :                 reinterpret_cast<const _Elem*>(_Maklocwcs(reinterpret_cast<const wchar_t*>(_Lobj._W_Getmonths())));
; 245  :             _Ampm = reinterpret_cast<const _Elem*>(_Maklocwcs(L":AM:am:PM:pm"));

  0009b	48 8d 0d 00 00
	00 00		 lea	 rcx, OFFSET FLAT:??_C@_1BK@MHIKGOKE@?$AA?3?$AAA?$AAM?$AA?3?$AAa?$AAm?$AA?3?$AAP?$AAM?$AA?3?$AAp?$AAm@
  000a2	e8 00 00 00 00	 call	 ?_Maklocwcs@std@@YAPEA_WPEB_W@Z ; std::_Maklocwcs
  000a7	48 8b 8d 30 01
	00 00		 mov	 rcx, QWORD PTR this$[rbp]
  000ae	48 89 41 20	 mov	 QWORD PTR [rcx+32], rax

; 246  :         } else {

  000b2	e9 a3 00 00 00	 jmp	 $LN3@Getvals
$LN2@Getvals:

; 247  :             _Days   = _Maklocstr(_Lobj._Getdays(), static_cast<_Elem*>(nullptr), _Cvt);

  000b7	48 8b 85 30 01
	00 00		 mov	 rax, QWORD PTR this$[rbp]
  000be	48 83 c0 2c	 add	 rax, 44			; 0000002cH
  000c2	48 89 85 08 01
	00 00		 mov	 QWORD PTR tv85[rbp], rax
  000c9	48 8b 8d 40 01
	00 00		 mov	 rcx, QWORD PTR _Lobj$[rbp]
  000d0	ff 15 00 00 00
	00		 call	 QWORD PTR __imp_?_Getdays@_Locinfo@std@@QEBAPEBDXZ
  000d6	48 8b 8d 08 01
	00 00		 mov	 rcx, QWORD PTR tv85[rbp]
  000dd	4c 8b c1	 mov	 r8, rcx
  000e0	33 d2		 xor	 edx, edx
  000e2	48 8b c8	 mov	 rcx, rax
  000e5	e8 00 00 00 00	 call	 ??$_Maklocstr@D@std@@YAPEADPEBDPEADAEBU_Cvtvec@@@Z ; std::_Maklocstr<char>
  000ea	48 8b 8d 30 01
	00 00		 mov	 rcx, QWORD PTR this$[rbp]
  000f1	48 89 41 10	 mov	 QWORD PTR [rcx+16], rax

; 248  :             _Months = _Maklocstr(_Lobj._Getmonths(), static_cast<_Elem*>(nullptr), _Cvt);

  000f5	48 8b 85 30 01
	00 00		 mov	 rax, QWORD PTR this$[rbp]
  000fc	48 83 c0 2c	 add	 rax, 44			; 0000002cH
  00100	48 89 85 08 01
	00 00		 mov	 QWORD PTR tv93[rbp], rax
  00107	48 8b 8d 40 01
	00 00		 mov	 rcx, QWORD PTR _Lobj$[rbp]
  0010e	ff 15 00 00 00
	00		 call	 QWORD PTR __imp_?_Getmonths@_Locinfo@std@@QEBAPEBDXZ
  00114	48 8b 8d 08 01
	00 00		 mov	 rcx, QWORD PTR tv93[rbp]
  0011b	4c 8b c1	 mov	 r8, rcx
  0011e	33 d2		 xor	 edx, edx
  00120	48 8b c8	 mov	 rcx, rax
  00123	e8 00 00 00 00	 call	 ??$_Maklocstr@D@std@@YAPEADPEBDPEADAEBU_Cvtvec@@@Z ; std::_Maklocstr<char>
  00128	48 8b 8d 30 01
	00 00		 mov	 rcx, QWORD PTR this$[rbp]
  0012f	48 89 41 18	 mov	 QWORD PTR [rcx+24], rax

; 249  :             _Ampm   = _Maklocstr(":AM:am:PM:pm", static_cast<_Elem*>(nullptr), _Cvt);

  00133	48 8b 85 30 01
	00 00		 mov	 rax, QWORD PTR this$[rbp]
  0013a	48 83 c0 2c	 add	 rax, 44			; 0000002cH
  0013e	4c 8b c0	 mov	 r8, rax
  00141	33 d2		 xor	 edx, edx
  00143	48 8d 0d 00 00
	00 00		 lea	 rcx, OFFSET FLAT:??_C@_0N@LPFKKEBD@?3AM?3am?3PM?3pm@
  0014a	e8 00 00 00 00	 call	 ??$_Maklocstr@D@std@@YAPEADPEBDPEADAEBU_Cvtvec@@@Z ; std::_Maklocstr<char>
  0014f	48 8b 8d 30 01
	00 00		 mov	 rcx, QWORD PTR this$[rbp]
  00156	48 89 41 20	 mov	 QWORD PTR [rcx+32], rax
$LN3@Getvals:

; 250  :         }
; 251  :     }

  0015a	48 8d a5 10 01
	00 00		 lea	 rsp, QWORD PTR [rbp+272]
  00161	5f		 pop	 rdi
  00162	5e		 pop	 rsi
  00163	5d		 pop	 rbp
  00164	c3		 ret	 0
??$_Getvals@_W@?$time_get@DV?$istreambuf_iterator@DU?$char_traits@D@std@@@std@@@std@@IEAAX_WAEBV_Locinfo@1@@Z ENDP ; std::time_get<char,std::istreambuf_iterator<char,std::char_traits<char> > >::_Getvals<wchar_t>
_TEXT	ENDS
; Function compile flags: /Odtp /RTCsu /ZI
; File C:\Program Files\Microsoft Visual Studio\2022\Community\VC\Tools\MSVC\14.42.34433\include\xlocale
;	COMDAT ??$_Maklocstr@D@std@@YAPEADPEBDPEADAEBU_Cvtvec@@@Z
_TEXT	SEGMENT
_Count$ = 8
_Ptrdest$ = 40
_Ptrnext$1 = 72
_Ptr$ = 320
__formal$ = 328
__formal$ = 336
??$_Maklocstr@D@std@@YAPEADPEBDPEADAEBU_Cvtvec@@@Z PROC	; std::_Maklocstr<char>, COMDAT

; 511  : _Elem* __CRTDECL _Maklocstr(const char* _Ptr, _Elem*, const _Locinfo::_Cvtvec&) {

$LN7:
  00000	4c 89 44 24 18	 mov	 QWORD PTR [rsp+24], r8
  00005	48 89 54 24 10	 mov	 QWORD PTR [rsp+16], rdx
  0000a	48 89 4c 24 08	 mov	 QWORD PTR [rsp+8], rcx
  0000f	55		 push	 rbp
  00010	57		 push	 rdi
  00011	48 81 ec 58 01
	00 00		 sub	 rsp, 344		; 00000158H
  00018	48 8d 6c 24 30	 lea	 rbp, QWORD PTR [rsp+48]
  0001d	48 8d 0d 00 00
	00 00		 lea	 rcx, OFFSET FLAT:__A850C1F8_xlocale
  00024	e8 00 00 00 00	 call	 __CheckForDebuggerJustMyCode
  00029	90		 npad	 1

; 512  :     // convert C string to _Elem sequence using _Cvtvec
; 513  :     size_t _Count = _CSTD strlen(_Ptr) + 1;

  0002a	48 8b 8d 40 01
	00 00		 mov	 rcx, QWORD PTR _Ptr$[rbp]
  00031	e8 00 00 00 00	 call	 strlen
  00036	48 ff c0	 inc	 rax
  00039	48 89 45 08	 mov	 QWORD PTR _Count$[rbp], rax

; 514  : 
; 515  :     _Elem* _Ptrdest = static_cast<_Elem*>(_calloc_dbg(_Count, sizeof(_Elem), _CRT_BLOCK, __FILE__, __LINE__));

  0003d	c7 44 24 20 03
	02 00 00	 mov	 DWORD PTR [rsp+32], 515	; 00000203H
  00045	4c 8d 0d 00 00
	00 00		 lea	 r9, OFFSET FLAT:??_C@_0GC@LEHJKL@C?3?2Program?5Files?2Microsoft?5Visu@
  0004c	41 b8 02 00 00
	00		 mov	 r8d, 2
  00052	ba 01 00 00 00	 mov	 edx, 1
  00057	48 8b 4d 08	 mov	 rcx, QWORD PTR _Count$[rbp]
  0005b	ff 15 00 00 00
	00		 call	 QWORD PTR __imp__calloc_dbg
  00061	48 89 45 28	 mov	 QWORD PTR _Ptrdest$[rbp], rax

; 516  : 
; 517  :     if (!_Ptrdest) {

  00065	48 83 7d 28 00	 cmp	 QWORD PTR _Ptrdest$[rbp], 0
  0006a	75 06		 jne	 SHORT $LN5@Maklocstr

; 518  :         _Xbad_alloc();

  0006c	e8 00 00 00 00	 call	 ?_Xbad_alloc@std@@YAXXZ	; std::_Xbad_alloc
  00071	90		 npad	 1
$LN5@Maklocstr:

; 519  :     }
; 520  : 
; 521  :     for (_Elem* _Ptrnext = _Ptrdest; 0 < _Count; --_Count, ++_Ptrnext, ++_Ptr) {

  00072	48 8b 45 28	 mov	 rax, QWORD PTR _Ptrdest$[rbp]
  00076	48 89 45 48	 mov	 QWORD PTR _Ptrnext$1[rbp], rax
  0007a	eb 27		 jmp	 SHORT $LN4@Maklocstr
$LN2@Maklocstr:
  0007c	48 8b 45 08	 mov	 rax, QWORD PTR _Count$[rbp]
  00080	48 ff c8	 dec	 rax
  00083	48 89 45 08	 mov	 QWORD PTR _Count$[rbp], rax
  00087	48 8b 45 48	 mov	 rax, QWORD PTR _Ptrnext$1[rbp]
  0008b	48 ff c0	 inc	 rax
  0008e	48 89 45 48	 mov	 QWORD PTR _Ptrnext$1[rbp], rax
  00092	48 8b 85 40 01
	00 00		 mov	 rax, QWORD PTR _Ptr$[rbp]
  00099	48 ff c0	 inc	 rax
  0009c	48 89 85 40 01
	00 00		 mov	 QWORD PTR _Ptr$[rbp], rax
$LN4@Maklocstr:
  000a3	48 83 7d 08 00	 cmp	 QWORD PTR _Count$[rbp], 0
  000a8	76 12		 jbe	 SHORT $LN3@Maklocstr

; 522  :         *_Ptrnext = static_cast<_Elem>(static_cast<unsigned char>(*_Ptr));

  000aa	48 8b 45 48	 mov	 rax, QWORD PTR _Ptrnext$1[rbp]
  000ae	48 8b 8d 40 01
	00 00		 mov	 rcx, QWORD PTR _Ptr$[rbp]
  000b5	0f b6 09	 movzx	 ecx, BYTE PTR [rcx]
  000b8	88 08		 mov	 BYTE PTR [rax], cl

; 523  :     }

  000ba	eb c0		 jmp	 SHORT $LN2@Maklocstr
$LN3@Maklocstr:

; 524  : 
; 525  :     return _Ptrdest;

  000bc	48 8b 45 28	 mov	 rax, QWORD PTR _Ptrdest$[rbp]
$LN6@Maklocstr:

; 526  : }

  000c0	48 8d a5 28 01
	00 00		 lea	 rsp, QWORD PTR [rbp+296]
  000c7	5f		 pop	 rdi
  000c8	5d		 pop	 rbp
  000c9	c3		 ret	 0
??$_Maklocstr@D@std@@YAPEADPEBDPEADAEBU_Cvtvec@@@Z ENDP	; std::_Maklocstr<char>
_TEXT	ENDS
; Function compile flags: /Odtp /RTCsu /ZI
; File C:\Program Files\Microsoft Visual Studio\2022\Community\VC\Tools\MSVC\14.42.34433\include\xlocnum
;	COMDAT ?_Maklocwcs@std@@YAPEA_WPEB_W@Z
_TEXT	SEGMENT
_Count$ = 8
_Ptrdest$ = 40
_Ptr$ = 288
?_Maklocwcs@std@@YAPEA_WPEB_W@Z PROC			; std::_Maklocwcs, COMDAT

; 73   : inline wchar_t* _Maklocwcs(const wchar_t* _Ptr) { // copy NTWCS to allocated storage

$LN4:
  00000	48 89 4c 24 08	 mov	 QWORD PTR [rsp+8], rcx
  00005	55		 push	 rbp
  00006	57		 push	 rdi
  00007	48 81 ec 38 01
	00 00		 sub	 rsp, 312		; 00000138H
  0000e	48 8d 6c 24 30	 lea	 rbp, QWORD PTR [rsp+48]
  00013	48 8d 0d 00 00
	00 00		 lea	 rcx, OFFSET FLAT:__36D7A7EF_xlocnum
  0001a	e8 00 00 00 00	 call	 __CheckForDebuggerJustMyCode
  0001f	90		 npad	 1

; 74   :     const size_t _Count = _CSTD wcslen(_Ptr) + 1;

  00020	48 8b 8d 20 01
	00 00		 mov	 rcx, QWORD PTR _Ptr$[rbp]
  00027	ff 15 00 00 00
	00		 call	 QWORD PTR __imp_wcslen
  0002d	48 ff c0	 inc	 rax
  00030	48 89 45 08	 mov	 QWORD PTR _Count$[rbp], rax

; 75   : 
; 76   :     wchar_t* _Ptrdest = static_cast<wchar_t*>(_calloc_dbg(_Count, sizeof(wchar_t), _CRT_BLOCK, __FILE__, __LINE__));

  00034	8b 05 00 00 00
	00		 mov	 eax, DWORD PTR ?__LINE__Var@?0??_Maklocwcs@std@@YAPEA_WPEB_W@Z@4JA
  0003a	83 c0 03	 add	 eax, 3
  0003d	89 44 24 20	 mov	 DWORD PTR [rsp+32], eax
  00041	4c 8d 0d 00 00
	00 00		 lea	 r9, OFFSET FLAT:??_C@_0GC@IDPJHLAK@C?3?2Program?5Files?2Microsoft?5Visu@
  00048	41 b8 02 00 00
	00		 mov	 r8d, 2
  0004e	ba 02 00 00 00	 mov	 edx, 2
  00053	48 8b 4d 08	 mov	 rcx, QWORD PTR _Count$[rbp]
  00057	ff 15 00 00 00
	00		 call	 QWORD PTR __imp__calloc_dbg
  0005d	48 89 45 28	 mov	 QWORD PTR _Ptrdest$[rbp], rax

; 77   : 
; 78   :     if (!_Ptrdest) {

  00061	48 83 7d 28 00	 cmp	 QWORD PTR _Ptrdest$[rbp], 0
  00066	75 06		 jne	 SHORT $LN2@Maklocwcs

; 79   :         _Xbad_alloc();

  00068	e8 00 00 00 00	 call	 ?_Xbad_alloc@std@@YAXXZ	; std::_Xbad_alloc
  0006d	90		 npad	 1
$LN2@Maklocwcs:

; 80   :     }
; 81   : 
; 82   :     _CSTD wmemcpy(_Ptrdest, _Ptr, _Count);

  0006e	4c 8b 45 08	 mov	 r8, QWORD PTR _Count$[rbp]
  00072	48 8b 95 20 01
	00 00		 mov	 rdx, QWORD PTR _Ptr$[rbp]
  00079	48 8b 4d 28	 mov	 rcx, QWORD PTR _Ptrdest$[rbp]
  0007d	e8 00 00 00 00	 call	 wmemcpy
  00082	90		 npad	 1

; 83   :     return _Ptrdest;

  00083	48 8b 45 28	 mov	 rax, QWORD PTR _Ptrdest$[rbp]
$LN3@Maklocwcs:

; 84   : }

  00087	48 8d a5 08 01
	00 00		 lea	 rsp, QWORD PTR [rbp+264]
  0008e	5f		 pop	 rdi
  0008f	5d		 pop	 rbp
  00090	c3		 ret	 0
?_Maklocwcs@std@@YAPEA_WPEB_W@Z ENDP			; std::_Maklocwcs
_TEXT	ENDS
; Function compile flags: /Odtp /RTCsu /ZI
; File C:\Program Files\Microsoft Visual Studio\2022\Community\VC\Tools\MSVC\14.42.34433\include\xlocale
;	COMDAT ??$_Maklocstr@_W@std@@YAPEA_WPEBDPEA_WAEBU_Cvtvec@@@Z
_TEXT	SEGMENT
_Count$ = 8
_Count1$ = 40
_Wchars$ = 72
_Ptr1$ = 104
_Bytes$ = 132
_Wc$ = 164
_Mbst1$ = 200
_Ptrdest$ = 232
_Ptrnext$ = 264
_Mbst2$ = 296
__$ArrayPad$ = 504
_Ptr$ = 544
__formal$ = 552
_Cvt$ = 560
??$_Maklocstr@_W@std@@YAPEA_WPEBDPEA_WAEBU_Cvtvec@@@Z PROC ; std::_Maklocstr<wchar_t>, COMDAT

; 529  : inline wchar_t* __CRTDECL _Maklocstr(const char* _Ptr, wchar_t*, const _Locinfo::_Cvtvec& _Cvt) {

$LN12:
  00000	4c 89 44 24 18	 mov	 QWORD PTR [rsp+24], r8
  00005	48 89 54 24 10	 mov	 QWORD PTR [rsp+16], rdx
  0000a	48 89 4c 24 08	 mov	 QWORD PTR [rsp+8], rcx
  0000f	55		 push	 rbp
  00010	57		 push	 rdi
  00011	48 81 ec 38 02
	00 00		 sub	 rsp, 568		; 00000238H
  00018	48 8d 6c 24 30	 lea	 rbp, QWORD PTR [rsp+48]
  0001d	48 8d 7c 24 30	 lea	 rdi, QWORD PTR [rsp+48]
  00022	b9 52 00 00 00	 mov	 ecx, 82			; 00000052H
  00027	b8 cc cc cc cc	 mov	 eax, -858993460		; ccccccccH
  0002c	f3 ab		 rep stosd
  0002e	48 8b 8c 24 58
	02 00 00	 mov	 rcx, QWORD PTR [rsp+600]
  00036	48 8b 05 00 00
	00 00		 mov	 rax, QWORD PTR __security_cookie
  0003d	48 33 c5	 xor	 rax, rbp
  00040	48 89 85 f8 01
	00 00		 mov	 QWORD PTR __$ArrayPad$[rbp], rax
  00047	48 8d 0d 00 00
	00 00		 lea	 rcx, OFFSET FLAT:__A850C1F8_xlocale
  0004e	e8 00 00 00 00	 call	 __CheckForDebuggerJustMyCode
  00053	90		 npad	 1

; 530  :     // convert C string to wchar_t sequence using _Cvtvec
; 531  :     size_t _Count;
; 532  :     size_t _Count1;
; 533  :     size_t _Wchars;
; 534  :     const char* _Ptr1;
; 535  :     int _Bytes;
; 536  :     wchar_t _Wc;
; 537  :     mbstate_t _Mbst1 = {};

  00054	48 8d 85 c8 00
	00 00		 lea	 rax, QWORD PTR _Mbst1$[rbp]
  0005b	48 8b f8	 mov	 rdi, rax
  0005e	33 c0		 xor	 eax, eax
  00060	b9 08 00 00 00	 mov	 ecx, 8
  00065	f3 aa		 rep stosb

; 538  : 
; 539  :     _Count1 = _CSTD strlen(_Ptr) + 1;

  00067	48 8b 8d 20 02
	00 00		 mov	 rcx, QWORD PTR _Ptr$[rbp]
  0006e	e8 00 00 00 00	 call	 strlen
  00073	48 ff c0	 inc	 rax
  00076	48 89 45 28	 mov	 QWORD PTR _Count1$[rbp], rax

; 540  :     for (_Count = _Count1, _Wchars = 0, _Ptr1 = _Ptr; 0 < _Count; _Count -= _Bytes, _Ptr1 += _Bytes, ++_Wchars) {

  0007a	48 8b 45 28	 mov	 rax, QWORD PTR _Count1$[rbp]
  0007e	48 89 45 08	 mov	 QWORD PTR _Count$[rbp], rax
  00082	48 c7 45 48 00
	00 00 00	 mov	 QWORD PTR _Wchars$[rbp], 0
  0008a	48 8b 85 20 02
	00 00		 mov	 rax, QWORD PTR _Ptr$[rbp]
  00091	48 89 45 68	 mov	 QWORD PTR _Ptr1$[rbp], rax
  00095	eb 35		 jmp	 SHORT $LN4@Maklocstr
$LN2@Maklocstr:
  00097	48 63 85 84 00
	00 00		 movsxd	 rax, DWORD PTR _Bytes$[rbp]
  0009e	48 8b 4d 08	 mov	 rcx, QWORD PTR _Count$[rbp]
  000a2	48 2b c8	 sub	 rcx, rax
  000a5	48 8b c1	 mov	 rax, rcx
  000a8	48 89 45 08	 mov	 QWORD PTR _Count$[rbp], rax
  000ac	48 63 85 84 00
	00 00		 movsxd	 rax, DWORD PTR _Bytes$[rbp]
  000b3	48 8b 4d 68	 mov	 rcx, QWORD PTR _Ptr1$[rbp]
  000b7	48 03 c8	 add	 rcx, rax
  000ba	48 8b c1	 mov	 rax, rcx
  000bd	48 89 45 68	 mov	 QWORD PTR _Ptr1$[rbp], rax
  000c1	48 8b 45 48	 mov	 rax, QWORD PTR _Wchars$[rbp]
  000c5	48 ff c0	 inc	 rax
  000c8	48 89 45 48	 mov	 QWORD PTR _Wchars$[rbp], rax
$LN4@Maklocstr:
  000cc	48 83 7d 08 00	 cmp	 QWORD PTR _Count$[rbp], 0
  000d1	76 3a		 jbe	 SHORT $LN3@Maklocstr

; 541  :         if ((_Bytes = _Mbrtowc(&_Wc, _Ptr1, _Count, &_Mbst1, &_Cvt)) <= 0) {

  000d3	48 8b 85 30 02
	00 00		 mov	 rax, QWORD PTR _Cvt$[rbp]
  000da	48 89 44 24 20	 mov	 QWORD PTR [rsp+32], rax
  000df	4c 8d 8d c8 00
	00 00		 lea	 r9, QWORD PTR _Mbst1$[rbp]
  000e6	4c 8b 45 08	 mov	 r8, QWORD PTR _Count$[rbp]
  000ea	48 8b 55 68	 mov	 rdx, QWORD PTR _Ptr1$[rbp]
  000ee	48 8d 8d a4 00
	00 00		 lea	 rcx, QWORD PTR _Wc$[rbp]
  000f5	e8 00 00 00 00	 call	 _Mbrtowc
  000fa	89 85 84 00 00
	00		 mov	 DWORD PTR _Bytes$[rbp], eax
  00100	83 bd 84 00 00
	00 00		 cmp	 DWORD PTR _Bytes$[rbp], 0
  00107	7f 02		 jg	 SHORT $LN8@Maklocstr

; 542  :             break;

  00109	eb 02		 jmp	 SHORT $LN3@Maklocstr
$LN8@Maklocstr:

; 543  :         }
; 544  :     }

  0010b	eb 8a		 jmp	 SHORT $LN2@Maklocstr
$LN3@Maklocstr:

; 545  : 
; 546  :     ++_Wchars; // count terminating nul

  0010d	48 8b 45 48	 mov	 rax, QWORD PTR _Wchars$[rbp]
  00111	48 ff c0	 inc	 rax
  00114	48 89 45 48	 mov	 QWORD PTR _Wchars$[rbp], rax

; 547  : 
; 548  :     wchar_t* _Ptrdest = static_cast<wchar_t*>(_calloc_dbg(_Wchars, sizeof(wchar_t), _CRT_BLOCK, __FILE__, __LINE__));

  00118	c7 44 24 20 24
	02 00 00	 mov	 DWORD PTR [rsp+32], 548	; 00000224H
  00120	4c 8d 0d 00 00
	00 00		 lea	 r9, OFFSET FLAT:??_C@_0GC@LEHJKL@C?3?2Program?5Files?2Microsoft?5Visu@
  00127	41 b8 02 00 00
	00		 mov	 r8d, 2
  0012d	ba 02 00 00 00	 mov	 edx, 2
  00132	48 8b 4d 48	 mov	 rcx, QWORD PTR _Wchars$[rbp]
  00136	ff 15 00 00 00
	00		 call	 QWORD PTR __imp__calloc_dbg
  0013c	48 89 85 e8 00
	00 00		 mov	 QWORD PTR _Ptrdest$[rbp], rax

; 549  : 
; 550  :     if (!_Ptrdest) {

  00143	48 83 bd e8 00
	00 00 00	 cmp	 QWORD PTR _Ptrdest$[rbp], 0
  0014b	75 06		 jne	 SHORT $LN9@Maklocstr

; 551  :         _Xbad_alloc();

  0014d	e8 00 00 00 00	 call	 ?_Xbad_alloc@std@@YAXXZ	; std::_Xbad_alloc
  00152	90		 npad	 1
$LN9@Maklocstr:

; 552  :     }
; 553  : 
; 554  :     wchar_t* _Ptrnext = _Ptrdest;

  00153	48 8b 85 e8 00
	00 00		 mov	 rax, QWORD PTR _Ptrdest$[rbp]
  0015a	48 89 85 08 01
	00 00		 mov	 QWORD PTR _Ptrnext$[rbp], rax

; 555  :     mbstate_t _Mbst2  = {};

  00161	48 8d 85 28 01
	00 00		 lea	 rax, QWORD PTR _Mbst2$[rbp]
  00168	48 8b f8	 mov	 rdi, rax
  0016b	33 c0		 xor	 eax, eax
  0016d	b9 08 00 00 00	 mov	 ecx, 8
  00172	f3 aa		 rep stosb

; 556  : 
; 557  :     for (; 0 < _Wchars; _Count -= _Bytes, _Ptr += _Bytes, --_Wchars, ++_Ptrnext) {

  00174	eb 4d		 jmp	 SHORT $LN7@Maklocstr
$LN5@Maklocstr:
  00176	48 63 85 84 00
	00 00		 movsxd	 rax, DWORD PTR _Bytes$[rbp]
  0017d	48 8b 4d 08	 mov	 rcx, QWORD PTR _Count$[rbp]
  00181	48 2b c8	 sub	 rcx, rax
  00184	48 8b c1	 mov	 rax, rcx
  00187	48 89 45 08	 mov	 QWORD PTR _Count$[rbp], rax
  0018b	48 63 85 84 00
	00 00		 movsxd	 rax, DWORD PTR _Bytes$[rbp]
  00192	48 8b 8d 20 02
	00 00		 mov	 rcx, QWORD PTR _Ptr$[rbp]
  00199	48 03 c8	 add	 rcx, rax
  0019c	48 8b c1	 mov	 rax, rcx
  0019f	48 89 85 20 02
	00 00		 mov	 QWORD PTR _Ptr$[rbp], rax
  001a6	48 8b 45 48	 mov	 rax, QWORD PTR _Wchars$[rbp]
  001aa	48 ff c8	 dec	 rax
  001ad	48 89 45 48	 mov	 QWORD PTR _Wchars$[rbp], rax
  001b1	48 8b 85 08 01
	00 00		 mov	 rax, QWORD PTR _Ptrnext$[rbp]
  001b8	48 83 c0 02	 add	 rax, 2
  001bc	48 89 85 08 01
	00 00		 mov	 QWORD PTR _Ptrnext$[rbp], rax
$LN7@Maklocstr:
  001c3	48 83 7d 48 00	 cmp	 QWORD PTR _Wchars$[rbp], 0
  001c8	76 40		 jbe	 SHORT $LN6@Maklocstr

; 558  :         if ((_Bytes = _Mbrtowc(_Ptrnext, _Ptr, _Count1, &_Mbst2, &_Cvt)) <= 0) {

  001ca	48 8b 85 30 02
	00 00		 mov	 rax, QWORD PTR _Cvt$[rbp]
  001d1	48 89 44 24 20	 mov	 QWORD PTR [rsp+32], rax
  001d6	4c 8d 8d 28 01
	00 00		 lea	 r9, QWORD PTR _Mbst2$[rbp]
  001dd	4c 8b 45 28	 mov	 r8, QWORD PTR _Count1$[rbp]
  001e1	48 8b 95 20 02
	00 00		 mov	 rdx, QWORD PTR _Ptr$[rbp]
  001e8	48 8b 8d 08 01
	00 00		 mov	 rcx, QWORD PTR _Ptrnext$[rbp]
  001ef	e8 00 00 00 00	 call	 _Mbrtowc
  001f4	89 85 84 00 00
	00		 mov	 DWORD PTR _Bytes$[rbp], eax
  001fa	83 bd 84 00 00
	00 00		 cmp	 DWORD PTR _Bytes$[rbp], 0
  00201	7f 02		 jg	 SHORT $LN10@Maklocstr

; 559  :             break;

  00203	eb 05		 jmp	 SHORT $LN6@Maklocstr
$LN10@Maklocstr:

; 560  :         }
; 561  :     }

  00205	e9 6c ff ff ff	 jmp	 $LN5@Maklocstr
$LN6@Maklocstr:

; 562  : 
; 563  :     *_Ptrnext = L'\0';

  0020a	33 c0		 xor	 eax, eax
  0020c	48 8b 8d 08 01
	00 00		 mov	 rcx, QWORD PTR _Ptrnext$[rbp]
  00213	66 89 01	 mov	 WORD PTR [rcx], ax

; 564  : 
; 565  :     return _Ptrdest;

  00216	48 8b 85 e8 00
	00 00		 mov	 rax, QWORD PTR _Ptrdest$[rbp]
$LN11@Maklocstr:

; 566  : }

  0021d	48 8b f8	 mov	 rdi, rax
  00220	48 8d 4d d0	 lea	 rcx, QWORD PTR [rbp-48]
  00224	48 8d 15 00 00
	00 00		 lea	 rdx, OFFSET FLAT:??$_Maklocstr@_W@std@@YAPEA_WPEBDPEA_WAEBU_Cvtvec@@@Z$rtcFrameData
  0022b	e8 00 00 00 00	 call	 _RTC_CheckStackVars
  00230	48 8b c7	 mov	 rax, rdi
  00233	48 8b 8d f8 01
	00 00		 mov	 rcx, QWORD PTR __$ArrayPad$[rbp]
  0023a	48 33 cd	 xor	 rcx, rbp
  0023d	e8 00 00 00 00	 call	 __security_check_cookie
  00242	48 8d a5 08 02
	00 00		 lea	 rsp, QWORD PTR [rbp+520]
  00249	5f		 pop	 rdi
  0024a	5d		 pop	 rbp
  0024b	c3		 ret	 0
??$_Maklocstr@_W@std@@YAPEA_WPEBDPEA_WAEBU_Cvtvec@@@Z ENDP ; std::_Maklocstr<wchar_t>
_TEXT	ENDS
; Function compile flags: /Odtp /RTCsu /ZI
; File C:\Program Files (x86)\Windows Kits\10\Include\10.0.22621.0\ucrt\wchar.h
;	COMDAT wmemcpy
_TEXT	SEGMENT
_S1$ = 224
_S2$ = 232
_N$ = 240
wmemcpy	PROC						; COMDAT

; 234  :     {

$LN3:
  00000	4c 89 44 24 18	 mov	 QWORD PTR [rsp+24], r8
  00005	48 89 54 24 10	 mov	 QWORD PTR [rsp+16], rdx
  0000a	48 89 4c 24 08	 mov	 QWORD PTR [rsp+8], rcx
  0000f	55		 push	 rbp
  00010	57		 push	 rdi
  00011	48 81 ec e8 00
	00 00		 sub	 rsp, 232		; 000000e8H
  00018	48 8d 6c 24 20	 lea	 rbp, QWORD PTR [rsp+32]
  0001d	48 8d 0d 00 00
	00 00		 lea	 rcx, OFFSET FLAT:__3FCAD62E_wchar@h
  00024	e8 00 00 00 00	 call	 __CheckForDebuggerJustMyCode
  00029	90		 npad	 1

; 235  :         #pragma warning(suppress: 6386) // Buffer overrun
; 236  :         return (wchar_t*)memcpy(_S1, _S2, _N*sizeof(wchar_t));

  0002a	48 8b 85 f0 00
	00 00		 mov	 rax, QWORD PTR _N$[rbp]
  00031	48 d1 e0	 shl	 rax, 1
  00034	4c 8b c0	 mov	 r8, rax
  00037	48 8b 95 e8 00
	00 00		 mov	 rdx, QWORD PTR _S2$[rbp]
  0003e	48 8b 8d e0 00
	00 00		 mov	 rcx, QWORD PTR _S1$[rbp]
  00045	e8 00 00 00 00	 call	 memcpy

; 237  :     }

  0004a	48 8d a5 c8 00
	00 00		 lea	 rsp, QWORD PTR [rbp+200]
  00051	5f		 pop	 rdi
  00052	5d		 pop	 rbp
  00053	c3		 ret	 0
wmemcpy	ENDP
_TEXT	ENDS
; Function compile flags: /Odtp /RTCsu /ZI
; File C:\Уник\KPO\Calendar\laba01\isLeapYear.cpp
;	COMDAT ?__empty_global_delete@@YAXPEAX_K@Z
_TEXT	SEGMENT
__formal$ = 224
__formal$ = 232
?__empty_global_delete@@YAXPEAX_K@Z PROC		; __empty_global_delete, COMDAT

$LN3:
  00000	48 89 54 24 10	 mov	 QWORD PTR [rsp+16], rdx
  00005	48 89 4c 24 08	 mov	 QWORD PTR [rsp+8], rcx
  0000a	55		 push	 rbp
  0000b	57		 push	 rdi
  0000c	48 81 ec e8 00
	00 00		 sub	 rsp, 232		; 000000e8H
  00013	48 8d 6c 24 20	 lea	 rbp, QWORD PTR [rsp+32]
  00018	48 8d 0d 00 00
	00 00		 lea	 rcx, OFFSET FLAT:__686F7F7C_isLeapYear@cpp
  0001f	e8 00 00 00 00	 call	 __CheckForDebuggerJustMyCode
  00024	90		 npad	 1
  00025	48 8d a5 c8 00
	00 00		 lea	 rsp, QWORD PTR [rbp+200]
  0002c	5f		 pop	 rdi
  0002d	5d		 pop	 rbp
  0002e	c3		 ret	 0
?__empty_global_delete@@YAXPEAX_K@Z ENDP		; __empty_global_delete
_TEXT	ENDS
; Function compile flags: /Odtp /RTCsu /ZI
; File C:\Уник\KPO\Calendar\laba01\isLeapYear.cpp
;	COMDAT ?__empty_global_delete@@YAXPEAX@Z
_TEXT	SEGMENT
__formal$ = 224
?__empty_global_delete@@YAXPEAX@Z PROC			; __empty_global_delete, COMDAT

$LN3:
  00000	48 89 4c 24 08	 mov	 QWORD PTR [rsp+8], rcx
  00005	55		 push	 rbp
  00006	57		 push	 rdi
  00007	48 81 ec e8 00
	00 00		 sub	 rsp, 232		; 000000e8H
  0000e	48 8d 6c 24 20	 lea	 rbp, QWORD PTR [rsp+32]
  00013	48 8d 0d 00 00
	00 00		 lea	 rcx, OFFSET FLAT:__686F7F7C_isLeapYear@cpp
  0001a	e8 00 00 00 00	 call	 __CheckForDebuggerJustMyCode
  0001f	90		 npad	 1
  00020	48 8d a5 c8 00
	00 00		 lea	 rsp, QWORD PTR [rbp+200]
  00027	5f		 pop	 rdi
  00028	5d		 pop	 rbp
  00029	c3		 ret	 0
?__empty_global_delete@@YAXPEAX@Z ENDP			; __empty_global_delete
_TEXT	ENDS
END
