; Listing generated by Microsoft (R) Optimizing Compiler Version 19.42.34436.0 

include listing.inc

INCLUDELIB MSVCRTD
INCLUDELIB OLDNAMES

msvcjmc	SEGMENT
__3A77C584_concurrencysal@h DB 01H
__7D61E6FE_sal@h DB 01H
__F85DFF2E_vadefs@h DB 01H
__E62C82FD_vcruntime@h DB 01H
__02F1C7E0_xkeycheck@h DB 01H
__0731AE6E_yvals_core@h DB 01H
__1B0272D9_corecrt@h DB 01H
__B9985323_float@h DB 01H
__1C7C89ED_cfloat DB 01H
__3E26BF77_limits@h DB 01H
__DACAF7EF_climits DB 01H
__BCF39F11_vcruntime_new@h DB 01H
__86CDF331_vcruntime_new_debug@h DB 01H
__935DC21B_crtdbg@h DB 01H
__C5864FDA_crtdefs@h DB 01H
__7A030B0F_use_ansi@h DB 01H
__E86563A2_yvals@h DB 01H
__BB16330F_corecrt_math@h DB 01H
__3BF2A406_math@h DB 01H
__45DED006_corecrt_malloc@h DB 01H
__13F5961F_stddef@h DB 01H
__FD6DBD68_corecrt_search@h DB 01H
__E2E33A61_corecrt_wstdlib@h DB 01H
__6E5ACABA_stdlib@h DB 01H
__5E25D51D_cstdlib DB 01H
__810D3946_xtr1common DB 01H
__020D51C1_intrin0@inl@h DB 01H
__DCABF6D1_intrin0@h DB 01H
__1FDBE849_cmath DB 01H
__44420885_corecrt_stdio_config@h DB 01H
__AB601D8D_corecrt_wstdio@h DB 01H
__C1EC35D3_stdio@h DB 01H
__6F38426A_cstdio DB 01H
__61CC25A1_errno@h DB 01H
__731D38DD_vcruntime_string@h DB 01H
__E4C945B4_corecrt_memcpy_s@h DB 01H
__8EAFF484_corecrt_memory@h DB 01H
__6490AEC5_corecrt_wstring@h DB 01H
__E8295E1E_string@h DB 01H
__12B77DFD_cstring DB 01H
__EF1F6BBA_corecrt_wconio@h DB 01H
__74484FB3_corecrt_wctype@h DB 01H
__3D1D430C_corecrt_wdirect@h DB 01H
__8ECB7138_corecrt_share@h DB 01H
__DB7FEBA6_corecrt_wio@h DB 01H
__9A9F0068_corecrt_wprocess@h DB 01H
__369A9BC3_corecrt_wtime@h DB 01H
__CE789B9D_types@h DB 01H
__9901C817_stat@h DB 01H
__3FCAD62E_wchar@h DB 01H
__F5B39439_cwchar DB 01H
__B673110F_iosfwd DB 01H
__FBEE0FB0_cstddef DB 01H
__20B1B3B7_initializer_list DB 01H
__80509148_stdint@h DB 01H
__E37B3460_cstdint DB 01H
__4C58012B_type_traits DB 01H
__69285096_utility DB 01H
__9DF8D3B1___msvc_iter_core@hpp DB 01H
__EC88E9B5_xutility DB 01H
__FD245EF5_iterator DB 01H
__F7972D0B_share@h DB 01H
__CB3B79BB___msvc_system_error_abi@hpp DB 01H
__F2193691_cerrno DB 01H
__FA77ED4C_malloc@h DB 01H
__89766DA4_corecrt_terminate@h DB 01H
__412BB509_eh@h DB 01H
__8E23F663_vcruntime_exception@h DB 01H
__0DD9214C_exception DB 01H
__F8F3CAFF___msvc_sanitizer_annotate_container@hpp DB 01H
__39B162D3___msvc_string_view@hpp DB 01H
__7A9AC489_limits DB 01H
__8483113F_new DB 01H
__07D5AD9A_xatomic@h DB 01H
__03BD3355_xmemory DB 01H
__776EB5C9_xstring DB 01H
__84971B11_stdexcept DB 01H
__44A9703E_xcall_once@h DB 01H
__40F076AD_xerrc@h DB 01H
__5F635487___msvc_threads_core@hpp DB 01H
__0A9237D2_time@h DB 01H
__D9687441_ctime DB 01H
__5A4C0AF4_xtimec@h DB 01H
__1B4D3CBC_xthreads@h DB 01H
__11AF984B_atomic DB 01H
__FBF4621E_system_error DB 01H
__8916352E_vcruntime_typeinfo@h DB 01H
__9C571AAC_typeinfo DB 01H
__C634C807_memory DB 01H
__EA719F08_xfacet DB 01H
__0FD15498___msvc_xlocinfo_types@hpp DB 01H
__1EC467ED_ctype@h DB 01H
__60F3A5CD_cctype DB 01H
__791C33B7_locale@h DB 01H
__CD8909CC_clocale DB 01H
__83DEF964_xlocinfo DB 01H
__A850C1F8_xlocale DB 01H
__BA3B8E77_xiosbase DB 01H
__8637A3AD_streambuf DB 01H
__36D7A7EF_xlocnum DB 01H
__7C4E2B29_ios DB 01H
__BB401B3C_ostream DB 01H
__D8902E06_istream DB 01H
__8EF193AA_iostream DB 01H
__1DB5B2D7_xlocmon DB 01H
__27C35076_xloctime DB 01H
__2452E854_iomanip DB 01H
__B2E74E9B_string DB 01H
__0BD860A1_stdafx@h DB 01H
__B4CDCCFA_functions@h DB 01H
__F068050D_laba01@cpp DB 01H
msvcjmc	ENDS
CONST	SEGMENT
?_Valid_strftime_specifiers@std@@3QBDB DB 061H		; std::_Valid_strftime_specifiers
	DB	041H
	DB	062H
	DB	042H
	DB	063H
	DB	043H
	DB	064H
	DB	044H
	DB	065H
	DB	046H
	DB	067H
	DB	047H
	DB	068H
	DB	048H
	DB	049H
	DB	06aH
	DB	06dH
	DB	04dH
	DB	06eH
	DB	070H
	DB	072H
	DB	052H
	DB	053H
	DB	074H
	DB	054H
	DB	075H
	DB	055H
	DB	056H
	DB	077H
	DB	057H
	DB	078H
	DB	058H
	DB	079H
	DB	059H
	DB	07aH
	DB	05aH
CONST	ENDS
PUBLIC	?__empty_global_delete@@YAXPEAX@Z		; __empty_global_delete
PUBLIC	?__empty_global_delete@@YAXPEAX_K@Z		; __empty_global_delete
PUBLIC	??2@YAPEAX_KPEAX@Z				; operator new
PUBLIC	wmemcpy
PUBLIC	??0exception@std@@QEAA@QEBDH@Z			; std::exception::exception
PUBLIC	??0exception@std@@QEAA@AEBV01@@Z		; std::exception::exception
PUBLIC	??1exception@std@@UEAA@XZ			; std::exception::~exception
PUBLIC	?what@exception@std@@UEBAPEBDXZ			; std::exception::what
PUBLIC	??_Gexception@std@@UEAAPEAXI@Z			; std::exception::`scalar deleting destructor'
PUBLIC	??0bad_alloc@std@@AEAA@QEBD@Z			; std::bad_alloc::bad_alloc
PUBLIC	??1bad_alloc@std@@UEAA@XZ			; std::bad_alloc::~bad_alloc
PUBLIC	??0bad_alloc@std@@QEAA@AEBV01@@Z		; std::bad_alloc::bad_alloc
PUBLIC	??_Gbad_alloc@std@@UEAAPEAXI@Z			; std::bad_alloc::`scalar deleting destructor'
PUBLIC	??0bad_array_new_length@std@@QEAA@XZ		; std::bad_array_new_length::bad_array_new_length
PUBLIC	??1bad_array_new_length@std@@UEAA@XZ		; std::bad_array_new_length::~bad_array_new_length
PUBLIC	??0bad_array_new_length@std@@QEAA@AEBV01@@Z	; std::bad_array_new_length::bad_array_new_length
PUBLIC	??_Gbad_array_new_length@std@@UEAAPEAXI@Z	; std::bad_array_new_length::`scalar deleting destructor'
PUBLIC	?copy@?$_Char_traits@DH@std@@SAPEADQEADQEBD_K@Z	; std::_Char_traits<char,int>::copy
PUBLIC	?length@?$_Narrow_char_traits@DH@std@@SA_KQEBD@Z ; std::_Narrow_char_traits<char,int>::length
PUBLIC	?assign@?$_Narrow_char_traits@DH@std@@SAXAEADAEBD@Z ; std::_Narrow_char_traits<char,int>::assign
PUBLIC	?eq_int_type@?$_Narrow_char_traits@DH@std@@SA_NHH@Z ; std::_Narrow_char_traits<char,int>::eq_int_type
PUBLIC	?eof@?$_Narrow_char_traits@DH@std@@SAHXZ	; std::_Narrow_char_traits<char,int>::eof
PUBLIC	?_Throw_bad_array_new_length@std@@YAXXZ		; std::_Throw_bad_array_new_length
PUBLIC	?_Allocate@_Default_allocate_traits@std@@SAPEAX_K@Z ; std::_Default_allocate_traits::_Allocate
PUBLIC	?_Adjust_manually_vector_aligned@std@@YAXAEAPEAXAEA_K@Z ; std::_Adjust_manually_vector_aligned
PUBLIC	??0_Container_proxy@std@@QEAA@PEAU_Container_base12@1@@Z ; std::_Container_proxy::_Container_proxy
PUBLIC	??0_Container_base12@std@@QEAA@XZ		; std::_Container_base12::_Container_base12
PUBLIC	?_Orphan_all@_Container_base12@std@@QEAAXXZ	; std::_Container_base12::_Orphan_all
PUBLIC	?_Orphan_all_unlocked_v3@_Container_base12@std@@AEAAXXZ ; std::_Container_base12::_Orphan_all_unlocked_v3
PUBLIC	?_Orphan_all_locked_v3@_Container_base12@std@@AEAAXXZ ; std::_Container_base12::_Orphan_all_locked_v3
PUBLIC	??$exchange@PEAU_Iterator_base12@std@@$$T@std@@YAPEAU_Iterator_base12@0@AEAPEAU10@$$QEA$$T@Z ; std::exchange<std::_Iterator_base12 *,std::nullptr_t>
PUBLIC	?_Release@_Basic_container_proxy_ptr12@std@@QEAAXXZ ; std::_Basic_container_proxy_ptr12::_Release
PUBLIC	??0_Basic_container_proxy_ptr12@std@@IEAA@XZ	; std::_Basic_container_proxy_ptr12::_Basic_container_proxy_ptr12
PUBLIC	??$addressof@U_Container_base12@std@@@std@@YAPEAU_Container_base12@0@AEAU10@@Z ; std::addressof<std::_Container_base12>
PUBLIC	??$_Construct_in_place@U_Container_proxy@std@@PEAU_Container_base12@2@@std@@YAXAEAU_Container_proxy@0@$$QEAPEAU_Container_base12@0@@Z ; std::_Construct_in_place<std::_Container_proxy,std::_Container_base12 *>
PUBLIC	?_Xlen_string@std@@YAXXZ			; std::_Xlen_string
PUBLIC	??0?$allocator@D@std@@QEAA@XZ			; std::allocator<char>::allocator<char>
PUBLIC	?deallocate@?$allocator@D@std@@QEAAXQEAD_K@Z	; std::allocator<char>::deallocate
PUBLIC	?allocate@?$allocator@D@std@@QEAAPEAD_K@Z	; std::allocator<char>::allocate
PUBLIC	?max_size@?$_Default_allocator_traits@V?$allocator@D@std@@@std@@SA_KAEBV?$allocator@D@2@@Z ; std::_Default_allocator_traits<std::allocator<char> >::max_size
PUBLIC	?select_on_container_copy_construction@?$_Default_allocator_traits@V?$allocator@D@std@@@std@@SA?AV?$allocator@D@2@AEBV32@@Z ; std::_Default_allocator_traits<std::allocator<char> >::select_on_container_copy_construction
PUBLIC	??0?$_String_val@U?$_Simple_types@D@std@@@std@@QEAA@XZ ; std::_String_val<std::_Simple_types<char> >::_String_val<std::_Simple_types<char> >
PUBLIC	?_Myptr@?$_String_val@U?$_Simple_types@D@std@@@std@@QEBAPEBDXZ ; std::_String_val<std::_Simple_types<char> >::_Myptr
PUBLIC	?_Large_mode_engaged@?$_String_val@U?$_Simple_types@D@std@@@std@@QEBA_NXZ ; std::_String_val<std::_Simple_types<char> >::_Large_mode_engaged
PUBLIC	??0_Bxty@?$_String_val@U?$_Simple_types@D@std@@@std@@QEAA@XZ ; std::_String_val<std::_Simple_types<char> >::_Bxty::_Bxty
PUBLIC	??1_Bxty@?$_String_val@U?$_Simple_types@D@std@@@std@@QEAA@XZ ; std::_String_val<std::_Simple_types<char> >::_Bxty::~_Bxty
PUBLIC	?_Switch_to_buf@_Bxty@?$_String_val@U?$_Simple_types@D@std@@@std@@QEAAXXZ ; std::_String_val<std::_Simple_types<char> >::_Bxty::_Switch_to_buf
PUBLIC	??1?$_String_val@U?$_Simple_types@D@std@@@std@@QEAA@XZ ; std::_String_val<std::_Simple_types<char> >::~_String_val<std::_Simple_types<char> >
PUBLIC	??0?$basic_string@DU?$char_traits@D@std@@V?$allocator@D@2@@std@@QEAA@AEBV01@@Z ; std::basic_string<char,std::char_traits<char>,std::allocator<char> >::basic_string<char,std::char_traits<char>,std::allocator<char> >
PUBLIC	??0?$basic_string@DU?$char_traits@D@std@@V?$allocator@D@2@@std@@QEAA@QEBD@Z ; std::basic_string<char,std::char_traits<char>,std::allocator<char> >::basic_string<char,std::char_traits<char>,std::allocator<char> >
PUBLIC	?_Deallocate_for_capacity@?$basic_string@DU?$char_traits@D@std@@V?$allocator@D@2@@std@@CAXAEAV?$allocator@D@2@QEAD_K@Z ; std::basic_string<char,std::char_traits<char>,std::allocator<char> >::_Deallocate_for_capacity
PUBLIC	??1?$basic_string@DU?$char_traits@D@std@@V?$allocator@D@2@@std@@QEAA@XZ ; std::basic_string<char,std::char_traits<char>,std::allocator<char> >::~basic_string<char,std::char_traits<char>,std::allocator<char> >
PUBLIC	?data@?$basic_string@DU?$char_traits@D@std@@V?$allocator@D@2@@std@@QEBAPEBDXZ ; std::basic_string<char,std::char_traits<char>,std::allocator<char> >::data
PUBLIC	?size@?$basic_string@DU?$char_traits@D@std@@V?$allocator@D@2@@std@@QEBA_KXZ ; std::basic_string<char,std::char_traits<char>,std::allocator<char> >::size
PUBLIC	?max_size@?$basic_string@DU?$char_traits@D@std@@V?$allocator@D@2@@std@@QEBA_KXZ ; std::basic_string<char,std::char_traits<char>,std::allocator<char> >::max_size
PUBLIC	?_Calculate_growth@?$basic_string@DU?$char_traits@D@std@@V?$allocator@D@2@@std@@CA_K_K00@Z ; std::basic_string<char,std::char_traits<char>,std::allocator<char> >::_Calculate_growth
PUBLIC	?_Tidy_deallocate@?$basic_string@DU?$char_traits@D@std@@V?$allocator@D@2@@std@@AEAAXXZ ; std::basic_string<char,std::char_traits<char>,std::allocator<char> >::_Tidy_deallocate
PUBLIC	?_Getal@?$basic_string@DU?$char_traits@D@std@@V?$allocator@D@2@@std@@AEAAAEAV?$allocator@D@2@XZ ; std::basic_string<char,std::char_traits<char>,std::allocator<char> >::_Getal
PUBLIC	?_Getal@?$basic_string@DU?$char_traits@D@std@@V?$allocator@D@2@@std@@AEBAAEBV?$allocator@D@2@XZ ; std::basic_string<char,std::char_traits<char>,std::allocator<char> >::_Getal
PUBLIC	?_Get_first@?$_Compressed_pair@V?$allocator@D@std@@V?$_String_val@U?$_Simple_types@D@std@@@2@$00@std@@QEAAAEAV?$allocator@D@2@XZ ; std::_Compressed_pair<std::allocator<char>,std::_String_val<std::_Simple_types<char> >,1>::_Get_first
PUBLIC	?_Get_first@?$_Compressed_pair@V?$allocator@D@std@@V?$_String_val@U?$_Simple_types@D@std@@@2@$00@std@@QEBAAEBV?$allocator@D@2@XZ ; std::_Compressed_pair<std::allocator<char>,std::_String_val<std::_Simple_types<char> >,1>::_Get_first
PUBLIC	??1?$_Compressed_pair@V?$allocator@D@std@@V?$_String_val@U?$_Simple_types@D@std@@@2@$00@std@@QEAA@XZ ; std::_Compressed_pair<std::allocator<char>,std::_String_val<std::_Simple_types<char> >,1>::~_Compressed_pair<std::allocator<char>,std::_String_val<std::_Simple_types<char> >,1>
PUBLIC	??$_Maklocstr@_W@std@@YAPEA_WPEBDPEA_WAEBU_Cvtvec@@@Z ; std::_Maklocstr<wchar_t>
PUBLIC	?_Maklocwcs@std@@YAPEA_WPEB_W@Z			; std::_Maklocwcs
PUBLIC	??$_Maklocstr@D@std@@YAPEADPEBDPEADAEBU_Cvtvec@@@Z ; std::_Maklocstr<char>
PUBLIC	??$_Max_limit@_J@std@@YA_JXZ			; std::_Max_limit<__int64>
PUBLIC	??$_Getvals@_W@?$time_get@DV?$istreambuf_iterator@DU?$char_traits@D@std@@@std@@@std@@IEAAX_WAEBV_Locinfo@1@@Z ; std::time_get<char,std::istreambuf_iterator<char,std::char_traits<char> > >::_Getvals<wchar_t>
PUBLIC	??$_Getvals@_W@?$time_get@_WV?$istreambuf_iterator@_WU?$char_traits@_W@std@@@std@@@std@@IEAAX_WAEBV_Locinfo@1@@Z ; std::time_get<wchar_t,std::istreambuf_iterator<wchar_t,std::char_traits<wchar_t> > >::_Getvals<wchar_t>
PUBLIC	?getMonthName@@YA?AV?$basic_string@DU?$char_traits@D@std@@V?$allocator@D@2@@std@@H@Z ; getMonthName
PUBLIC	?getDateFromDayOfYear@@YAXHHAEAH0@Z		; getDateFromDayOfYear
PUBLIC	main
PUBLIC	??$?6U?$char_traits@D@std@@@std@@YAAEAV?$basic_ostream@DU?$char_traits@D@std@@@0@AEAV10@PEBD@Z ; std::operator<<<std::char_traits<char> >
PUBLIC	??$endl@DU?$char_traits@D@std@@@std@@YAAEAV?$basic_ostream@DU?$char_traits@D@std@@@0@AEAV10@@Z ; std::endl<char,std::char_traits<char> >
PUBLIC	??$?6DU?$char_traits@D@std@@V?$allocator@D@1@@std@@YAAEAV?$basic_ostream@DU?$char_traits@D@std@@@0@AEAV10@AEBV?$basic_string@DU?$char_traits@D@std@@V?$allocator@D@2@@0@@Z ; std::operator<<<char,std::char_traits<char>,std::allocator<char> >
PUBLIC	??0_Sentry_base@?$basic_ostream@DU?$char_traits@D@std@@@std@@QEAA@AEAV12@@Z ; std::basic_ostream<char,std::char_traits<char> >::_Sentry_base::_Sentry_base
PUBLIC	??1_Sentry_base@?$basic_ostream@DU?$char_traits@D@std@@@std@@QEAA@XZ ; std::basic_ostream<char,std::char_traits<char> >::_Sentry_base::~_Sentry_base
PUBLIC	??0sentry@?$basic_ostream@DU?$char_traits@D@std@@@std@@QEAA@AEAV12@@Z ; std::basic_ostream<char,std::char_traits<char> >::sentry::sentry
PUBLIC	??1sentry@?$basic_ostream@DU?$char_traits@D@std@@@std@@QEAA@XZ ; std::basic_ostream<char,std::char_traits<char> >::sentry::~sentry
PUBLIC	??Bsentry@?$basic_ostream@DU?$char_traits@D@std@@@std@@QEBA_NXZ ; std::basic_ostream<char,std::char_traits<char> >::sentry::operator bool
PUBLIC	??$min@_K@std@@YAAEB_KAEB_K0@Z			; std::min<unsigned __int64>
PUBLIC	?allocate@?$allocator@U_Container_proxy@std@@@std@@QEAAPEAU_Container_proxy@2@_K@Z ; std::allocator<std::_Container_proxy>::allocate
PUBLIC	??$_Delete_plain_internal@V?$allocator@U_Container_proxy@std@@@std@@@std@@YAXAEAV?$allocator@U_Container_proxy@std@@@0@QEAU_Container_proxy@0@@Z ; std::_Delete_plain_internal<std::allocator<std::_Container_proxy> >
PUBLIC	??$_Convert_size@_K_K@std@@YA_K_K@Z		; std::_Convert_size<unsigned __int64,unsigned __int64>
PUBLIC	??$?0D@?$allocator@U_Container_proxy@std@@@std@@QEAA@AEBV?$allocator@D@1@@Z ; std::allocator<std::_Container_proxy>::allocator<std::_Container_proxy><char>
PUBLIC	??$?0V?$allocator@D@std@@$$V@?$_Compressed_pair@V?$allocator@D@std@@V?$_String_val@U?$_Simple_types@D@std@@@2@$00@std@@QEAA@U_One_then_variadic_args_t@1@$$QEAV?$allocator@D@1@@Z ; std::_Compressed_pair<std::allocator<char>,std::_String_val<std::_Simple_types<char> >,1>::_Compressed_pair<std::allocator<char>,std::_String_val<std::_Simple_types<char> >,1><std::allocator<char> >
PUBLIC	??$?0$$V@?$_Compressed_pair@V?$allocator@D@std@@V?$_String_val@U?$_Simple_types@D@std@@@2@$00@std@@QEAA@U_Zero_then_variadic_args_t@1@@Z ; std::_Compressed_pair<std::allocator<char>,std::_String_val<std::_Simple_types<char> >,1>::_Compressed_pair<std::allocator<char>,std::_String_val<std::_Simple_types<char> >,1><>
PUBLIC	??$_Construct@$00PEBD@?$basic_string@DU?$char_traits@D@std@@V?$allocator@D@2@@std@@AEAAXQEBD_K@Z ; std::basic_string<char,std::char_traits<char>,std::allocator<char> >::_Construct<1,char const *>
PUBLIC	??$_Construct@$01PEBD@?$basic_string@DU?$char_traits@D@std@@V?$allocator@D@2@@std@@AEAAXQEBD_K@Z ; std::basic_string<char,std::char_traits<char>,std::allocator<char> >::_Construct<2,char const *>
PUBLIC	??$addressof@V?$basic_ostream@DU?$char_traits@D@std@@@std@@@std@@YAPEAV?$basic_ostream@DU?$char_traits@D@std@@@0@AEAV10@@Z ; std::addressof<std::basic_ostream<char,std::char_traits<char> > >
PUBLIC	??$_Unfancy@D@std@@YAPEADPEAD@Z			; std::_Unfancy<char>
PUBLIC	??$_Destroy_in_place@PEAD@std@@YAXAEAPEAD@Z	; std::_Destroy_in_place<char *>
PUBLIC	??$max@_K@std@@YAAEB_KAEB_K0@Z			; std::max<unsigned __int64>
PUBLIC	??$_Deallocate@$0BA@@std@@YAXPEAX_K@Z		; std::_Deallocate<16>
PUBLIC	??$_Insert_string@DU?$char_traits@D@std@@_K@std@@YAAEAV?$basic_ostream@DU?$char_traits@D@std@@@0@AEAV10@QEBD_K@Z ; std::_Insert_string<char,std::char_traits<char>,unsigned __int64>
PUBLIC	??$_Deallocate_plain@V?$allocator@U_Container_proxy@std@@@std@@@std@@YAXAEAV?$allocator@U_Container_proxy@std@@@0@QEAU_Container_proxy@0@@Z ; std::_Deallocate_plain<std::allocator<std::_Container_proxy> >
PUBLIC	??0?$_Container_proxy_ptr12@V?$allocator@U_Container_proxy@std@@@std@@@std@@QEAA@AEAV?$allocator@U_Container_proxy@std@@@1@AEAU_Container_base12@1@@Z ; std::_Container_proxy_ptr12<std::allocator<std::_Container_proxy> >::_Container_proxy_ptr12<std::allocator<std::_Container_proxy> >
PUBLIC	??1?$_Container_proxy_ptr12@V?$allocator@U_Container_proxy@std@@@std@@@std@@QEAA@XZ ; std::_Container_proxy_ptr12<std::allocator<std::_Container_proxy> >::~_Container_proxy_ptr12<std::allocator<std::_Container_proxy> >
PUBLIC	??$_Unfancy@U_Container_proxy@std@@@std@@YAPEAU_Container_proxy@0@PEAU10@@Z ; std::_Unfancy<std::_Container_proxy>
PUBLIC	??$_Allocate_for_capacity@$0A@@?$basic_string@DU?$char_traits@D@std@@V?$allocator@D@2@@std@@CAPEADAEAV?$allocator@D@1@AEA_K@Z ; std::basic_string<char,std::char_traits<char>,std::allocator<char> >::_Allocate_for_capacity<0>
PUBLIC	??$_Construct_in_place@PEADAEBQEAD@std@@YAXAEAPEADAEBQEAD@Z ; std::_Construct_in_place<char *,char * const &>
PUBLIC	??$addressof@PEAD@std@@YAPEAPEADAEAPEAD@Z	; std::addressof<char *>
PUBLIC	??$_Get_size_of_n@$0BA@@std@@YA_K_K@Z		; std::_Get_size_of_n<16>
PUBLIC	??$_Allocate@$0BA@U_Default_allocate_traits@std@@@std@@YAPEAX_K@Z ; std::_Allocate<16,std::_Default_allocate_traits>
PUBLIC	??$addressof@U_Container_proxy@std@@@std@@YAPEAU_Container_proxy@0@AEAU10@@Z ; std::addressof<std::_Container_proxy>
PUBLIC	?deallocate@?$_Default_allocator_traits@V?$allocator@U_Container_proxy@std@@@std@@@std@@SAXAEAV?$allocator@U_Container_proxy@std@@@2@QEAU_Container_proxy@2@_K@Z ; std::_Default_allocator_traits<std::allocator<std::_Container_proxy> >::deallocate
PUBLIC	??$_Allocate_at_least_helper@V?$allocator@D@std@@@std@@YAPEADAEAV?$allocator@D@0@AEA_K@Z ; std::_Allocate_at_least_helper<std::allocator<char> >
PUBLIC	??$_Allocate_manually_vector_aligned@U_Default_allocate_traits@std@@@std@@YAPEAX_K@Z ; std::_Allocate_manually_vector_aligned<std::_Default_allocate_traits>
PUBLIC	??$_Get_size_of_n@$00@std@@YA_K_K@Z		; std::_Get_size_of_n<1>
PUBLIC	__JustMyCode_Default
PUBLIC	??_7exception@std@@6B@				; std::exception::`vftable'
PUBLIC	??_C@_0BC@EOODALEL@Unknown?5exception@		; `string'
PUBLIC	??_7bad_alloc@std@@6B@				; std::bad_alloc::`vftable'
PUBLIC	??_7bad_array_new_length@std@@6B@		; std::bad_array_new_length::`vftable'
PUBLIC	??_C@_0BF@KINCDENJ@bad?5array?5new?5length@	; `string'
PUBLIC	??_R0?AVexception@std@@@8			; std::exception `RTTI Type Descriptor'
PUBLIC	_CT??_R0?AVexception@std@@@8??0exception@std@@QEAA@AEBV01@@Z24
PUBLIC	_TI3?AVbad_array_new_length@std@@
PUBLIC	_CTA3?AVbad_array_new_length@std@@
PUBLIC	??_R0?AVbad_array_new_length@std@@@8		; std::bad_array_new_length `RTTI Type Descriptor'
PUBLIC	_CT??_R0?AVbad_array_new_length@std@@@8??0bad_array_new_length@std@@QEAA@AEBV01@@Z24
PUBLIC	??_R0?AVbad_alloc@std@@@8			; std::bad_alloc `RTTI Type Descriptor'
PUBLIC	_CT??_R0?AVbad_alloc@std@@@8??0bad_alloc@std@@QEAA@AEBV01@@Z24
PUBLIC	?__LINE__Var@?0??_Adjust_manually_vector_aligned@std@@YAXAEAPEAXAEA_K@Z@4JA ; `std::_Adjust_manually_vector_aligned'::`1'::__LINE__Var
PUBLIC	??_C@_0BB@FCMFBGOM@invalid?5argument@		; `string'
PUBLIC	??_C@_02DKCKIIND@?$CFs@				; `string'
PUBLIC	??_C@_0GC@KIHIELAM@C?3?2Program?5Files?2Microsoft?5Visu@ ; `string'
PUBLIC	??_C@_1ME@NMPKGKJL@?$AAC?$AA?3?$AA?2?$AAP?$AAr?$AAo?$AAg?$AAr?$AAa?$AAm?$AA?5?$AAF?$AAi?$AAl?$AAe@ ; `string'
PUBLIC	??_C@_11LOCGONAA@@				; `string'
PUBLIC	??_C@_1CG@JNLFBNGN@?$AA?$CC?$AAi?$AAn?$AAv?$AAa?$AAl?$AAi?$AAd?$AA?5?$AAa?$AAr?$AAg?$AAu?$AAm?$AAe@ ; `string'
PUBLIC	??_C@_0BA@JFNIOLAK@string?5too?5long@		; `string'
PUBLIC	??_C@_02LMMGGCAJ@?3?5@				; `string'
PUBLIC	??_C@_0GC@LEHJKL@C?3?2Program?5Files?2Microsoft?5Visu@ ; `string'
PUBLIC	?__LINE__Var@?0??_Maklocwcs@std@@YAPEA_WPEB_W@Z@4JA ; `std::_Maklocwcs'::`1'::__LINE__Var
PUBLIC	??_C@_0GC@IDPJHLAK@C?3?2Program?5Files?2Microsoft?5Visu@ ; `string'
PUBLIC	??_C@_06BMGEFDJH@?$NP?m?b?$OA?p?$PM@		; `string'
PUBLIC	??_C@_07JBGLOLNM@?T?e?b?p?$OA?k?$PM@		; `string'
PUBLIC	??_C@_04FAAJLMOP@?L?$OA?p?r@			; `string'
PUBLIC	??_C@_06PNLHGGPK@?$MA?o?p?e?k?$PM@		; `string'
PUBLIC	??_C@_03MEHOOJFI@?L?$OA?i@			; `string'
PUBLIC	??_C@_04JPDCCHCO@?H?$PO?m?$PM@			; `string'
PUBLIC	??_C@_04JLLPFLJM@?H?$PO?k?$PM@			; `string'
PUBLIC	??_C@_06JMCJJLBN@?$MA?b?c?s?q?r@		; `string'
PUBLIC	??_C@_08ECPNNGFL@?Q?e?m?r?$PP?a?p?$PM@		; `string'
PUBLIC	??_C@_07KDBBAIGI@?N?j?r?$PP?a?p?$PM@		; `string'
PUBLIC	??_C@_06EKHNJIII@?M?n?$PP?a?p?$PM@		; `string'
PUBLIC	??_C@_07MJKMOEOM@?D?e?j?$OA?a?p?$PM@		; `string'
PUBLIC	??_C@_0P@IKOIBOPA@?M?e?b?e?p?m?$PL?i?5?l?e?q?$PP?v@ ; `string'
PUBLIC	??_C@_07PEAPJBGG@Russian@			; `string'
PUBLIC	??_C@_0BK@EKFAEONN@?B?b?e?d?h?r?e?5?d?$OA?r?s?5?$CI?D?D?L?L?C?C?C?C?$CJ?3?5@ ; `string'
PUBLIC	??_C@_0BL@DKDMJJAC@?N?x?h?a?j?$OA?3?5?m?e?j?n?p?p?e?j?r?m?$OA?$PP?5?d?$OA?r?$OA?4@ ; `string'
PUBLIC	??_C@_0BP@BGJIAHHA@?B?b?e?d?h?r?e?5?d?$OA?r?s?5?p?n?f?d?e?m?h?$PP?5?$CI?D?D?L?L?$CJ?3?5@ ; `string'
PUBLIC	??_C@_0BI@EKNKLPIB@?C?n?d?5?$PP?b?k?$PP?e?r?q?$PP?5?b?h?q?n?j?n?q?m?$PL?l@ ; `string'
PUBLIC	??_C@_0BL@POKJLFCK@?C?n?d?5?m?e?5?$PP?b?k?$PP?e?r?q?$PP?5?b?h?q?n?j?n?q?m?$PL?l@ ; `string'
PUBLIC	??_C@_0BD@LIFACDMA@?M?n?l?e?p?5?d?m?$PP?5?b?5?c?n?d?s?3?5@ ; `string'
PUBLIC	??_C@_0BH@JDCOJOJB@?D?m?e?i?5?d?n?5?d?m?$PP?5?p?n?f?d?e?m?h?$PP?3?5@ ; `string'
PUBLIC	??_C@_01PKGAHCOL@?$CJ@				; `string'
PUBLIC	??_C@_0BF@CHFNCBJJ@?5?$CI?o?n?p?$PP?d?j?n?b?$PL?i?5?m?n?l?e?p?3?5@ ; `string'
PUBLIC	??_C@_07ONJDPLPB@?L?e?q?$PP?v?3?5@		; `string'
PUBLIC	??_C@_0CE@KLJEFNFF@?B?b?e?d?h?r?e?5?o?n?p?$PP?d?j?n?b?$PL?i?5?m?n?l?e?p?5?d?m?$PP?5?c?n@ ; `string'
PUBLIC	??_C@_0BC@LNFPJGKC@?M?e?o?p?$OA?b?h?k?$PM?m?$PL?i?5?d?e?m?$PM@ ; `string'
PUBLIC	??_C@_01CLKCMJKC@?5@				; `string'
PUBLIC	??_C@_0CK@PGDIOOLL@?D?$OA?r?$OA?0?5?q?n?n?r?b?e?r?q?r?b?s?$PO?y?$OA?$PP?5?o?n?p?$PP?d?j?n?b?n@ ; `string'
PUBLIC	??_C@_0BE@NKIHDEP@?Q?e?c?n?d?m?$PP?5?D?e?m?$PM?5?f?e?m?y?h?m@ ; `string'
PUBLIC	??_C@_0BC@OHKPBILE@?Q?e?c?n?d?m?$PP?5?M?n?b?$PL?i?5?c?n?d@ ; `string'
PUBLIC	??_C@_0BH@NDKAFKKG@?Q?e?c?n?d?m?$PP?5?O?p?$OA?g?d?m?h?j?5?r?p?s?d?$OA@ ; `string'
PUBLIC	??_C@_0BE@DIEKIPMK@?Q?e?c?n?d?m?$PP?5?D?e?m?$PM?5?o?n?a?e?d?$PL@ ; `string'
PUBLIC	??_C@_0N@LPFKKEBD@?3AM?3am?3PM?3pm@		; `string'
PUBLIC	??_C@_0DG@KGHKKGBC@null?5pointer?5cannot?5point?5to?5a?5@ ; `string'
PUBLIC	??_C@_1HA@FACCKGGH@?$AA?$CC?$AAn?$AAu?$AAl?$AAl?$AA?5?$AAp?$AAo?$AAi?$AAn?$AAt?$AAe?$AAr?$AA?5?$AAc@ ; `string'
PUBLIC	??_C@_1BK@MHIKGOKE@?$AA?3?$AAA?$AAM?$AA?3?$AAa?$AAm?$AA?3?$AAP?$AAM?$AA?3?$AAp?$AAm@ ; `string'
PUBLIC	??_R4exception@std@@6B@				; std::exception::`RTTI Complete Object Locator'
PUBLIC	??_R3exception@std@@8				; std::exception::`RTTI Class Hierarchy Descriptor'
PUBLIC	??_R2exception@std@@8				; std::exception::`RTTI Base Class Array'
PUBLIC	??_R1A@?0A@EA@exception@std@@8			; std::exception::`RTTI Base Class Descriptor at (0,-1,0,64)'
PUBLIC	??_R4bad_array_new_length@std@@6B@		; std::bad_array_new_length::`RTTI Complete Object Locator'
PUBLIC	??_R3bad_array_new_length@std@@8		; std::bad_array_new_length::`RTTI Class Hierarchy Descriptor'
PUBLIC	??_R2bad_array_new_length@std@@8		; std::bad_array_new_length::`RTTI Base Class Array'
PUBLIC	??_R1A@?0A@EA@bad_array_new_length@std@@8	; std::bad_array_new_length::`RTTI Base Class Descriptor at (0,-1,0,64)'
PUBLIC	??_R1A@?0A@EA@bad_alloc@std@@8			; std::bad_alloc::`RTTI Base Class Descriptor at (0,-1,0,64)'
PUBLIC	??_R3bad_alloc@std@@8				; std::bad_alloc::`RTTI Class Hierarchy Descriptor'
PUBLIC	??_R2bad_alloc@std@@8				; std::bad_alloc::`RTTI Base Class Array'
PUBLIC	??_R4bad_alloc@std@@6B@				; std::bad_alloc::`RTTI Complete Object Locator'
EXTRN	??_M@YAXPEAX_K1P6AX0@Z@Z:PROC			; `eh vector destructor iterator'
EXTRN	??2@YAPEAX_K@Z:PROC				; operator new
EXTRN	??3@YAXPEAX_K@Z:PROC				; operator delete
EXTRN	__imp__invalid_parameter:PROC
EXTRN	__imp__calloc_dbg:PROC
EXTRN	__imp__CrtDbgReport:PROC
EXTRN	__imp_??0_Lockit@std@@QEAA@H@Z:PROC
EXTRN	__imp_??1_Lockit@std@@QEAA@XZ:PROC
EXTRN	memcpy:PROC
EXTRN	__imp_wcslen:PROC
EXTRN	strlen:PROC
EXTRN	?_Xbad_alloc@std@@YAXXZ:PROC			; std::_Xbad_alloc
EXTRN	?_Xlength_error@std@@YAXPEBD@Z:PROC		; std::_Xlength_error
EXTRN	?uncaught_exception@std@@YA_NXZ:PROC		; std::uncaught_exception
EXTRN	__std_exception_copy:PROC
EXTRN	__std_exception_destroy:PROC
EXTRN	??_Eexception@std@@UEAAPEAXI@Z:PROC		; std::exception::`vector deleting destructor'
EXTRN	??_Ebad_alloc@std@@UEAAPEAXI@Z:PROC		; std::bad_alloc::`vector deleting destructor'
EXTRN	??_Ebad_array_new_length@std@@UEAAPEAXI@Z:PROC	; std::bad_array_new_length::`vector deleting destructor'
EXTRN	__imp_setlocale:PROC
EXTRN	_Mbrtowc:PROC
EXTRN	__imp_?_Getcvt@_Locinfo@std@@QEBA?AU_Cvtvec@@XZ:PROC
EXTRN	__imp_?_Getdays@_Locinfo@std@@QEBAPEBDXZ:PROC
EXTRN	__imp_?_Getmonths@_Locinfo@std@@QEBAPEBDXZ:PROC
EXTRN	__imp_?_W_Getdays@_Locinfo@std@@QEBAPEBGXZ:PROC
EXTRN	__imp_?_W_Getmonths@_Locinfo@std@@QEBAPEBGXZ:PROC
EXTRN	__imp_?good@ios_base@std@@QEBA_NXZ:PROC
EXTRN	__imp_?flags@ios_base@std@@QEBAHXZ:PROC
EXTRN	__imp_?width@ios_base@std@@QEBA_JXZ:PROC
EXTRN	__imp_?width@ios_base@std@@QEAA_J_J@Z:PROC
EXTRN	__imp_?sputc@?$basic_streambuf@DU?$char_traits@D@std@@@std@@QEAAHD@Z:PROC
EXTRN	__imp_?sputn@?$basic_streambuf@DU?$char_traits@D@std@@@std@@QEAA_JPEBD_J@Z:PROC
EXTRN	__imp_?setstate@?$basic_ios@DU?$char_traits@D@std@@@std@@QEAAXH_N@Z:PROC
EXTRN	__imp_?tie@?$basic_ios@DU?$char_traits@D@std@@@std@@QEBAPEAV?$basic_ostream@DU?$char_traits@D@std@@@2@XZ:PROC
EXTRN	__imp_?rdbuf@?$basic_ios@DU?$char_traits@D@std@@@std@@QEBAPEAV?$basic_streambuf@DU?$char_traits@D@std@@@2@XZ:PROC
EXTRN	__imp_?fill@?$basic_ios@DU?$char_traits@D@std@@@std@@QEBADXZ:PROC
EXTRN	__imp_?widen@?$basic_ios@DU?$char_traits@D@std@@@std@@QEBADD@Z:PROC
EXTRN	__imp_?_Osfx@?$basic_ostream@DU?$char_traits@D@std@@@std@@QEAAXXZ:PROC
EXTRN	__imp_??6?$basic_ostream@DU?$char_traits@D@std@@@std@@QEAAAEAV01@P6AAEAV01@AEAV01@@Z@Z:PROC
EXTRN	__imp_??6?$basic_ostream@DU?$char_traits@D@std@@@std@@QEAAAEAV01@H@Z:PROC
EXTRN	__imp_?put@?$basic_ostream@DU?$char_traits@D@std@@@std@@QEAAAEAV12@D@Z:PROC
EXTRN	__imp_?flush@?$basic_ostream@DU?$char_traits@D@std@@@std@@QEAAAEAV12@XZ:PROC
EXTRN	__imp_??5?$basic_istream@DU?$char_traits@D@std@@@std@@QEAAAEAV01@AEAH@Z:PROC
EXTRN	?isLeapYear@@YA_NH@Z:PROC			; isLeapYear
EXTRN	?dayOfYear@@YAHHHH@Z:PROC			; dayOfYear
EXTRN	_CxxThrowException:PROC
EXTRN	_RTC_CheckStackVars:PROC
EXTRN	_RTC_InitBase:PROC
EXTRN	_RTC_Shutdown:PROC
EXTRN	__CheckForDebuggerJustMyCode:PROC
EXTRN	__CxxFrameHandler4:PROC
EXTRN	__GSHandlerCheck:PROC
EXTRN	__GSHandlerCheck_EH4:PROC
EXTRN	__security_check_cookie:PROC
EXTRN	??_7type_info@@6B@:BYTE				; type_info::`vftable'
EXTRN	__imp_?cin@std@@3V?$basic_istream@DU?$char_traits@D@std@@@1@A:BYTE
EXTRN	__imp_?cout@std@@3V?$basic_ostream@DU?$char_traits@D@std@@@1@A:BYTE
EXTRN	__security_cookie:QWORD
;	COMDAT pdata
pdata	SEGMENT
$pdata$?__empty_global_delete@@YAXPEAX@Z DD imagerel $LN3
	DD	imagerel $LN3+42
	DD	imagerel $unwind$?__empty_global_delete@@YAXPEAX@Z
pdata	ENDS
;	COMDAT pdata
pdata	SEGMENT
$pdata$?__empty_global_delete@@YAXPEAX_K@Z DD imagerel $LN3
	DD	imagerel $LN3+47
	DD	imagerel $unwind$?__empty_global_delete@@YAXPEAX_K@Z
pdata	ENDS
;	COMDAT pdata
pdata	SEGMENT
$pdata$??2@YAPEAX_KPEAX@Z DD imagerel $LN4
	DD	imagerel $LN4+54
	DD	imagerel $unwind$??2@YAPEAX_KPEAX@Z
pdata	ENDS
;	COMDAT pdata
pdata	SEGMENT
$pdata$wmemcpy DD imagerel $LN3
	DD	imagerel $LN3+84
	DD	imagerel $unwind$wmemcpy
pdata	ENDS
;	COMDAT pdata
pdata	SEGMENT
$pdata$??0exception@std@@QEAA@QEBDH@Z DD imagerel $LN4
	DD	imagerel $LN4+117
	DD	imagerel $unwind$??0exception@std@@QEAA@QEBDH@Z
pdata	ENDS
;	COMDAT pdata
pdata	SEGMENT
$pdata$??0exception@std@@QEAA@AEBV01@@Z DD imagerel $LN4
	DD	imagerel $LN4+125
	DD	imagerel $unwind$??0exception@std@@QEAA@AEBV01@@Z
pdata	ENDS
;	COMDAT pdata
pdata	SEGMENT
$pdata$??1exception@std@@UEAA@XZ DD imagerel $LN4
	DD	imagerel $LN4+79
	DD	imagerel $unwind$??1exception@std@@UEAA@XZ
pdata	ENDS
;	COMDAT pdata
pdata	SEGMENT
$pdata$?what@exception@std@@UEBAPEBDXZ DD imagerel $LN5
	DD	imagerel $LN5+97
	DD	imagerel $unwind$?what@exception@std@@UEBAPEBDXZ
pdata	ENDS
;	COMDAT pdata
pdata	SEGMENT
$pdata$??_Gexception@std@@UEAAPEAXI@Z DD imagerel $LN5
	DD	imagerel $LN5+84
	DD	imagerel $unwind$??_Gexception@std@@UEAAPEAXI@Z
pdata	ENDS
;	COMDAT pdata
pdata	SEGMENT
$pdata$??0bad_alloc@std@@AEAA@QEBD@Z DD imagerel $LN4
	DD	imagerel $LN4+97
	DD	imagerel $unwind$??0bad_alloc@std@@AEAA@QEBD@Z
pdata	ENDS
;	COMDAT pdata
pdata	SEGMENT
$pdata$??1bad_alloc@std@@UEAA@XZ DD imagerel $LN4
	DD	imagerel $LN4+42
	DD	imagerel $unwind$??1bad_alloc@std@@UEAA@XZ
pdata	ENDS
;	COMDAT pdata
pdata	SEGMENT
$pdata$??0bad_alloc@std@@QEAA@AEBV01@@Z DD imagerel $LN4
	DD	imagerel $LN4+78
	DD	imagerel $unwind$??0bad_alloc@std@@QEAA@AEBV01@@Z
pdata	ENDS
;	COMDAT pdata
pdata	SEGMENT
$pdata$??_Gbad_alloc@std@@UEAAPEAXI@Z DD imagerel $LN5
	DD	imagerel $LN5+84
	DD	imagerel $unwind$??_Gbad_alloc@std@@UEAAPEAXI@Z
pdata	ENDS
;	COMDAT pdata
pdata	SEGMENT
$pdata$??0bad_array_new_length@std@@QEAA@XZ DD imagerel $LN4
	DD	imagerel $LN4+86
	DD	imagerel $unwind$??0bad_array_new_length@std@@QEAA@XZ
pdata	ENDS
;	COMDAT pdata
pdata	SEGMENT
$pdata$??1bad_array_new_length@std@@UEAA@XZ DD imagerel $LN4
	DD	imagerel $LN4+42
	DD	imagerel $unwind$??1bad_array_new_length@std@@UEAA@XZ
pdata	ENDS
;	COMDAT pdata
pdata	SEGMENT
$pdata$??0bad_array_new_length@std@@QEAA@AEBV01@@Z DD imagerel $LN4
	DD	imagerel $LN4+78
	DD	imagerel $unwind$??0bad_array_new_length@std@@QEAA@AEBV01@@Z
pdata	ENDS
;	COMDAT pdata
pdata	SEGMENT
$pdata$??_Gbad_array_new_length@std@@UEAAPEAXI@Z DD imagerel $LN5
	DD	imagerel $LN5+84
	DD	imagerel $unwind$??_Gbad_array_new_length@std@@UEAAPEAXI@Z
pdata	ENDS
;	COMDAT pdata
pdata	SEGMENT
$pdata$?copy@?$_Char_traits@DH@std@@SAPEADQEADQEBD_K@Z DD imagerel $LN4
	DD	imagerel $LN4+86
	DD	imagerel $unwind$?copy@?$_Char_traits@DH@std@@SAPEADQEADQEBD_K@Z
pdata	ENDS
;	COMDAT pdata
pdata	SEGMENT
$pdata$?length@?$_Narrow_char_traits@DH@std@@SA_KQEBD@Z DD imagerel $LN4
	DD	imagerel $LN4+54
	DD	imagerel $unwind$?length@?$_Narrow_char_traits@DH@std@@SA_KQEBD@Z
pdata	ENDS
;	COMDAT pdata
pdata	SEGMENT
$pdata$?assign@?$_Narrow_char_traits@DH@std@@SAXAEADAEBD@Z DD imagerel $LN4
	DD	imagerel $LN4+66
	DD	imagerel $unwind$?assign@?$_Narrow_char_traits@DH@std@@SAXAEADAEBD@Z
pdata	ENDS
;	COMDAT pdata
pdata	SEGMENT
$pdata$?eq_int_type@?$_Narrow_char_traits@DH@std@@SA_NHH@Z DD imagerel $LN6
	DD	imagerel $LN6+88
	DD	imagerel $unwind$?eq_int_type@?$_Narrow_char_traits@DH@std@@SA_NHH@Z
pdata	ENDS
;	COMDAT pdata
pdata	SEGMENT
$pdata$?eof@?$_Narrow_char_traits@DH@std@@SAHXZ DD imagerel $LN4
	DD	imagerel $LN4+43
	DD	imagerel $unwind$?eof@?$_Narrow_char_traits@DH@std@@SAHXZ
pdata	ENDS
;	COMDAT pdata
pdata	SEGMENT
$pdata$?_Throw_bad_array_new_length@std@@YAXXZ DD imagerel $LN3
	DD	imagerel $LN3+70
	DD	imagerel $unwind$?_Throw_bad_array_new_length@std@@YAXXZ
pdata	ENDS
;	COMDAT pdata
pdata	SEGMENT
$pdata$?_Allocate@_Default_allocate_traits@std@@SAPEAX_K@Z DD imagerel $LN3
	DD	imagerel $LN3+54
	DD	imagerel $unwind$?_Allocate@_Default_allocate_traits@std@@SAPEAX_K@Z
pdata	ENDS
;	COMDAT pdata
pdata	SEGMENT
$pdata$?_Adjust_manually_vector_aligned@std@@YAXAEAPEAXAEA_K@Z DD imagerel $LN21
	DD	imagerel $LN21+456
	DD	imagerel $unwind$?_Adjust_manually_vector_aligned@std@@YAXAEAPEAXAEA_K@Z
pdata	ENDS
;	COMDAT pdata
pdata	SEGMENT
$pdata$??0_Container_proxy@std@@QEAA@PEAU_Container_base12@1@@Z DD imagerel $LN4
	DD	imagerel $LN4+86
	DD	imagerel $unwind$??0_Container_proxy@std@@QEAA@PEAU_Container_base12@1@@Z
pdata	ENDS
;	COMDAT pdata
pdata	SEGMENT
$pdata$??0_Container_base12@std@@QEAA@XZ DD imagerel $LN4
	DD	imagerel $LN4+63
	DD	imagerel $unwind$??0_Container_base12@std@@QEAA@XZ
pdata	ENDS
;	COMDAT pdata
pdata	SEGMENT
$pdata$?_Orphan_all@_Container_base12@std@@QEAAXXZ DD imagerel $LN4
	DD	imagerel $LN4+55
	DD	imagerel $unwind$?_Orphan_all@_Container_base12@std@@QEAAXXZ
pdata	ENDS
;	COMDAT pdata
pdata	SEGMENT
$pdata$?_Orphan_all_unlocked_v3@_Container_base12@std@@AEAAXXZ DD imagerel $LN8
	DD	imagerel $LN8+135
	DD	imagerel $unwind$?_Orphan_all_unlocked_v3@_Container_base12@std@@AEAAXXZ
pdata	ENDS
;	COMDAT pdata
pdata	SEGMENT
$pdata$?_Orphan_all_locked_v3@_Container_base12@std@@AEAAXXZ DD imagerel $LN4
	DD	imagerel $LN4+155
	DD	imagerel $unwind$?_Orphan_all_locked_v3@_Container_base12@std@@AEAAXXZ
pdata	ENDS
;	COMDAT pdata
pdata	SEGMENT
$pdata$??$exchange@PEAU_Iterator_base12@std@@$$T@std@@YAPEAU_Iterator_base12@0@AEAPEAU10@$$QEA$$T@Z DD imagerel $LN4
	DD	imagerel $LN4+85
	DD	imagerel $unwind$??$exchange@PEAU_Iterator_base12@std@@$$T@std@@YAPEAU_Iterator_base12@0@AEAPEAU10@$$QEA$$T@Z
pdata	ENDS
;	COMDAT pdata
pdata	SEGMENT
$pdata$?_Release@_Basic_container_proxy_ptr12@std@@QEAAXXZ DD imagerel $LN4
	DD	imagerel $LN4+56
	DD	imagerel $unwind$?_Release@_Basic_container_proxy_ptr12@std@@QEAAXXZ
pdata	ENDS
;	COMDAT pdata
pdata	SEGMENT
$pdata$??0_Basic_container_proxy_ptr12@std@@IEAA@XZ DD imagerel $LN4
	DD	imagerel $LN4+63
	DD	imagerel $unwind$??0_Basic_container_proxy_ptr12@std@@IEAA@XZ
pdata	ENDS
;	COMDAT pdata
pdata	SEGMENT
$pdata$??$addressof@U_Container_base12@std@@@std@@YAPEAU_Container_base12@0@AEAU10@@Z DD imagerel $LN4
	DD	imagerel $LN4+49
	DD	imagerel $unwind$??$addressof@U_Container_base12@std@@@std@@YAPEAU_Container_base12@0@AEAU10@@Z
pdata	ENDS
;	COMDAT pdata
pdata	SEGMENT
$pdata$??$_Construct_in_place@U_Container_proxy@std@@PEAU_Container_base12@2@@std@@YAXAEAU_Container_proxy@0@$$QEAPEAU_Container_base12@0@@Z DD imagerel $LN4
	DD	imagerel $LN4+102
	DD	imagerel $unwind$??$_Construct_in_place@U_Container_proxy@std@@PEAU_Container_base12@2@@std@@YAXAEAU_Container_proxy@0@$$QEAPEAU_Container_base12@0@@Z
pdata	ENDS
;	COMDAT pdata
pdata	SEGMENT
$pdata$?_Xlen_string@std@@YAXXZ DD imagerel $LN3
	DD	imagerel $LN3+51
	DD	imagerel $unwind$?_Xlen_string@std@@YAXXZ
pdata	ENDS
;	COMDAT pdata
pdata	SEGMENT
$pdata$??0?$allocator@D@std@@QEAA@XZ DD imagerel $LN4
	DD	imagerel $LN4+49
	DD	imagerel $unwind$??0?$allocator@D@std@@QEAA@XZ
pdata	ENDS
;	COMDAT pdata
pdata	SEGMENT
$pdata$?deallocate@?$allocator@D@std@@QEAAXQEAD_K@Z DD imagerel $LN13
	DD	imagerel $LN13+212
	DD	imagerel $unwind$?deallocate@?$allocator@D@std@@QEAAXQEAD_K@Z
pdata	ENDS
;	COMDAT pdata
pdata	SEGMENT
$pdata$?allocate@?$allocator@D@std@@QEAAPEAD_K@Z DD imagerel $LN3
	DD	imagerel $LN3+67
	DD	imagerel $unwind$?allocate@?$allocator@D@std@@QEAAPEAD_K@Z
pdata	ENDS
;	COMDAT pdata
pdata	SEGMENT
$pdata$?max_size@?$_Default_allocator_traits@V?$allocator@D@std@@@std@@SA_KAEBV?$allocator@D@2@@Z DD imagerel $LN4
	DD	imagerel $LN4+49
	DD	imagerel $unwind$?max_size@?$_Default_allocator_traits@V?$allocator@D@std@@@std@@SA_KAEBV?$allocator@D@2@@Z
pdata	ENDS
;	COMDAT pdata
pdata	SEGMENT
$pdata$?select_on_container_copy_construction@?$_Default_allocator_traits@V?$allocator@D@std@@@std@@SA?AV?$allocator@D@2@AEBV32@@Z DD imagerel $LN3
	DD	imagerel $LN3+54
	DD	imagerel $unwind$?select_on_container_copy_construction@?$_Default_allocator_traits@V?$allocator@D@std@@@std@@SA?AV?$allocator@D@2@AEBV32@@Z
pdata	ENDS
;	COMDAT pdata
pdata	SEGMENT
$pdata$??0?$_String_val@U?$_Simple_types@D@std@@@std@@QEAA@XZ DD imagerel $LN4
	DD	imagerel $LN4+112
	DD	imagerel $unwind$??0?$_String_val@U?$_Simple_types@D@std@@@std@@QEAA@XZ
pdata	ENDS
;	COMDAT pdata
pdata	SEGMENT
$pdata$?_Myptr@?$_String_val@U?$_Simple_types@D@std@@@std@@QEBAPEBDXZ DD imagerel $LN5
	DD	imagerel $LN5+100
	DD	imagerel $unwind$?_Myptr@?$_String_val@U?$_Simple_types@D@std@@@std@@QEBAPEBDXZ
pdata	ENDS
;	COMDAT pdata
pdata	SEGMENT
$pdata$?_Large_mode_engaged@?$_String_val@U?$_Simple_types@D@std@@@std@@QEBA_NXZ DD imagerel $LN6
	DD	imagerel $LN6+85
	DD	imagerel $unwind$?_Large_mode_engaged@?$_String_val@U?$_Simple_types@D@std@@@std@@QEBA_NXZ
pdata	ENDS
;	COMDAT pdata
pdata	SEGMENT
$pdata$??0_Bxty@?$_String_val@U?$_Simple_types@D@std@@@std@@QEAA@XZ DD imagerel $LN4
	DD	imagerel $LN4+72
	DD	imagerel $unwind$??0_Bxty@?$_String_val@U?$_Simple_types@D@std@@@std@@QEAA@XZ
pdata	ENDS
;	COMDAT pdata
pdata	SEGMENT
$pdata$??1_Bxty@?$_String_val@U?$_Simple_types@D@std@@@std@@QEAA@XZ DD imagerel $LN4
	DD	imagerel $LN4+42
	DD	imagerel $unwind$??1_Bxty@?$_String_val@U?$_Simple_types@D@std@@@std@@QEAA@XZ
pdata	ENDS
;	COMDAT pdata
pdata	SEGMENT
$pdata$?_Switch_to_buf@_Bxty@?$_String_val@U?$_Simple_types@D@std@@@std@@QEAAXXZ DD imagerel $LN4
	DD	imagerel $LN4+58
	DD	imagerel $unwind$?_Switch_to_buf@_Bxty@?$_String_val@U?$_Simple_types@D@std@@@std@@QEAAXXZ
pdata	ENDS
;	COMDAT pdata
pdata	SEGMENT
$pdata$??1?$_String_val@U?$_Simple_types@D@std@@@std@@QEAA@XZ DD imagerel $LN4
	DD	imagerel $LN4+49
	DD	imagerel $unwind$??1?$_String_val@U?$_Simple_types@D@std@@@std@@QEAA@XZ
pdata	ENDS
;	COMDAT pdata
pdata	SEGMENT
$pdata$??0?$basic_string@DU?$char_traits@D@std@@V?$allocator@D@2@@std@@QEAA@AEBV01@@Z DD imagerel $LN4
	DD	imagerel $LN4+146
	DD	imagerel $unwind$??0?$basic_string@DU?$char_traits@D@std@@V?$allocator@D@2@@std@@QEAA@AEBV01@@Z
pdata	ENDS
;	COMDAT pdata
pdata	SEGMENT
$pdata$?dtor$0@?0???0?$basic_string@DU?$char_traits@D@std@@V?$allocator@D@2@@std@@QEAA@AEBV01@@Z@4HA DD imagerel ?dtor$0@?0???0?$basic_string@DU?$char_traits@D@std@@V?$allocator@D@2@@std@@QEAA@AEBV01@@Z@4HA
	DD	imagerel ?dtor$0@?0???0?$basic_string@DU?$char_traits@D@std@@V?$allocator@D@2@@std@@QEAA@AEBV01@@Z@4HA+39
	DD	imagerel $unwind$?dtor$0@?0???0?$basic_string@DU?$char_traits@D@std@@V?$allocator@D@2@@std@@QEAA@AEBV01@@Z@4HA
pdata	ENDS
;	COMDAT pdata
pdata	SEGMENT
$pdata$??0?$basic_string@DU?$char_traits@D@std@@V?$allocator@D@2@@std@@QEAA@QEBD@Z DD imagerel $LN4
	DD	imagerel $LN4+120
	DD	imagerel $unwind$??0?$basic_string@DU?$char_traits@D@std@@V?$allocator@D@2@@std@@QEAA@QEBD@Z
pdata	ENDS
;	COMDAT pdata
pdata	SEGMENT
$pdata$?dtor$0@?0???0?$basic_string@DU?$char_traits@D@std@@V?$allocator@D@2@@std@@QEAA@QEBD@Z@4HA DD imagerel ?dtor$0@?0???0?$basic_string@DU?$char_traits@D@std@@V?$allocator@D@2@@std@@QEAA@QEBD@Z@4HA
	DD	imagerel ?dtor$0@?0???0?$basic_string@DU?$char_traits@D@std@@V?$allocator@D@2@@std@@QEAA@QEBD@Z@4HA+39
	DD	imagerel $unwind$?dtor$0@?0???0?$basic_string@DU?$char_traits@D@std@@V?$allocator@D@2@@std@@QEAA@QEBD@Z@4HA
pdata	ENDS
;	COMDAT pdata
pdata	SEGMENT
$pdata$?_Deallocate_for_capacity@?$basic_string@DU?$char_traits@D@std@@V?$allocator@D@2@@std@@CAXAEAV?$allocator@D@2@QEAD_K@Z DD imagerel $LN4
	DD	imagerel $LN4+85
	DD	imagerel $unwind$?_Deallocate_for_capacity@?$basic_string@DU?$char_traits@D@std@@V?$allocator@D@2@@std@@CAXAEAV?$allocator@D@2@QEAD_K@Z
pdata	ENDS
;	COMDAT pdata
pdata	SEGMENT
$pdata$??1?$basic_string@DU?$char_traits@D@std@@V?$allocator@D@2@@std@@QEAA@XZ DD imagerel $LN4
	DD	imagerel $LN4+218
	DD	imagerel $unwind$??1?$basic_string@DU?$char_traits@D@std@@V?$allocator@D@2@@std@@QEAA@XZ
pdata	ENDS
;	COMDAT pdata
pdata	SEGMENT
$pdata$?data@?$basic_string@DU?$char_traits@D@std@@V?$allocator@D@2@@std@@QEBAPEBDXZ DD imagerel $LN4
	DD	imagerel $LN4+57
	DD	imagerel $unwind$?data@?$basic_string@DU?$char_traits@D@std@@V?$allocator@D@2@@std@@QEBAPEBDXZ
pdata	ENDS
;	COMDAT pdata
pdata	SEGMENT
$pdata$?size@?$basic_string@DU?$char_traits@D@std@@V?$allocator@D@2@@std@@QEBA_KXZ DD imagerel $LN4
	DD	imagerel $LN4+53
	DD	imagerel $unwind$?size@?$basic_string@DU?$char_traits@D@std@@V?$allocator@D@2@@std@@QEBA_KXZ
pdata	ENDS
;	COMDAT pdata
pdata	SEGMENT
$pdata$?max_size@?$basic_string@DU?$char_traits@D@std@@V?$allocator@D@2@@std@@QEBA_KXZ DD imagerel $LN4
	DD	imagerel $LN4+227
	DD	imagerel $unwind$?max_size@?$basic_string@DU?$char_traits@D@std@@V?$allocator@D@2@@std@@QEBA_KXZ
pdata	ENDS
;	COMDAT pdata
pdata	SEGMENT
$pdata$?_Calculate_growth@?$basic_string@DU?$char_traits@D@std@@V?$allocator@D@2@@std@@CA_K_K00@Z DD imagerel $LN6
	DD	imagerel $LN6+272
	DD	imagerel $unwind$?_Calculate_growth@?$basic_string@DU?$char_traits@D@std@@V?$allocator@D@2@@std@@CA_K_K00@Z
pdata	ENDS
;	COMDAT pdata
pdata	SEGMENT
$pdata$?_Tidy_deallocate@?$basic_string@DU?$char_traits@D@std@@V?$allocator@D@2@@std@@AEAAXXZ DD imagerel $LN5
	DD	imagerel $LN5+203
	DD	imagerel $unwind$?_Tidy_deallocate@?$basic_string@DU?$char_traits@D@std@@V?$allocator@D@2@@std@@AEAAXXZ
pdata	ENDS
;	COMDAT pdata
pdata	SEGMENT
$pdata$?_Getal@?$basic_string@DU?$char_traits@D@std@@V?$allocator@D@2@@std@@AEAAAEAV?$allocator@D@2@XZ DD imagerel $LN4
	DD	imagerel $LN4+57
	DD	imagerel $unwind$?_Getal@?$basic_string@DU?$char_traits@D@std@@V?$allocator@D@2@@std@@AEAAAEAV?$allocator@D@2@XZ
pdata	ENDS
;	COMDAT pdata
pdata	SEGMENT
$pdata$?_Getal@?$basic_string@DU?$char_traits@D@std@@V?$allocator@D@2@@std@@AEBAAEBV?$allocator@D@2@XZ DD imagerel $LN4
	DD	imagerel $LN4+57
	DD	imagerel $unwind$?_Getal@?$basic_string@DU?$char_traits@D@std@@V?$allocator@D@2@@std@@AEBAAEBV?$allocator@D@2@XZ
pdata	ENDS
;	COMDAT pdata
pdata	SEGMENT
$pdata$?_Get_first@?$_Compressed_pair@V?$allocator@D@std@@V?$_String_val@U?$_Simple_types@D@std@@@2@$00@std@@QEAAAEAV?$allocator@D@2@XZ DD imagerel $LN4
	DD	imagerel $LN4+49
	DD	imagerel $unwind$?_Get_first@?$_Compressed_pair@V?$allocator@D@std@@V?$_String_val@U?$_Simple_types@D@std@@@2@$00@std@@QEAAAEAV?$allocator@D@2@XZ
pdata	ENDS
;	COMDAT pdata
pdata	SEGMENT
$pdata$?_Get_first@?$_Compressed_pair@V?$allocator@D@std@@V?$_String_val@U?$_Simple_types@D@std@@@2@$00@std@@QEBAAEBV?$allocator@D@2@XZ DD imagerel $LN4
	DD	imagerel $LN4+49
	DD	imagerel $unwind$?_Get_first@?$_Compressed_pair@V?$allocator@D@std@@V?$_String_val@U?$_Simple_types@D@std@@@2@$00@std@@QEBAAEBV?$allocator@D@2@XZ
pdata	ENDS
;	COMDAT pdata
pdata	SEGMENT
$pdata$??1?$_Compressed_pair@V?$allocator@D@std@@V?$_String_val@U?$_Simple_types@D@std@@@2@$00@std@@QEAA@XZ DD imagerel $LN4
	DD	imagerel $LN4+45
	DD	imagerel $unwind$??1?$_Compressed_pair@V?$allocator@D@std@@V?$_String_val@U?$_Simple_types@D@std@@@2@$00@std@@QEAA@XZ
pdata	ENDS
;	COMDAT pdata
pdata	SEGMENT
$pdata$??$_Maklocstr@_W@std@@YAPEA_WPEBDPEA_WAEBU_Cvtvec@@@Z DD imagerel $LN12
	DD	imagerel $LN12+588
	DD	imagerel $unwind$??$_Maklocstr@_W@std@@YAPEA_WPEBDPEA_WAEBU_Cvtvec@@@Z
pdata	ENDS
;	COMDAT pdata
pdata	SEGMENT
$pdata$?_Maklocwcs@std@@YAPEA_WPEB_W@Z DD imagerel $LN4
	DD	imagerel $LN4+145
	DD	imagerel $unwind$?_Maklocwcs@std@@YAPEA_WPEB_W@Z
pdata	ENDS
;	COMDAT pdata
pdata	SEGMENT
$pdata$??$_Maklocstr@D@std@@YAPEADPEBDPEADAEBU_Cvtvec@@@Z DD imagerel $LN7
	DD	imagerel $LN7+202
	DD	imagerel $unwind$??$_Maklocstr@D@std@@YAPEADPEBDPEADAEBU_Cvtvec@@@Z
pdata	ENDS
;	COMDAT pdata
pdata	SEGMENT
$pdata$??$_Max_limit@_J@std@@YA_JXZ DD imagerel $LN4
	DD	imagerel $LN4+56
	DD	imagerel $unwind$??$_Max_limit@_J@std@@YA_JXZ
pdata	ENDS
;	COMDAT pdata
pdata	SEGMENT
$pdata$??$_Getvals@_W@?$time_get@DV?$istreambuf_iterator@DU?$char_traits@D@std@@@std@@@std@@IEAAX_WAEBV_Locinfo@1@@Z DD imagerel $LN5
	DD	imagerel $LN5+357
	DD	imagerel $unwind$??$_Getvals@_W@?$time_get@DV?$istreambuf_iterator@DU?$char_traits@D@std@@@std@@@std@@IEAAX_WAEBV_Locinfo@1@@Z
pdata	ENDS
;	COMDAT pdata
pdata	SEGMENT
$pdata$??$_Getvals@_W@?$time_get@_WV?$istreambuf_iterator@_WU?$char_traits@_W@std@@@std@@@std@@IEAAX_WAEBV_Locinfo@1@@Z DD imagerel $LN5
	DD	imagerel $LN5+357
	DD	imagerel $unwind$??$_Getvals@_W@?$time_get@_WV?$istreambuf_iterator@_WU?$char_traits@_W@std@@@std@@@std@@IEAAX_WAEBV_Locinfo@1@@Z
pdata	ENDS
;	COMDAT pdata
pdata	SEGMENT
$pdata$?getMonthName@@YA?AV?$basic_string@DU?$char_traits@D@std@@V?$allocator@D@2@@std@@H@Z DD imagerel $LN19
	DD	imagerel $LN19+540
	DD	imagerel $unwind$?getMonthName@@YA?AV?$basic_string@DU?$char_traits@D@std@@V?$allocator@D@2@@std@@H@Z
pdata	ENDS
;	COMDAT pdata
pdata	SEGMENT
$pdata$?dtor$0@?0??getMonthName@@YA?AV?$basic_string@DU?$char_traits@D@std@@V?$allocator@D@2@@std@@H@Z@4HA DD imagerel ?dtor$0@?0??getMonthName@@YA?AV?$basic_string@DU?$char_traits@D@std@@V?$allocator@D@2@@std@@H@Z@4HA
	DD	imagerel ?dtor$0@?0??getMonthName@@YA?AV?$basic_string@DU?$char_traits@D@std@@V?$allocator@D@2@@std@@H@Z@4HA+36
	DD	imagerel $unwind$?dtor$0@?0??getMonthName@@YA?AV?$basic_string@DU?$char_traits@D@std@@V?$allocator@D@2@@std@@H@Z@4HA
pdata	ENDS
;	COMDAT pdata
pdata	SEGMENT
$pdata$?dtor$1@?0??getMonthName@@YA?AV?$basic_string@DU?$char_traits@D@std@@V?$allocator@D@2@@std@@H@Z@4HA DD imagerel ?dtor$1@?0??getMonthName@@YA?AV?$basic_string@DU?$char_traits@D@std@@V?$allocator@D@2@@std@@H@Z@4HA
	DD	imagerel ?dtor$1@?0??getMonthName@@YA?AV?$basic_string@DU?$char_traits@D@std@@V?$allocator@D@2@@std@@H@Z@4HA+36
	DD	imagerel $unwind$?dtor$1@?0??getMonthName@@YA?AV?$basic_string@DU?$char_traits@D@std@@V?$allocator@D@2@@std@@H@Z@4HA
pdata	ENDS
;	COMDAT pdata
pdata	SEGMENT
$pdata$?dtor$2@?0??getMonthName@@YA?AV?$basic_string@DU?$char_traits@D@std@@V?$allocator@D@2@@std@@H@Z@4HA DD imagerel ?dtor$2@?0??getMonthName@@YA?AV?$basic_string@DU?$char_traits@D@std@@V?$allocator@D@2@@std@@H@Z@4HA
	DD	imagerel ?dtor$2@?0??getMonthName@@YA?AV?$basic_string@DU?$char_traits@D@std@@V?$allocator@D@2@@std@@H@Z@4HA+36
	DD	imagerel $unwind$?dtor$2@?0??getMonthName@@YA?AV?$basic_string@DU?$char_traits@D@std@@V?$allocator@D@2@@std@@H@Z@4HA
pdata	ENDS
;	COMDAT pdata
pdata	SEGMENT
$pdata$?dtor$3@?0??getMonthName@@YA?AV?$basic_string@DU?$char_traits@D@std@@V?$allocator@D@2@@std@@H@Z@4HA DD imagerel ?dtor$3@?0??getMonthName@@YA?AV?$basic_string@DU?$char_traits@D@std@@V?$allocator@D@2@@std@@H@Z@4HA
	DD	imagerel ?dtor$3@?0??getMonthName@@YA?AV?$basic_string@DU?$char_traits@D@std@@V?$allocator@D@2@@std@@H@Z@4HA+39
	DD	imagerel $unwind$?dtor$3@?0??getMonthName@@YA?AV?$basic_string@DU?$char_traits@D@std@@V?$allocator@D@2@@std@@H@Z@4HA
pdata	ENDS
;	COMDAT pdata
pdata	SEGMENT
$pdata$?dtor$4@?0??getMonthName@@YA?AV?$basic_string@DU?$char_traits@D@std@@V?$allocator@D@2@@std@@H@Z@4HA DD imagerel ?dtor$4@?0??getMonthName@@YA?AV?$basic_string@DU?$char_traits@D@std@@V?$allocator@D@2@@std@@H@Z@4HA
	DD	imagerel ?dtor$4@?0??getMonthName@@YA?AV?$basic_string@DU?$char_traits@D@std@@V?$allocator@D@2@@std@@H@Z@4HA+39
	DD	imagerel $unwind$?dtor$4@?0??getMonthName@@YA?AV?$basic_string@DU?$char_traits@D@std@@V?$allocator@D@2@@std@@H@Z@4HA
pdata	ENDS
;	COMDAT pdata
pdata	SEGMENT
$pdata$?dtor$5@?0??getMonthName@@YA?AV?$basic_string@DU?$char_traits@D@std@@V?$allocator@D@2@@std@@H@Z@4HA DD imagerel ?dtor$5@?0??getMonthName@@YA?AV?$basic_string@DU?$char_traits@D@std@@V?$allocator@D@2@@std@@H@Z@4HA
	DD	imagerel ?dtor$5@?0??getMonthName@@YA?AV?$basic_string@DU?$char_traits@D@std@@V?$allocator@D@2@@std@@H@Z@4HA+39
	DD	imagerel $unwind$?dtor$5@?0??getMonthName@@YA?AV?$basic_string@DU?$char_traits@D@std@@V?$allocator@D@2@@std@@H@Z@4HA
pdata	ENDS
;	COMDAT pdata
pdata	SEGMENT
$pdata$?dtor$6@?0??getMonthName@@YA?AV?$basic_string@DU?$char_traits@D@std@@V?$allocator@D@2@@std@@H@Z@4HA DD imagerel ?dtor$6@?0??getMonthName@@YA?AV?$basic_string@DU?$char_traits@D@std@@V?$allocator@D@2@@std@@H@Z@4HA
	DD	imagerel ?dtor$6@?0??getMonthName@@YA?AV?$basic_string@DU?$char_traits@D@std@@V?$allocator@D@2@@std@@H@Z@4HA+39
	DD	imagerel $unwind$?dtor$6@?0??getMonthName@@YA?AV?$basic_string@DU?$char_traits@D@std@@V?$allocator@D@2@@std@@H@Z@4HA
pdata	ENDS
;	COMDAT pdata
pdata	SEGMENT
$pdata$?dtor$7@?0??getMonthName@@YA?AV?$basic_string@DU?$char_traits@D@std@@V?$allocator@D@2@@std@@H@Z@4HA DD imagerel ?dtor$7@?0??getMonthName@@YA?AV?$basic_string@DU?$char_traits@D@std@@V?$allocator@D@2@@std@@H@Z@4HA
	DD	imagerel ?dtor$7@?0??getMonthName@@YA?AV?$basic_string@DU?$char_traits@D@std@@V?$allocator@D@2@@std@@H@Z@4HA+39
	DD	imagerel $unwind$?dtor$7@?0??getMonthName@@YA?AV?$basic_string@DU?$char_traits@D@std@@V?$allocator@D@2@@std@@H@Z@4HA
pdata	ENDS
;	COMDAT pdata
pdata	SEGMENT
$pdata$?dtor$8@?0??getMonthName@@YA?AV?$basic_string@DU?$char_traits@D@std@@V?$allocator@D@2@@std@@H@Z@4HA DD imagerel ?dtor$8@?0??getMonthName@@YA?AV?$basic_string@DU?$char_traits@D@std@@V?$allocator@D@2@@std@@H@Z@4HA
	DD	imagerel ?dtor$8@?0??getMonthName@@YA?AV?$basic_string@DU?$char_traits@D@std@@V?$allocator@D@2@@std@@H@Z@4HA+39
	DD	imagerel $unwind$?dtor$8@?0??getMonthName@@YA?AV?$basic_string@DU?$char_traits@D@std@@V?$allocator@D@2@@std@@H@Z@4HA
pdata	ENDS
;	COMDAT pdata
pdata	SEGMENT
$pdata$?dtor$9@?0??getMonthName@@YA?AV?$basic_string@DU?$char_traits@D@std@@V?$allocator@D@2@@std@@H@Z@4HA DD imagerel ?dtor$9@?0??getMonthName@@YA?AV?$basic_string@DU?$char_traits@D@std@@V?$allocator@D@2@@std@@H@Z@4HA
	DD	imagerel ?dtor$9@?0??getMonthName@@YA?AV?$basic_string@DU?$char_traits@D@std@@V?$allocator@D@2@@std@@H@Z@4HA+39
	DD	imagerel $unwind$?dtor$9@?0??getMonthName@@YA?AV?$basic_string@DU?$char_traits@D@std@@V?$allocator@D@2@@std@@H@Z@4HA
pdata	ENDS
;	COMDAT pdata
pdata	SEGMENT
$pdata$?dtor$10@?0??getMonthName@@YA?AV?$basic_string@DU?$char_traits@D@std@@V?$allocator@D@2@@std@@H@Z@4HA DD imagerel ?dtor$10@?0??getMonthName@@YA?AV?$basic_string@DU?$char_traits@D@std@@V?$allocator@D@2@@std@@H@Z@4HA
	DD	imagerel ?dtor$10@?0??getMonthName@@YA?AV?$basic_string@DU?$char_traits@D@std@@V?$allocator@D@2@@std@@H@Z@4HA+39
	DD	imagerel $unwind$?dtor$10@?0??getMonthName@@YA?AV?$basic_string@DU?$char_traits@D@std@@V?$allocator@D@2@@std@@H@Z@4HA
pdata	ENDS
;	COMDAT pdata
pdata	SEGMENT
$pdata$?dtor$12@?0??getMonthName@@YA?AV?$basic_string@DU?$char_traits@D@std@@V?$allocator@D@2@@std@@H@Z@4HA DD imagerel ?dtor$12@?0??getMonthName@@YA?AV?$basic_string@DU?$char_traits@D@std@@V?$allocator@D@2@@std@@H@Z@4HA
	DD	imagerel ?dtor$12@?0??getMonthName@@YA?AV?$basic_string@DU?$char_traits@D@std@@V?$allocator@D@2@@std@@H@Z@4HA+54
	DD	imagerel $unwind$?dtor$12@?0??getMonthName@@YA?AV?$basic_string@DU?$char_traits@D@std@@V?$allocator@D@2@@std@@H@Z@4HA
pdata	ENDS
;	COMDAT pdata
pdata	SEGMENT
$pdata$?dtor$13@?0??getMonthName@@YA?AV?$basic_string@DU?$char_traits@D@std@@V?$allocator@D@2@@std@@H@Z@4HA DD imagerel ?dtor$13@?0??getMonthName@@YA?AV?$basic_string@DU?$char_traits@D@std@@V?$allocator@D@2@@std@@H@Z@4HA
	DD	imagerel ?dtor$13@?0??getMonthName@@YA?AV?$basic_string@DU?$char_traits@D@std@@V?$allocator@D@2@@std@@H@Z@4HA+59
	DD	imagerel $unwind$?dtor$13@?0??getMonthName@@YA?AV?$basic_string@DU?$char_traits@D@std@@V?$allocator@D@2@@std@@H@Z@4HA
pdata	ENDS
;	COMDAT pdata
pdata	SEGMENT
$pdata$?getDateFromDayOfYear@@YAXHHAEAH0@Z DD imagerel $LN6
	DD	imagerel $LN6+322
	DD	imagerel $unwind$?getDateFromDayOfYear@@YAXHHAEAH0@Z
pdata	ENDS
;	COMDAT pdata
pdata	SEGMENT
$pdata$main DD	imagerel $LN50
	DD	imagerel $LN50+2314
	DD	imagerel $unwind$main
pdata	ENDS
;	COMDAT pdata
pdata	SEGMENT
$pdata$main$dtor$0 DD imagerel main$dtor$0
	DD	imagerel main$dtor$0+39
	DD	imagerel $unwind$main$dtor$0
pdata	ENDS
;	COMDAT pdata
pdata	SEGMENT
$pdata$main$dtor$1 DD imagerel main$dtor$1
	DD	imagerel main$dtor$1+39
	DD	imagerel $unwind$main$dtor$1
pdata	ENDS
;	COMDAT pdata
pdata	SEGMENT
$pdata$??$?6U?$char_traits@D@std@@@std@@YAAEAV?$basic_ostream@DU?$char_traits@D@std@@@0@AEAV10@PEBD@Z DD imagerel $LN25
	DD	imagerel $LN25+945
	DD	imagerel $unwind$??$?6U?$char_traits@D@std@@@std@@YAAEAV?$basic_ostream@DU?$char_traits@D@std@@@0@AEAV10@PEBD@Z
pdata	ENDS
;	COMDAT pdata
pdata	SEGMENT
$pdata$?dtor$0@?0???$?6U?$char_traits@D@std@@@std@@YAAEAV?$basic_ostream@DU?$char_traits@D@std@@@0@AEAV10@PEBD@Z@4HA DD imagerel ?dtor$0@?0???$?6U?$char_traits@D@std@@@std@@YAAEAV?$basic_ostream@DU?$char_traits@D@std@@@0@AEAV10@PEBD@Z@4HA
	DD	imagerel ?dtor$0@?0???$?6U?$char_traits@D@std@@@std@@YAAEAV?$basic_ostream@DU?$char_traits@D@std@@@0@AEAV10@PEBD@Z@4HA+36
	DD	imagerel $unwind$?dtor$0@?0???$?6U?$char_traits@D@std@@@std@@YAAEAV?$basic_ostream@DU?$char_traits@D@std@@@0@AEAV10@PEBD@Z@4HA
pdata	ENDS
;	COMDAT pdata
pdata	SEGMENT
$pdata$?catch$1@?0???$?6U?$char_traits@D@std@@@std@@YAAEAV?$basic_ostream@DU?$char_traits@D@std@@@0@AEAV10@PEBD@Z@4HA DD imagerel ?catch$1@?0???$?6U?$char_traits@D@std@@@std@@YAAEAV?$basic_ostream@DU?$char_traits@D@std@@@0@AEAV10@PEBD@Z@4HA
	DD	imagerel ?catch$1@?0???$?6U?$char_traits@D@std@@@std@@YAAEAV?$basic_ostream@DU?$char_traits@D@std@@@0@AEAV10@PEBD@Z@4HA+80
	DD	imagerel $unwind$?catch$1@?0???$?6U?$char_traits@D@std@@@std@@YAAEAV?$basic_ostream@DU?$char_traits@D@std@@@0@AEAV10@PEBD@Z@4HA
pdata	ENDS
;	COMDAT pdata
pdata	SEGMENT
$pdata$??$endl@DU?$char_traits@D@std@@@std@@YAAEAV?$basic_ostream@DU?$char_traits@D@std@@@0@AEAV10@@Z DD imagerel $LN3
	DD	imagerel $LN3+118
	DD	imagerel $unwind$??$endl@DU?$char_traits@D@std@@@std@@YAAEAV?$basic_ostream@DU?$char_traits@D@std@@@0@AEAV10@@Z
pdata	ENDS
;	COMDAT pdata
pdata	SEGMENT
$pdata$??$?6DU?$char_traits@D@std@@V?$allocator@D@1@@std@@YAAEAV?$basic_ostream@DU?$char_traits@D@std@@@0@AEAV10@AEBV?$basic_string@DU?$char_traits@D@std@@V?$allocator@D@2@@0@@Z DD imagerel $LN3
	DD	imagerel $LN3+103
	DD	imagerel $unwind$??$?6DU?$char_traits@D@std@@V?$allocator@D@1@@std@@YAAEAV?$basic_ostream@DU?$char_traits@D@std@@@0@AEAV10@AEBV?$basic_string@DU?$char_traits@D@std@@V?$allocator@D@2@@0@@Z
pdata	ENDS
;	COMDAT pdata
pdata	SEGMENT
$pdata$??0_Sentry_base@?$basic_ostream@DU?$char_traits@D@std@@@std@@QEAA@AEAV12@@Z DD imagerel $LN4
	DD	imagerel $LN4+150
	DD	imagerel $unwind$??0_Sentry_base@?$basic_ostream@DU?$char_traits@D@std@@@std@@QEAA@AEAV12@@Z
pdata	ENDS
;	COMDAT pdata
pdata	SEGMENT
$pdata$??1_Sentry_base@?$basic_ostream@DU?$char_traits@D@std@@@std@@QEAA@XZ DD imagerel $LN5
	DD	imagerel $LN5+121
	DD	imagerel $unwind$??1_Sentry_base@?$basic_ostream@DU?$char_traits@D@std@@@std@@QEAA@XZ
pdata	ENDS
;	COMDAT pdata
pdata	SEGMENT
$pdata$??0sentry@?$basic_ostream@DU?$char_traits@D@std@@@std@@QEAA@AEAV12@@Z DD imagerel $LN7
	DD	imagerel $LN7+268
	DD	imagerel $unwind$??0sentry@?$basic_ostream@DU?$char_traits@D@std@@@std@@QEAA@AEAV12@@Z
pdata	ENDS
;	COMDAT pdata
pdata	SEGMENT
$pdata$?dtor$0@?0???0sentry@?$basic_ostream@DU?$char_traits@D@std@@@std@@QEAA@AEAV12@@Z@4HA DD imagerel ?dtor$0@?0???0sentry@?$basic_ostream@DU?$char_traits@D@std@@@std@@QEAA@AEAV12@@Z@4HA
	DD	imagerel ?dtor$0@?0???0sentry@?$basic_ostream@DU?$char_traits@D@std@@@std@@QEAA@AEAV12@@Z@4HA+39
	DD	imagerel $unwind$?dtor$0@?0???0sentry@?$basic_ostream@DU?$char_traits@D@std@@@std@@QEAA@AEAV12@@Z@4HA
pdata	ENDS
;	COMDAT pdata
pdata	SEGMENT
$pdata$??1sentry@?$basic_ostream@DU?$char_traits@D@std@@@std@@QEAA@XZ DD imagerel $LN7
	DD	imagerel $LN7+118
	DD	imagerel $unwind$??1sentry@?$basic_ostream@DU?$char_traits@D@std@@@std@@QEAA@XZ
pdata	ENDS
;	COMDAT pdata
pdata	SEGMENT
$pdata$??Bsentry@?$basic_ostream@DU?$char_traits@D@std@@@std@@QEBA_NXZ DD imagerel $LN3
	DD	imagerel $LN3+53
	DD	imagerel $unwind$??Bsentry@?$basic_ostream@DU?$char_traits@D@std@@@std@@QEBA_NXZ
pdata	ENDS
;	COMDAT pdata
pdata	SEGMENT
$pdata$??$min@_K@std@@YAAEB_KAEB_K0@Z DD imagerel $LN6
	DD	imagerel $LN6+120
	DD	imagerel $unwind$??$min@_K@std@@YAAEB_KAEB_K0@Z
pdata	ENDS
;	COMDAT pdata
pdata	SEGMENT
$pdata$?allocate@?$allocator@U_Container_proxy@std@@@std@@QEAAPEAU_Container_proxy@2@_K@Z DD imagerel $LN3
	DD	imagerel $LN3+67
	DD	imagerel $unwind$?allocate@?$allocator@U_Container_proxy@std@@@std@@QEAAPEAU_Container_proxy@2@_K@Z
pdata	ENDS
;	COMDAT pdata
pdata	SEGMENT
$pdata$??$_Delete_plain_internal@V?$allocator@U_Container_proxy@std@@@std@@@std@@YAXAEAV?$allocator@U_Container_proxy@std@@@0@QEAU_Container_proxy@0@@Z DD imagerel $LN4
	DD	imagerel $LN4+67
	DD	imagerel $unwind$??$_Delete_plain_internal@V?$allocator@U_Container_proxy@std@@@std@@@std@@YAXAEAV?$allocator@U_Container_proxy@std@@@0@QEAU_Container_proxy@0@@Z
pdata	ENDS
;	COMDAT pdata
pdata	SEGMENT
$pdata$??$_Convert_size@_K_K@std@@YA_K_K@Z DD imagerel $LN4
	DD	imagerel $LN4+49
	DD	imagerel $unwind$??$_Convert_size@_K_K@std@@YA_K_K@Z
pdata	ENDS
;	COMDAT pdata
pdata	SEGMENT
$pdata$??$?0D@?$allocator@U_Container_proxy@std@@@std@@QEAA@AEBV?$allocator@D@1@@Z DD imagerel $LN4
	DD	imagerel $LN4+54
	DD	imagerel $unwind$??$?0D@?$allocator@U_Container_proxy@std@@@std@@QEAA@AEBV?$allocator@D@1@@Z
pdata	ENDS
;	COMDAT pdata
pdata	SEGMENT
$pdata$??$?0V?$allocator@D@std@@$$V@?$_Compressed_pair@V?$allocator@D@std@@V?$_String_val@U?$_Simple_types@D@std@@@2@$00@std@@QEAA@U_One_then_variadic_args_t@1@$$QEAV?$allocator@D@1@@Z DD imagerel $LN4
	DD	imagerel $LN4+74
	DD	imagerel $unwind$??$?0V?$allocator@D@std@@$$V@?$_Compressed_pair@V?$allocator@D@std@@V?$_String_val@U?$_Simple_types@D@std@@@2@$00@std@@QEAA@U_One_then_variadic_args_t@1@$$QEAV?$allocator@D@1@@Z
pdata	ENDS
;	COMDAT pdata
pdata	SEGMENT
$pdata$??$?0$$V@?$_Compressed_pair@V?$allocator@D@std@@V?$_String_val@U?$_Simple_types@D@std@@@2@$00@std@@QEAA@U_Zero_then_variadic_args_t@1@@Z DD imagerel $LN4
	DD	imagerel $LN4+82
	DD	imagerel $unwind$??$?0$$V@?$_Compressed_pair@V?$allocator@D@std@@V?$_String_val@U?$_Simple_types@D@std@@@2@$00@std@@QEAA@U_Zero_then_variadic_args_t@1@@Z
pdata	ENDS
;	COMDAT pdata
pdata	SEGMENT
$pdata$??$_Construct@$00PEBD@?$basic_string@DU?$char_traits@D@std@@V?$allocator@D@2@@std@@AEAAXQEBD_K@Z DD imagerel $LN7
	DD	imagerel $LN7+582
	DD	imagerel $unwind$??$_Construct@$00PEBD@?$basic_string@DU?$char_traits@D@std@@V?$allocator@D@2@@std@@AEAAXQEBD_K@Z
pdata	ENDS
;	COMDAT pdata
pdata	SEGMENT
$pdata$?dtor$0@?0???$_Construct@$00PEBD@?$basic_string@DU?$char_traits@D@std@@V?$allocator@D@2@@std@@AEAAXQEBD_K@Z@4HA DD imagerel ?dtor$0@?0???$_Construct@$00PEBD@?$basic_string@DU?$char_traits@D@std@@V?$allocator@D@2@@std@@AEAAXQEBD_K@Z@4HA
	DD	imagerel ?dtor$0@?0???$_Construct@$00PEBD@?$basic_string@DU?$char_traits@D@std@@V?$allocator@D@2@@std@@AEAAXQEBD_K@Z@4HA+39
	DD	imagerel $unwind$?dtor$0@?0???$_Construct@$00PEBD@?$basic_string@DU?$char_traits@D@std@@V?$allocator@D@2@@std@@AEAAXQEBD_K@Z@4HA
pdata	ENDS
;	COMDAT pdata
pdata	SEGMENT
$pdata$??$_Construct@$01PEBD@?$basic_string@DU?$char_traits@D@std@@V?$allocator@D@2@@std@@AEAAXQEBD_K@Z DD imagerel $LN7
	DD	imagerel $LN7+516
	DD	imagerel $unwind$??$_Construct@$01PEBD@?$basic_string@DU?$char_traits@D@std@@V?$allocator@D@2@@std@@AEAAXQEBD_K@Z
pdata	ENDS
;	COMDAT pdata
pdata	SEGMENT
$pdata$?dtor$0@?0???$_Construct@$01PEBD@?$basic_string@DU?$char_traits@D@std@@V?$allocator@D@2@@std@@AEAAXQEBD_K@Z@4HA DD imagerel ?dtor$0@?0???$_Construct@$01PEBD@?$basic_string@DU?$char_traits@D@std@@V?$allocator@D@2@@std@@AEAAXQEBD_K@Z@4HA
	DD	imagerel ?dtor$0@?0???$_Construct@$01PEBD@?$basic_string@DU?$char_traits@D@std@@V?$allocator@D@2@@std@@AEAAXQEBD_K@Z@4HA+39
	DD	imagerel $unwind$?dtor$0@?0???$_Construct@$01PEBD@?$basic_string@DU?$char_traits@D@std@@V?$allocator@D@2@@std@@AEAAXQEBD_K@Z@4HA
pdata	ENDS
;	COMDAT pdata
pdata	SEGMENT
$pdata$??$addressof@V?$basic_ostream@DU?$char_traits@D@std@@@std@@@std@@YAPEAV?$basic_ostream@DU?$char_traits@D@std@@@0@AEAV10@@Z DD imagerel $LN4
	DD	imagerel $LN4+49
	DD	imagerel $unwind$??$addressof@V?$basic_ostream@DU?$char_traits@D@std@@@std@@@std@@YAPEAV?$basic_ostream@DU?$char_traits@D@std@@@0@AEAV10@@Z
pdata	ENDS
;	COMDAT pdata
pdata	SEGMENT
$pdata$??$_Unfancy@D@std@@YAPEADPEAD@Z DD imagerel $LN4
	DD	imagerel $LN4+49
	DD	imagerel $unwind$??$_Unfancy@D@std@@YAPEADPEAD@Z
pdata	ENDS
;	COMDAT pdata
pdata	SEGMENT
$pdata$??$_Destroy_in_place@PEAD@std@@YAXAEAPEAD@Z DD imagerel $LN4
	DD	imagerel $LN4+42
	DD	imagerel $unwind$??$_Destroy_in_place@PEAD@std@@YAXAEAPEAD@Z
pdata	ENDS
;	COMDAT pdata
pdata	SEGMENT
$pdata$??$max@_K@std@@YAAEB_KAEB_K0@Z DD imagerel $LN6
	DD	imagerel $LN6+120
	DD	imagerel $unwind$??$max@_K@std@@YAAEB_KAEB_K0@Z
pdata	ENDS
;	COMDAT pdata
pdata	SEGMENT
$pdata$??$_Deallocate@$0BA@@std@@YAXPEAX_K@Z DD imagerel $LN5
	DD	imagerel $LN5+100
	DD	imagerel $unwind$??$_Deallocate@$0BA@@std@@YAXPEAX_K@Z
pdata	ENDS
;	COMDAT pdata
pdata	SEGMENT
$pdata$??$_Insert_string@DU?$char_traits@D@std@@_K@std@@YAAEAV?$basic_ostream@DU?$char_traits@D@std@@@0@AEAV10@QEBD_K@Z DD imagerel $LN26
	DD	imagerel $LN26+924
	DD	imagerel $unwind$??$_Insert_string@DU?$char_traits@D@std@@_K@std@@YAAEAV?$basic_ostream@DU?$char_traits@D@std@@@0@AEAV10@QEBD_K@Z
pdata	ENDS
;	COMDAT pdata
pdata	SEGMENT
$pdata$?dtor$0@?0???$_Insert_string@DU?$char_traits@D@std@@_K@std@@YAAEAV?$basic_ostream@DU?$char_traits@D@std@@@0@AEAV10@QEBD_K@Z@4HA DD imagerel ?dtor$0@?0???$_Insert_string@DU?$char_traits@D@std@@_K@std@@YAAEAV?$basic_ostream@DU?$char_traits@D@std@@@0@AEAV10@QEBD_K@Z@4HA
	DD	imagerel ?dtor$0@?0???$_Insert_string@DU?$char_traits@D@std@@_K@std@@YAAEAV?$basic_ostream@DU?$char_traits@D@std@@@0@AEAV10@QEBD_K@Z@4HA+36
	DD	imagerel $unwind$?dtor$0@?0???$_Insert_string@DU?$char_traits@D@std@@_K@std@@YAAEAV?$basic_ostream@DU?$char_traits@D@std@@@0@AEAV10@QEBD_K@Z@4HA
pdata	ENDS
;	COMDAT pdata
pdata	SEGMENT
$pdata$?catch$1@?0???$_Insert_string@DU?$char_traits@D@std@@_K@std@@YAAEAV?$basic_ostream@DU?$char_traits@D@std@@@0@AEAV10@QEBD_K@Z@4HA DD imagerel ?catch$1@?0???$_Insert_string@DU?$char_traits@D@std@@_K@std@@YAAEAV?$basic_ostream@DU?$char_traits@D@std@@@0@AEAV10@QEBD_K@Z@4HA
	DD	imagerel ?catch$1@?0???$_Insert_string@DU?$char_traits@D@std@@_K@std@@YAAEAV?$basic_ostream@DU?$char_traits@D@std@@@0@AEAV10@QEBD_K@Z@4HA+80
	DD	imagerel $unwind$?catch$1@?0???$_Insert_string@DU?$char_traits@D@std@@_K@std@@YAAEAV?$basic_ostream@DU?$char_traits@D@std@@@0@AEAV10@QEBD_K@Z@4HA
pdata	ENDS
;	COMDAT pdata
pdata	SEGMENT
$pdata$??$_Deallocate_plain@V?$allocator@U_Container_proxy@std@@@std@@@std@@YAXAEAV?$allocator@U_Container_proxy@std@@@0@QEAU_Container_proxy@0@@Z DD imagerel $LN4
	DD	imagerel $LN4+73
	DD	imagerel $unwind$??$_Deallocate_plain@V?$allocator@U_Container_proxy@std@@@std@@@std@@YAXAEAV?$allocator@U_Container_proxy@std@@@0@QEAU_Container_proxy@0@@Z
pdata	ENDS
;	COMDAT pdata
pdata	SEGMENT
$pdata$??0?$_Container_proxy_ptr12@V?$allocator@U_Container_proxy@std@@@std@@@std@@QEAA@AEAV?$allocator@U_Container_proxy@std@@@1@AEAU_Container_base12@1@@Z DD imagerel $LN3
	DD	imagerel $LN3+187
	DD	imagerel $unwind$??0?$_Container_proxy_ptr12@V?$allocator@U_Container_proxy@std@@@std@@@std@@QEAA@AEAV?$allocator@U_Container_proxy@std@@@1@AEAU_Container_base12@1@@Z
pdata	ENDS
;	COMDAT pdata
pdata	SEGMENT
$pdata$??1?$_Container_proxy_ptr12@V?$allocator@U_Container_proxy@std@@@std@@@std@@QEAA@XZ DD imagerel $LN5
	DD	imagerel $LN5+82
	DD	imagerel $unwind$??1?$_Container_proxy_ptr12@V?$allocator@U_Container_proxy@std@@@std@@@std@@QEAA@XZ
pdata	ENDS
;	COMDAT pdata
pdata	SEGMENT
$pdata$??$_Unfancy@U_Container_proxy@std@@@std@@YAPEAU_Container_proxy@0@PEAU10@@Z DD imagerel $LN4
	DD	imagerel $LN4+49
	DD	imagerel $unwind$??$_Unfancy@U_Container_proxy@std@@@std@@YAPEAU_Container_proxy@0@PEAU10@@Z
pdata	ENDS
;	COMDAT pdata
pdata	SEGMENT
$pdata$??$_Allocate_for_capacity@$0A@@?$basic_string@DU?$char_traits@D@std@@V?$allocator@D@2@@std@@CAPEADAEAV?$allocator@D@1@AEA_K@Z DD imagerel $LN3
	DD	imagerel $LN3+128
	DD	imagerel $unwind$??$_Allocate_for_capacity@$0A@@?$basic_string@DU?$char_traits@D@std@@V?$allocator@D@2@@std@@CAPEADAEAV?$allocator@D@1@AEA_K@Z
pdata	ENDS
;	COMDAT pdata
pdata	SEGMENT
$pdata$??$_Construct_in_place@PEADAEBQEAD@std@@YAXAEAPEADAEBQEAD@Z DD imagerel $LN4
	DD	imagerel $LN4+99
	DD	imagerel $unwind$??$_Construct_in_place@PEADAEBQEAD@std@@YAXAEAPEADAEBQEAD@Z
pdata	ENDS
;	COMDAT pdata
pdata	SEGMENT
$pdata$??$addressof@PEAD@std@@YAPEAPEADAEAPEAD@Z DD imagerel $LN4
	DD	imagerel $LN4+49
	DD	imagerel $unwind$??$addressof@PEAD@std@@YAPEAPEADAEAPEAD@Z
pdata	ENDS
;	COMDAT pdata
pdata	SEGMENT
$pdata$??$_Get_size_of_n@$0BA@@std@@YA_K_K@Z DD imagerel $LN4
	DD	imagerel $LN4+93
	DD	imagerel $unwind$??$_Get_size_of_n@$0BA@@std@@YA_K_K@Z
pdata	ENDS
;	COMDAT pdata
pdata	SEGMENT
$pdata$??$_Allocate@$0BA@U_Default_allocate_traits@std@@@std@@YAPEAX_K@Z DD imagerel $LN5
	DD	imagerel $LN5+95
	DD	imagerel $unwind$??$_Allocate@$0BA@U_Default_allocate_traits@std@@@std@@YAPEAX_K@Z
pdata	ENDS
;	COMDAT pdata
pdata	SEGMENT
$pdata$??$addressof@U_Container_proxy@std@@@std@@YAPEAU_Container_proxy@0@AEAU10@@Z DD imagerel $LN4
	DD	imagerel $LN4+49
	DD	imagerel $unwind$??$addressof@U_Container_proxy@std@@@std@@YAPEAU_Container_proxy@0@AEAU10@@Z
pdata	ENDS
;	COMDAT pdata
pdata	SEGMENT
$pdata$?deallocate@?$_Default_allocator_traits@V?$allocator@U_Container_proxy@std@@@std@@@std@@SAXAEAV?$allocator@U_Container_proxy@std@@@2@QEAU_Container_proxy@2@_K@Z DD imagerel $LN3
	DD	imagerel $LN3+76
	DD	imagerel $unwind$?deallocate@?$_Default_allocator_traits@V?$allocator@U_Container_proxy@std@@@std@@@std@@SAXAEAV?$allocator@U_Container_proxy@std@@@2@QEAU_Container_proxy@2@_K@Z
pdata	ENDS
;	COMDAT pdata
pdata	SEGMENT
$pdata$??$_Allocate_at_least_helper@V?$allocator@D@std@@@std@@YAPEADAEAV?$allocator@D@0@AEA_K@Z DD imagerel $LN3
	DD	imagerel $LN3+69
	DD	imagerel $unwind$??$_Allocate_at_least_helper@V?$allocator@D@std@@@std@@YAPEADAEAV?$allocator@D@0@AEA_K@Z
pdata	ENDS
;	COMDAT pdata
pdata	SEGMENT
$pdata$??$_Allocate_manually_vector_aligned@U_Default_allocate_traits@std@@@std@@YAPEAX_K@Z DD imagerel $LN13
	DD	imagerel $LN13+280
	DD	imagerel $unwind$??$_Allocate_manually_vector_aligned@U_Default_allocate_traits@std@@@std@@YAPEAX_K@Z
pdata	ENDS
;	COMDAT pdata
pdata	SEGMENT
$pdata$??$_Get_size_of_n@$00@std@@YA_K_K@Z DD imagerel $LN3
	DD	imagerel $LN3+53
	DD	imagerel $unwind$??$_Get_size_of_n@$00@std@@YA_K_K@Z
pdata	ENDS
;	COMDAT rtc$TMZ
rtc$TMZ	SEGMENT
_RTC_Shutdown.rtc$TMZ DQ FLAT:_RTC_Shutdown
rtc$TMZ	ENDS
;	COMDAT rtc$IMZ
rtc$IMZ	SEGMENT
_RTC_InitBase.rtc$IMZ DQ FLAT:_RTC_InitBase
rtc$IMZ	ENDS
;	COMDAT ??_R4bad_alloc@std@@6B@
rdata$r	SEGMENT
??_R4bad_alloc@std@@6B@ DD 01H				; std::bad_alloc::`RTTI Complete Object Locator'
	DD	00H
	DD	00H
	DD	imagerel ??_R0?AVbad_alloc@std@@@8
	DD	imagerel ??_R3bad_alloc@std@@8
	DD	imagerel ??_R4bad_alloc@std@@6B@
rdata$r	ENDS
;	COMDAT ??_R2bad_alloc@std@@8
rdata$r	SEGMENT
??_R2bad_alloc@std@@8 DD imagerel ??_R1A@?0A@EA@bad_alloc@std@@8 ; std::bad_alloc::`RTTI Base Class Array'
	DD	imagerel ??_R1A@?0A@EA@exception@std@@8
	ORG $+3
rdata$r	ENDS
;	COMDAT ??_R3bad_alloc@std@@8
rdata$r	SEGMENT
??_R3bad_alloc@std@@8 DD 00H				; std::bad_alloc::`RTTI Class Hierarchy Descriptor'
	DD	00H
	DD	02H
	DD	imagerel ??_R2bad_alloc@std@@8
rdata$r	ENDS
;	COMDAT ??_R1A@?0A@EA@bad_alloc@std@@8
rdata$r	SEGMENT
??_R1A@?0A@EA@bad_alloc@std@@8 DD imagerel ??_R0?AVbad_alloc@std@@@8 ; std::bad_alloc::`RTTI Base Class Descriptor at (0,-1,0,64)'
	DD	01H
	DD	00H
	DD	0ffffffffH
	DD	00H
	DD	040H
	DD	imagerel ??_R3bad_alloc@std@@8
rdata$r	ENDS
;	COMDAT ??_R1A@?0A@EA@bad_array_new_length@std@@8
rdata$r	SEGMENT
??_R1A@?0A@EA@bad_array_new_length@std@@8 DD imagerel ??_R0?AVbad_array_new_length@std@@@8 ; std::bad_array_new_length::`RTTI Base Class Descriptor at (0,-1,0,64)'
	DD	02H
	DD	00H
	DD	0ffffffffH
	DD	00H
	DD	040H
	DD	imagerel ??_R3bad_array_new_length@std@@8
rdata$r	ENDS
;	COMDAT ??_R2bad_array_new_length@std@@8
rdata$r	SEGMENT
??_R2bad_array_new_length@std@@8 DD imagerel ??_R1A@?0A@EA@bad_array_new_length@std@@8 ; std::bad_array_new_length::`RTTI Base Class Array'
	DD	imagerel ??_R1A@?0A@EA@bad_alloc@std@@8
	DD	imagerel ??_R1A@?0A@EA@exception@std@@8
	ORG $+3
rdata$r	ENDS
;	COMDAT ??_R3bad_array_new_length@std@@8
rdata$r	SEGMENT
??_R3bad_array_new_length@std@@8 DD 00H			; std::bad_array_new_length::`RTTI Class Hierarchy Descriptor'
	DD	00H
	DD	03H
	DD	imagerel ??_R2bad_array_new_length@std@@8
rdata$r	ENDS
;	COMDAT ??_R4bad_array_new_length@std@@6B@
rdata$r	SEGMENT
??_R4bad_array_new_length@std@@6B@ DD 01H		; std::bad_array_new_length::`RTTI Complete Object Locator'
	DD	00H
	DD	00H
	DD	imagerel ??_R0?AVbad_array_new_length@std@@@8
	DD	imagerel ??_R3bad_array_new_length@std@@8
	DD	imagerel ??_R4bad_array_new_length@std@@6B@
rdata$r	ENDS
;	COMDAT ??_R1A@?0A@EA@exception@std@@8
rdata$r	SEGMENT
??_R1A@?0A@EA@exception@std@@8 DD imagerel ??_R0?AVexception@std@@@8 ; std::exception::`RTTI Base Class Descriptor at (0,-1,0,64)'
	DD	00H
	DD	00H
	DD	0ffffffffH
	DD	00H
	DD	040H
	DD	imagerel ??_R3exception@std@@8
rdata$r	ENDS
;	COMDAT ??_R2exception@std@@8
rdata$r	SEGMENT
??_R2exception@std@@8 DD imagerel ??_R1A@?0A@EA@exception@std@@8 ; std::exception::`RTTI Base Class Array'
	ORG $+3
rdata$r	ENDS
;	COMDAT ??_R3exception@std@@8
rdata$r	SEGMENT
??_R3exception@std@@8 DD 00H				; std::exception::`RTTI Class Hierarchy Descriptor'
	DD	00H
	DD	01H
	DD	imagerel ??_R2exception@std@@8
rdata$r	ENDS
;	COMDAT ??_R4exception@std@@6B@
rdata$r	SEGMENT
??_R4exception@std@@6B@ DD 01H				; std::exception::`RTTI Complete Object Locator'
	DD	00H
	DD	00H
	DD	imagerel ??_R0?AVexception@std@@@8
	DD	imagerel ??_R3exception@std@@8
	DD	imagerel ??_R4exception@std@@6B@
rdata$r	ENDS
;	COMDAT ??_C@_1BK@MHIKGOKE@?$AA?3?$AAA?$AAM?$AA?3?$AAa?$AAm?$AA?3?$AAP?$AAM?$AA?3?$AAp?$AAm@
CONST	SEGMENT
??_C@_1BK@MHIKGOKE@?$AA?3?$AAA?$AAM?$AA?3?$AAa?$AAm?$AA?3?$AAP?$AAM?$AA?3?$AAp?$AAm@ DB ':'
	DB	00H, 'A', 00H, 'M', 00H, ':', 00H, 'a', 00H, 'm', 00H, ':', 00H
	DB	'P', 00H, 'M', 00H, ':', 00H, 'p', 00H, 'm', 00H, 00H, 00H ; `string'
CONST	ENDS
;	COMDAT ??_C@_1HA@FACCKGGH@?$AA?$CC?$AAn?$AAu?$AAl?$AAl?$AA?5?$AAp?$AAo?$AAi?$AAn?$AAt?$AAe?$AAr?$AA?5?$AAc@
CONST	SEGMENT
??_C@_1HA@FACCKGGH@?$AA?$CC?$AAn?$AAu?$AAl?$AAl?$AA?5?$AAp?$AAo?$AAi?$AAn?$AAt?$AAe?$AAr?$AA?5?$AAc@ DB '"'
	DB	00H, 'n', 00H, 'u', 00H, 'l', 00H, 'l', 00H, ' ', 00H, 'p', 00H
	DB	'o', 00H, 'i', 00H, 'n', 00H, 't', 00H, 'e', 00H, 'r', 00H, ' '
	DB	00H, 'c', 00H, 'a', 00H, 'n', 00H, 'n', 00H, 'o', 00H, 't', 00H
	DB	' ', 00H, 'p', 00H, 'o', 00H, 'i', 00H, 'n', 00H, 't', 00H, ' '
	DB	00H, 't', 00H, 'o', 00H, ' ', 00H, 'a', 00H, ' ', 00H, 'b', 00H
	DB	'l', 00H, 'o', 00H, 'c', 00H, 'k', 00H, ' ', 00H, 'o', 00H, 'f'
	DB	00H, ' ', 00H, 'n', 00H, 'o', 00H, 'n', 00H, '-', 00H, 'z', 00H
	DB	'e', 00H, 'r', 00H, 'o', 00H, ' ', 00H, 's', 00H, 'i', 00H, 'z'
	DB	00H, 'e', 00H, '"', 00H, 00H, 00H		; `string'
CONST	ENDS
;	COMDAT ??_C@_0DG@KGHKKGBC@null?5pointer?5cannot?5point?5to?5a?5@
CONST	SEGMENT
??_C@_0DG@KGHKKGBC@null?5pointer?5cannot?5point?5to?5a?5@ DB 'null pointe'
	DB	'r cannot point to a block of non-zero size', 00H ; `string'
CONST	ENDS
;	COMDAT ??_C@_0N@LPFKKEBD@?3AM?3am?3PM?3pm@
CONST	SEGMENT
??_C@_0N@LPFKKEBD@?3AM?3am?3PM?3pm@ DB ':AM:am:PM:pm', 00H ; `string'
CONST	ENDS
;	COMDAT ??_C@_0BE@DIEKIPMK@?Q?e?c?n?d?m?$PP?5?D?e?m?$PM?5?o?n?a?e?d?$PL@
CONST	SEGMENT
??_C@_0BE@DIEKIPMK@?Q?e?c?n?d?m?$PP?5?D?e?m?$PM?5?o?n?a?e?d?$PL@ DB 0d1H, 0e5H
	DB	0e3H, 0eeH, 0e4H, 0edH, 0ffH, ' ', 0c4H, 0e5H, 0edH, 0fcH, ' ', 0efH
	DB	0eeH, 0e1H, 0e5H, 0e4H, 0fbH, 00H		; `string'
CONST	ENDS
;	COMDAT ??_C@_0BH@NDKAFKKG@?Q?e?c?n?d?m?$PP?5?O?p?$OA?g?d?m?h?j?5?r?p?s?d?$OA@
CONST	SEGMENT
??_C@_0BH@NDKAFKKG@?Q?e?c?n?d?m?$PP?5?O?p?$OA?g?d?m?h?j?5?r?p?s?d?$OA@ DB 0d1H
	DB	0e5H, 0e3H, 0eeH, 0e4H, 0edH, 0ffH, ' ', 0cfH, 0f0H, 0e0H, 0e7H
	DB	0e4H, 0edH, 0e8H, 0eaH, ' ', 0f2H, 0f0H, 0f3H, 0e4H, 0e0H, 00H ; `string'
CONST	ENDS
;	COMDAT ??_C@_0BC@OHKPBILE@?Q?e?c?n?d?m?$PP?5?M?n?b?$PL?i?5?c?n?d@
CONST	SEGMENT
??_C@_0BC@OHKPBILE@?Q?e?c?n?d?m?$PP?5?M?n?b?$PL?i?5?c?n?d@ DB 0d1H, 0e5H, 0e3H
	DB	0eeH, 0e4H, 0edH, 0ffH, ' ', 0cdH, 0eeH, 0e2H, 0fbH, 0e9H, ' ', 0e3H
	DB	0eeH, 0e4H, 00H				; `string'
CONST	ENDS
;	COMDAT ??_C@_0BE@NKIHDEP@?Q?e?c?n?d?m?$PP?5?D?e?m?$PM?5?f?e?m?y?h?m@
CONST	SEGMENT
??_C@_0BE@NKIHDEP@?Q?e?c?n?d?m?$PP?5?D?e?m?$PM?5?f?e?m?y?h?m@ DB 0d1H, 0e5H
	DB	0e3H, 0eeH, 0e4H, 0edH, 0ffH, ' ', 0c4H, 0e5H, 0edH, 0fcH, ' ', 0e6H
	DB	0e5H, 0edH, 0f9H, 0e8H, 0edH, 00H		; `string'
CONST	ENDS
;	COMDAT ??_C@_0CK@PGDIOOLL@?D?$OA?r?$OA?0?5?q?n?n?r?b?e?r?q?r?b?s?$PO?y?$OA?$PP?5?o?n?p?$PP?d?j?n?b?n@
CONST	SEGMENT
??_C@_0CK@PGDIOOLL@?D?$OA?r?$OA?0?5?q?n?n?r?b?e?r?q?r?b?s?$PO?y?$OA?$PP?5?o?n?p?$PP?d?j?n?b?n@ DB 0c4H
	DB	0e0H, 0f2H, 0e0H, ', ', 0f1H, 0eeH, 0eeH, 0f2H, 0e2H, 0e5H, 0f2H
	DB	0f1H, 0f2H, 0e2H, 0f3H, 0feH, 0f9H, 0e0H, 0ffH, ' ', 0efH, 0eeH
	DB	0f0H, 0ffH, 0e4H, 0eaH, 0eeH, 0e2H, 0eeH, 0ecH, 0f3H, ' ', 0edH
	DB	0eeH, 0ecH, 0e5H, 0f0H, 0f3H, ' ', 00H	; `string'
CONST	ENDS
;	COMDAT ??_C@_01CLKCMJKC@?5@
CONST	SEGMENT
??_C@_01CLKCMJKC@?5@ DB ' ', 00H			; `string'
CONST	ENDS
;	COMDAT ??_C@_0BC@LNFPJGKC@?M?e?o?p?$OA?b?h?k?$PM?m?$PL?i?5?d?e?m?$PM@
CONST	SEGMENT
??_C@_0BC@LNFPJGKC@?M?e?o?p?$OA?b?h?k?$PM?m?$PL?i?5?d?e?m?$PM@ DB 0cdH, 0e5H
	DB	0efH, 0f0H, 0e0H, 0e2H, 0e8H, 0ebH, 0fcH, 0edH, 0fbH, 0e9H, ' '
	DB	0e4H, 0e5H, 0edH, 0fcH, 00H			; `string'
CONST	ENDS
;	COMDAT ??_C@_0CE@KLJEFNFF@?B?b?e?d?h?r?e?5?o?n?p?$PP?d?j?n?b?$PL?i?5?m?n?l?e?p?5?d?m?$PP?5?c?n@
CONST	SEGMENT
??_C@_0CE@KLJEFNFF@?B?b?e?d?h?r?e?5?o?n?p?$PP?d?j?n?b?$PL?i?5?m?n?l?e?p?5?d?m?$PP?5?c?n@ DB 0c2H
	DB	0e2H, 0e5H, 0e4H, 0e8H, 0f2H, 0e5H, ' ', 0efH, 0eeH, 0f0H, 0ffH
	DB	0e4H, 0eaH, 0eeH, 0e2H, 0fbH, 0e9H, ' ', 0edH, 0eeH, 0ecH, 0e5H
	DB	0f0H, ' ', 0e4H, 0edH, 0ffH, ' ', 0e3H, 0eeH, 0e4H, 0e0H, ': ', 00H ; `string'
CONST	ENDS
;	COMDAT ??_C@_07ONJDPLPB@?L?e?q?$PP?v?3?5@
CONST	SEGMENT
??_C@_07ONJDPLPB@?L?e?q?$PP?v?3?5@ DB 0ccH, 0e5H, 0f1H, 0ffH, 0f6H, ': ', 00H ; `string'
CONST	ENDS
;	COMDAT ??_C@_0BF@CHFNCBJJ@?5?$CI?o?n?p?$PP?d?j?n?b?$PL?i?5?m?n?l?e?p?3?5@
CONST	SEGMENT
??_C@_0BF@CHFNCBJJ@?5?$CI?o?n?p?$PP?d?j?n?b?$PL?i?5?m?n?l?e?p?3?5@ DB ' ('
	DB	0efH, 0eeH, 0f0H, 0ffH, 0e4H, 0eaH, 0eeH, 0e2H, 0fbH, 0e9H, ' '
	DB	0edH, 0eeH, 0ecH, 0e5H, 0f0H, ': ', 00H	; `string'
CONST	ENDS
;	COMDAT ??_C@_01PKGAHCOL@?$CJ@
CONST	SEGMENT
??_C@_01PKGAHCOL@?$CJ@ DB ')', 00H			; `string'
CONST	ENDS
;	COMDAT ??_C@_0BH@JDCOJOJB@?D?m?e?i?5?d?n?5?d?m?$PP?5?p?n?f?d?e?m?h?$PP?3?5@
CONST	SEGMENT
??_C@_0BH@JDCOJOJB@?D?m?e?i?5?d?n?5?d?m?$PP?5?p?n?f?d?e?m?h?$PP?3?5@ DB 0c4H
	DB	0edH, 0e5H, 0e9H, ' ', 0e4H, 0eeH, ' ', 0e4H, 0edH, 0ffH, ' ', 0f0H
	DB	0eeH, 0e6H, 0e4H, 0e5H, 0edH, 0e8H, 0ffH, ': ', 00H ; `string'
CONST	ENDS
;	COMDAT ??_C@_0BD@LIFACDMA@?M?n?l?e?p?5?d?m?$PP?5?b?5?c?n?d?s?3?5@
CONST	SEGMENT
??_C@_0BD@LIFACDMA@?M?n?l?e?p?5?d?m?$PP?5?b?5?c?n?d?s?3?5@ DB 0cdH, 0eeH, 0ecH
	DB	0e5H, 0f0H, ' ', 0e4H, 0edH, 0ffH, ' ', 0e2H, ' ', 0e3H, 0eeH, 0e4H
	DB	0f3H, ': ', 00H				; `string'
CONST	ENDS
;	COMDAT ??_C@_0BL@POKJLFCK@?C?n?d?5?m?e?5?$PP?b?k?$PP?e?r?q?$PP?5?b?h?q?n?j?n?q?m?$PL?l@
CONST	SEGMENT
??_C@_0BL@POKJLFCK@?C?n?d?5?m?e?5?$PP?b?k?$PP?e?r?q?$PP?5?b?h?q?n?j?n?q?m?$PL?l@ DB 0c3H
	DB	0eeH, 0e4H, ' ', 0edH, 0e5H, ' ', 0ffH, 0e2H, 0ebH, 0ffH, 0e5H
	DB	0f2H, 0f1H, 0ffH, ' ', 0e2H, 0e8H, 0f1H, 0eeH, 0eaH, 0eeH, 0f1H
	DB	0edH, 0fbH, 0ecH, 00H			; `string'
CONST	ENDS
;	COMDAT ??_C@_0BI@EKNKLPIB@?C?n?d?5?$PP?b?k?$PP?e?r?q?$PP?5?b?h?q?n?j?n?q?m?$PL?l@
CONST	SEGMENT
??_C@_0BI@EKNKLPIB@?C?n?d?5?$PP?b?k?$PP?e?r?q?$PP?5?b?h?q?n?j?n?q?m?$PL?l@ DB 0c3H
	DB	0eeH, 0e4H, ' ', 0ffH, 0e2H, 0ebH, 0ffH, 0e5H, 0f2H, 0f1H, 0ffH
	DB	' ', 0e2H, 0e8H, 0f1H, 0eeH, 0eaH, 0eeH, 0f1H, 0edH, 0fbH, 0ecH
	DB	00H						; `string'
CONST	ENDS
;	COMDAT ??_C@_0BP@BGJIAHHA@?B?b?e?d?h?r?e?5?d?$OA?r?s?5?p?n?f?d?e?m?h?$PP?5?$CI?D?D?L?L?$CJ?3?5@
CONST	SEGMENT
??_C@_0BP@BGJIAHHA@?B?b?e?d?h?r?e?5?d?$OA?r?s?5?p?n?f?d?e?m?h?$PP?5?$CI?D?D?L?L?$CJ?3?5@ DB 0c2H
	DB	0e2H, 0e5H, 0e4H, 0e8H, 0f2H, 0e5H, ' ', 0e4H, 0e0H, 0f2H, 0f3H
	DB	' ', 0f0H, 0eeH, 0e6H, 0e4H, 0e5H, 0edH, 0e8H, 0ffH, ' (', 0c4H
	DB	0c4H, 0ccH, 0ccH, '): ', 00H			; `string'
CONST	ENDS
;	COMDAT ??_C@_0BL@DKDMJJAC@?N?x?h?a?j?$OA?3?5?m?e?j?n?p?p?e?j?r?m?$OA?$PP?5?d?$OA?r?$OA?4@
CONST	SEGMENT
??_C@_0BL@DKDMJJAC@?N?x?h?a?j?$OA?3?5?m?e?j?n?p?p?e?j?r?m?$OA?$PP?5?d?$OA?r?$OA?4@ DB 0ceH
	DB	0f8H, 0e8H, 0e1H, 0eaH, 0e0H, ': ', 0edH, 0e5H, 0eaH, 0eeH, 0f0H
	DB	0f0H, 0e5H, 0eaH, 0f2H, 0edH, 0e0H, 0ffH, ' ', 0e4H, 0e0H, 0f2H
	DB	0e0H, '.', 00H				; `string'
CONST	ENDS
;	COMDAT ??_C@_0BK@EKFAEONN@?B?b?e?d?h?r?e?5?d?$OA?r?s?5?$CI?D?D?L?L?C?C?C?C?$CJ?3?5@
CONST	SEGMENT
??_C@_0BK@EKFAEONN@?B?b?e?d?h?r?e?5?d?$OA?r?s?5?$CI?D?D?L?L?C?C?C?C?$CJ?3?5@ DB 0c2H
	DB	0e2H, 0e5H, 0e4H, 0e8H, 0f2H, 0e5H, ' ', 0e4H, 0e0H, 0f2H, 0f3H
	DB	' (', 0c4H, 0c4H, 0ccH, 0ccH, 0c3H, 0c3H, 0c3H, 0c3H, '): ', 00H ; `string'
CONST	ENDS
;	COMDAT ??_C@_07PEAPJBGG@Russian@
CONST	SEGMENT
??_C@_07PEAPJBGG@Russian@ DB 'Russian', 00H		; `string'
CONST	ENDS
;	COMDAT ??_C@_0P@IKOIBOPA@?M?e?b?e?p?m?$PL?i?5?l?e?q?$PP?v@
CONST	SEGMENT
??_C@_0P@IKOIBOPA@?M?e?b?e?p?m?$PL?i?5?l?e?q?$PP?v@ DB 0cdH, 0e5H, 0e2H, 0e5H
	DB	0f0H, 0edH, 0fbH, 0e9H, ' ', 0ecH, 0e5H, 0f1H, 0ffH, 0f6H, 00H ; `string'
CONST	ENDS
;	COMDAT ??_C@_07MJKMOEOM@?D?e?j?$OA?a?p?$PM@
CONST	SEGMENT
??_C@_07MJKMOEOM@?D?e?j?$OA?a?p?$PM@ DB 0c4H, 0e5H, 0eaH, 0e0H, 0e1H, 0f0H
	DB	0fcH, 00H					; `string'
CONST	ENDS
;	COMDAT ??_C@_06EKHNJIII@?M?n?$PP?a?p?$PM@
CONST	SEGMENT
??_C@_06EKHNJIII@?M?n?$PP?a?p?$PM@ DB 0cdH, 0eeH, 0ffH, 0e1H, 0f0H, 0fcH, 00H ; `string'
CONST	ENDS
;	COMDAT ??_C@_07KDBBAIGI@?N?j?r?$PP?a?p?$PM@
CONST	SEGMENT
??_C@_07KDBBAIGI@?N?j?r?$PP?a?p?$PM@ DB 0ceH, 0eaH, 0f2H, 0ffH, 0e1H, 0f0H
	DB	0fcH, 00H					; `string'
CONST	ENDS
;	COMDAT ??_C@_08ECPNNGFL@?Q?e?m?r?$PP?a?p?$PM@
CONST	SEGMENT
??_C@_08ECPNNGFL@?Q?e?m?r?$PP?a?p?$PM@ DB 0d1H, 0e5H, 0edH, 0f2H, 0ffH, 0e1H
	DB	0f0H, 0fcH, 00H				; `string'
CONST	ENDS
;	COMDAT ??_C@_06JMCJJLBN@?$MA?b?c?s?q?r@
CONST	SEGMENT
??_C@_06JMCJJLBN@?$MA?b?c?s?q?r@ DB 0c0H, 0e2H, 0e3H, 0f3H, 0f1H, 0f2H, 00H ; `string'
CONST	ENDS
;	COMDAT ??_C@_04JLLPFLJM@?H?$PO?k?$PM@
CONST	SEGMENT
??_C@_04JLLPFLJM@?H?$PO?k?$PM@ DB 0c8H, 0feH, 0ebH, 0fcH, 00H ; `string'
CONST	ENDS
;	COMDAT ??_C@_04JPDCCHCO@?H?$PO?m?$PM@
CONST	SEGMENT
??_C@_04JPDCCHCO@?H?$PO?m?$PM@ DB 0c8H, 0feH, 0edH, 0fcH, 00H ; `string'
CONST	ENDS
;	COMDAT ??_C@_03MEHOOJFI@?L?$OA?i@
CONST	SEGMENT
??_C@_03MEHOOJFI@?L?$OA?i@ DB 0ccH, 0e0H, 0e9H, 00H	; `string'
CONST	ENDS
;	COMDAT ??_C@_06PNLHGGPK@?$MA?o?p?e?k?$PM@
CONST	SEGMENT
??_C@_06PNLHGGPK@?$MA?o?p?e?k?$PM@ DB 0c0H, 0efH, 0f0H, 0e5H, 0ebH, 0fcH, 00H ; `string'
CONST	ENDS
;	COMDAT ??_C@_04FAAJLMOP@?L?$OA?p?r@
CONST	SEGMENT
??_C@_04FAAJLMOP@?L?$OA?p?r@ DB 0ccH, 0e0H, 0f0H, 0f2H, 00H ; `string'
CONST	ENDS
;	COMDAT ??_C@_07JBGLOLNM@?T?e?b?p?$OA?k?$PM@
CONST	SEGMENT
??_C@_07JBGLOLNM@?T?e?b?p?$OA?k?$PM@ DB 0d4H, 0e5H, 0e2H, 0f0H, 0e0H, 0ebH
	DB	0fcH, 00H					; `string'
CONST	ENDS
;	COMDAT ??_C@_06BMGEFDJH@?$NP?m?b?$OA?p?$PM@
CONST	SEGMENT
??_C@_06BMGEFDJH@?$NP?m?b?$OA?p?$PM@ DB 0dfH, 0edH, 0e2H, 0e0H, 0f0H, 0fcH
	DB	00H						; `string'
CONST	ENDS
;	COMDAT ??_C@_0GC@IDPJHLAK@C?3?2Program?5Files?2Microsoft?5Visu@
CONST	SEGMENT
??_C@_0GC@IDPJHLAK@C?3?2Program?5Files?2Microsoft?5Visu@ DB 'C:\Program F'
	DB	'iles\Microsoft Visual Studio\2022\Community\VC\Tools\MSVC\14.'
	DB	'42.34433\include\xlocnum', 00H		; `string'
CONST	ENDS
;	COMDAT ?__LINE__Var@?0??_Maklocwcs@std@@YAPEA_WPEB_W@Z@4JA
_DATA	SEGMENT
?__LINE__Var@?0??_Maklocwcs@std@@YAPEA_WPEB_W@Z@4JA DD 049H ; `std::_Maklocwcs'::`1'::__LINE__Var
_DATA	ENDS
;	COMDAT ??_C@_0GC@LEHJKL@C?3?2Program?5Files?2Microsoft?5Visu@
CONST	SEGMENT
??_C@_0GC@LEHJKL@C?3?2Program?5Files?2Microsoft?5Visu@ DB 'C:\Program Fil'
	DB	'es\Microsoft Visual Studio\2022\Community\VC\Tools\MSVC\14.42'
	DB	'.34433\include\xlocale', 00H		; `string'
CONST	ENDS
;	COMDAT ??_C@_02LMMGGCAJ@?3?5@
CONST	SEGMENT
??_C@_02LMMGGCAJ@?3?5@ DB ': ', 00H			; `string'
CONST	ENDS
;	COMDAT ??_C@_0BA@JFNIOLAK@string?5too?5long@
CONST	SEGMENT
??_C@_0BA@JFNIOLAK@string?5too?5long@ DB 'string too long', 00H ; `string'
CONST	ENDS
;	COMDAT ??_C@_1CG@JNLFBNGN@?$AA?$CC?$AAi?$AAn?$AAv?$AAa?$AAl?$AAi?$AAd?$AA?5?$AAa?$AAr?$AAg?$AAu?$AAm?$AAe@
CONST	SEGMENT
??_C@_1CG@JNLFBNGN@?$AA?$CC?$AAi?$AAn?$AAv?$AAa?$AAl?$AAi?$AAd?$AA?5?$AAa?$AAr?$AAg?$AAu?$AAm?$AAe@ DB '"'
	DB	00H, 'i', 00H, 'n', 00H, 'v', 00H, 'a', 00H, 'l', 00H, 'i', 00H
	DB	'd', 00H, ' ', 00H, 'a', 00H, 'r', 00H, 'g', 00H, 'u', 00H, 'm'
	DB	00H, 'e', 00H, 'n', 00H, 't', 00H, '"', 00H, 00H, 00H ; `string'
CONST	ENDS
;	COMDAT ??_C@_11LOCGONAA@@
CONST	SEGMENT
??_C@_11LOCGONAA@@ DB 00H, 00H				; `string'
CONST	ENDS
;	COMDAT ??_C@_1ME@NMPKGKJL@?$AAC?$AA?3?$AA?2?$AAP?$AAr?$AAo?$AAg?$AAr?$AAa?$AAm?$AA?5?$AAF?$AAi?$AAl?$AAe@
CONST	SEGMENT
??_C@_1ME@NMPKGKJL@?$AAC?$AA?3?$AA?2?$AAP?$AAr?$AAo?$AAg?$AAr?$AAa?$AAm?$AA?5?$AAF?$AAi?$AAl?$AAe@ DB 'C'
	DB	00H, ':', 00H, '\', 00H, 'P', 00H, 'r', 00H, 'o', 00H, 'g', 00H
	DB	'r', 00H, 'a', 00H, 'm', 00H, ' ', 00H, 'F', 00H, 'i', 00H, 'l'
	DB	00H, 'e', 00H, 's', 00H, '\', 00H, 'M', 00H, 'i', 00H, 'c', 00H
	DB	'r', 00H, 'o', 00H, 's', 00H, 'o', 00H, 'f', 00H, 't', 00H, ' '
	DB	00H, 'V', 00H, 'i', 00H, 's', 00H, 'u', 00H, 'a', 00H, 'l', 00H
	DB	' ', 00H, 'S', 00H, 't', 00H, 'u', 00H, 'd', 00H, 'i', 00H, 'o'
	DB	00H, '\', 00H, '2', 00H, '0', 00H, '2', 00H, '2', 00H, '\', 00H
	DB	'C', 00H, 'o', 00H, 'm', 00H, 'm', 00H, 'u', 00H, 'n', 00H, 'i'
	DB	00H, 't', 00H, 'y', 00H, '\', 00H, 'V', 00H, 'C', 00H, '\', 00H
	DB	'T', 00H, 'o', 00H, 'o', 00H, 'l', 00H, 's', 00H, '\', 00H, 'M'
	DB	00H, 'S', 00H, 'V', 00H, 'C', 00H, '\', 00H, '1', 00H, '4', 00H
	DB	'.', 00H, '4', 00H, '2', 00H, '.', 00H, '3', 00H, '4', 00H, '4'
	DB	00H, '3', 00H, '3', 00H, '\', 00H, 'i', 00H, 'n', 00H, 'c', 00H
	DB	'l', 00H, 'u', 00H, 'd', 00H, 'e', 00H, '\', 00H, 'x', 00H, 'm'
	DB	00H, 'e', 00H, 'm', 00H, 'o', 00H, 'r', 00H, 'y', 00H, 00H, 00H ; `string'
CONST	ENDS
;	COMDAT ??_C@_0GC@KIHIELAM@C?3?2Program?5Files?2Microsoft?5Visu@
CONST	SEGMENT
??_C@_0GC@KIHIELAM@C?3?2Program?5Files?2Microsoft?5Visu@ DB 'C:\Program F'
	DB	'iles\Microsoft Visual Studio\2022\Community\VC\Tools\MSVC\14.'
	DB	'42.34433\include\xmemory', 00H		; `string'
CONST	ENDS
;	COMDAT ??_C@_02DKCKIIND@?$CFs@
CONST	SEGMENT
??_C@_02DKCKIIND@?$CFs@ DB '%s', 00H			; `string'
CONST	ENDS
;	COMDAT ??_C@_0BB@FCMFBGOM@invalid?5argument@
CONST	SEGMENT
??_C@_0BB@FCMFBGOM@invalid?5argument@ DB 'invalid argument', 00H ; `string'
CONST	ENDS
;	COMDAT ?__LINE__Var@?0??_Adjust_manually_vector_aligned@std@@YAXAEAPEAXAEA_K@Z@4JA
_DATA	SEGMENT
?__LINE__Var@?0??_Adjust_manually_vector_aligned@std@@YAXAEAPEAXAEA_K@Z@4JA DD 0a9H ; `std::_Adjust_manually_vector_aligned'::`1'::__LINE__Var
_DATA	ENDS
;	COMDAT _CT??_R0?AVbad_alloc@std@@@8??0bad_alloc@std@@QEAA@AEBV01@@Z24
xdata$x	SEGMENT
_CT??_R0?AVbad_alloc@std@@@8??0bad_alloc@std@@QEAA@AEBV01@@Z24 DD 010H
	DD	imagerel ??_R0?AVbad_alloc@std@@@8
	DD	00H
	DD	0ffffffffH
	ORG $+4
	DD	018H
	DD	imagerel ??0bad_alloc@std@@QEAA@AEBV01@@Z
xdata$x	ENDS
;	COMDAT ??_R0?AVbad_alloc@std@@@8
data$r	SEGMENT
??_R0?AVbad_alloc@std@@@8 DQ FLAT:??_7type_info@@6B@	; std::bad_alloc `RTTI Type Descriptor'
	DQ	0000000000000000H
	DB	'.?AVbad_alloc@std@@', 00H
data$r	ENDS
;	COMDAT _CT??_R0?AVbad_array_new_length@std@@@8??0bad_array_new_length@std@@QEAA@AEBV01@@Z24
xdata$x	SEGMENT
_CT??_R0?AVbad_array_new_length@std@@@8??0bad_array_new_length@std@@QEAA@AEBV01@@Z24 DD 00H
	DD	imagerel ??_R0?AVbad_array_new_length@std@@@8
	DD	00H
	DD	0ffffffffH
	ORG $+4
	DD	018H
	DD	imagerel ??0bad_array_new_length@std@@QEAA@AEBV01@@Z
xdata$x	ENDS
;	COMDAT ??_R0?AVbad_array_new_length@std@@@8
data$r	SEGMENT
??_R0?AVbad_array_new_length@std@@@8 DQ FLAT:??_7type_info@@6B@ ; std::bad_array_new_length `RTTI Type Descriptor'
	DQ	0000000000000000H
	DB	'.?AVbad_array_new_length@std@@', 00H
data$r	ENDS
;	COMDAT _CTA3?AVbad_array_new_length@std@@
xdata$x	SEGMENT
_CTA3?AVbad_array_new_length@std@@ DD 03H
	DD	imagerel _CT??_R0?AVbad_array_new_length@std@@@8??0bad_array_new_length@std@@QEAA@AEBV01@@Z24
	DD	imagerel _CT??_R0?AVbad_alloc@std@@@8??0bad_alloc@std@@QEAA@AEBV01@@Z24
	DD	imagerel _CT??_R0?AVexception@std@@@8??0exception@std@@QEAA@AEBV01@@Z24
xdata$x	ENDS
;	COMDAT _TI3?AVbad_array_new_length@std@@
xdata$x	SEGMENT
_TI3?AVbad_array_new_length@std@@ DD 00H
	DD	imagerel ??1bad_array_new_length@std@@UEAA@XZ
	DD	00H
	DD	imagerel _CTA3?AVbad_array_new_length@std@@
xdata$x	ENDS
;	COMDAT _CT??_R0?AVexception@std@@@8??0exception@std@@QEAA@AEBV01@@Z24
xdata$x	SEGMENT
_CT??_R0?AVexception@std@@@8??0exception@std@@QEAA@AEBV01@@Z24 DD 00H
	DD	imagerel ??_R0?AVexception@std@@@8
	DD	00H
	DD	0ffffffffH
	ORG $+4
	DD	018H
	DD	imagerel ??0exception@std@@QEAA@AEBV01@@Z
xdata$x	ENDS
;	COMDAT ??_R0?AVexception@std@@@8
data$r	SEGMENT
??_R0?AVexception@std@@@8 DQ FLAT:??_7type_info@@6B@	; std::exception `RTTI Type Descriptor'
	DQ	0000000000000000H
	DB	'.?AVexception@std@@', 00H
data$r	ENDS
;	COMDAT ??_C@_0BF@KINCDENJ@bad?5array?5new?5length@
CONST	SEGMENT
??_C@_0BF@KINCDENJ@bad?5array?5new?5length@ DB 'bad array new length', 00H ; `string'
CONST	ENDS
;	COMDAT ??_7bad_array_new_length@std@@6B@
CONST	SEGMENT
??_7bad_array_new_length@std@@6B@ DQ FLAT:??_R4bad_array_new_length@std@@6B@ ; std::bad_array_new_length::`vftable'
	DQ	FLAT:??_Ebad_array_new_length@std@@UEAAPEAXI@Z
	DQ	FLAT:?what@exception@std@@UEBAPEBDXZ
CONST	ENDS
;	COMDAT ??_7bad_alloc@std@@6B@
CONST	SEGMENT
??_7bad_alloc@std@@6B@ DQ FLAT:??_R4bad_alloc@std@@6B@	; std::bad_alloc::`vftable'
	DQ	FLAT:??_Ebad_alloc@std@@UEAAPEAXI@Z
	DQ	FLAT:?what@exception@std@@UEBAPEBDXZ
CONST	ENDS
;	COMDAT ??_C@_0BC@EOODALEL@Unknown?5exception@
CONST	SEGMENT
??_C@_0BC@EOODALEL@Unknown?5exception@ DB 'Unknown exception', 00H ; `string'
CONST	ENDS
;	COMDAT ??_7exception@std@@6B@
CONST	SEGMENT
??_7exception@std@@6B@ DQ FLAT:??_R4exception@std@@6B@	; std::exception::`vftable'
	DQ	FLAT:??_Eexception@std@@UEAAPEAXI@Z
	DQ	FLAT:?what@exception@std@@UEBAPEBDXZ
CONST	ENDS
;	COMDAT xdata
xdata	SEGMENT
$unwind$??$_Get_size_of_n@$00@std@@YA_K_K@Z DD 025051301H
	DD	010e2313H
	DD	070070021H
	DD	05006H
xdata	ENDS
;	COMDAT xdata
xdata	SEGMENT
$unwind$??$_Allocate_manually_vector_aligned@U_Default_allocate_traits@std@@@std@@YAPEAX_K@Z DD 035051301H
	DD	010e3313H
	DD	07007002bH
	DD	05006H
xdata	ENDS
;	COMDAT xdata
xdata	SEGMENT
$unwind$??$_Allocate_at_least_helper@V?$allocator@D@std@@@std@@YAPEADAEAV?$allocator@D@0@AEA_K@Z DD 025051801H
	DD	01132318H
	DD	0700c001dH
	DD	0500bH
xdata	ENDS
;	COMDAT xdata
xdata	SEGMENT
$unwind$?deallocate@?$_Default_allocator_traits@V?$allocator@U_Container_proxy@std@@@std@@@std@@SAXAEAV?$allocator@U_Container_proxy@std@@@2@QEAU_Container_proxy@2@_K@Z DD 025051d01H
	DD	0118231dH
	DD	07011001dH
	DD	05010H
xdata	ENDS
;	COMDAT xdata
xdata	SEGMENT
$unwind$??$addressof@U_Container_proxy@std@@@std@@YAPEAU_Container_proxy@0@AEAU10@@Z DD 025051301H
	DD	010e2313H
	DD	07007001dH
	DD	05006H
xdata	ENDS
;	COMDAT xdata
xdata	SEGMENT
$unwind$??$_Allocate@$0BA@U_Default_allocate_traits@std@@@std@@YAPEAX_K@Z DD 025051301H
	DD	010e2313H
	DD	07007001dH
	DD	05006H
xdata	ENDS
;	COMDAT xdata
xdata	SEGMENT
$unwind$??$_Get_size_of_n@$0BA@@std@@YA_K_K@Z DD 025051301H
	DD	010e2313H
	DD	070070025H
	DD	05006H
xdata	ENDS
;	COMDAT xdata
xdata	SEGMENT
$unwind$??$addressof@PEAD@std@@YAPEAPEADAEAPEAD@Z DD 025051301H
	DD	010e2313H
	DD	07007001dH
	DD	05006H
xdata	ENDS
;	COMDAT xdata
xdata	SEGMENT
$unwind$??$_Construct_in_place@PEADAEBQEAD@std@@YAXAEAPEADAEBQEAD@Z DD 025051801H
	DD	01132318H
	DD	0700c0021H
	DD	0500bH
xdata	ENDS
;	COMDAT xdata
xdata	SEGMENT
$unwind$??$_Allocate_for_capacity@$0A@@?$basic_string@DU?$char_traits@D@std@@V?$allocator@D@2@@std@@CAPEADAEAV?$allocator@D@1@AEA_K@Z DD 025051801H
	DD	01132318H
	DD	0700c0021H
	DD	0500bH
xdata	ENDS
;	COMDAT xdata
xdata	SEGMENT
$unwind$??$_Unfancy@U_Container_proxy@std@@@std@@YAPEAU_Container_proxy@0@PEAU10@@Z DD 025051301H
	DD	010e2313H
	DD	07007001dH
	DD	05006H
xdata	ENDS
;	COMDAT xdata
xdata	SEGMENT
$unwind$??1?$_Container_proxy_ptr12@V?$allocator@U_Container_proxy@std@@@std@@@std@@QEAA@XZ DD 025051301H
	DD	010e2313H
	DD	07007001dH
	DD	05006H
xdata	ENDS
;	COMDAT xdata
xdata	SEGMENT
$unwind$??0?$_Container_proxy_ptr12@V?$allocator@U_Container_proxy@std@@@std@@@std@@QEAA@AEAV?$allocator@U_Container_proxy@std@@@1@AEAU_Container_base12@1@@Z DD 025051d01H
	DD	0118231dH
	DD	070110021H
	DD	05010H
xdata	ENDS
;	COMDAT xdata
xdata	SEGMENT
$ip2state$??$_Deallocate_plain@V?$allocator@U_Container_proxy@std@@@std@@@std@@YAXAEAV?$allocator@U_Container_proxy@std@@@0@QEAU_Container_proxy@0@@Z DB 02H
	DB	00H
	DB	00H
xdata	ENDS
;	COMDAT xdata
xdata	SEGMENT
$cppxdata$??$_Deallocate_plain@V?$allocator@U_Container_proxy@std@@@std@@@std@@YAXAEAV?$allocator@U_Container_proxy@std@@@0@QEAU_Container_proxy@0@@Z DB 060H
	DD	imagerel $ip2state$??$_Deallocate_plain@V?$allocator@U_Container_proxy@std@@@std@@@std@@YAXAEAV?$allocator@U_Container_proxy@std@@@0@QEAU_Container_proxy@0@@Z
xdata	ENDS
;	COMDAT xdata
xdata	SEGMENT
$unwind$??$_Deallocate_plain@V?$allocator@U_Container_proxy@std@@@std@@@std@@YAXAEAV?$allocator@U_Container_proxy@std@@@0@QEAU_Container_proxy@0@@Z DD 025051819H
	DD	01132318H
	DD	0700c001dH
	DD	0500bH
	DD	imagerel __CxxFrameHandler4
	DD	imagerel $cppxdata$??$_Deallocate_plain@V?$allocator@U_Container_proxy@std@@@std@@@std@@YAXAEAV?$allocator@U_Container_proxy@std@@@0@QEAU_Container_proxy@0@@Z
xdata	ENDS
;	COMDAT voltbl
voltbl	SEGMENT
_volmd	DB	00H
	DB	05H
voltbl	ENDS
;	COMDAT voltbl
voltbl	SEGMENT
_volmd	DB	00H
	DB	05H
voltbl	ENDS
;	COMDAT voltbl
voltbl	SEGMENT
_volmd	DW	040H
	DW	0383H
voltbl	ENDS
;	COMDAT xdata
xdata	SEGMENT
$unwind$?catch$1@?0???$_Insert_string@DU?$char_traits@D@std@@_K@std@@YAAEAV?$basic_ostream@DU?$char_traits@D@std@@@0@AEAV10@QEBD_K@Z@4HA DD 031001H
	DD	0700c4210H
	DD	0500bH
xdata	ENDS
;	COMDAT xdata
xdata	SEGMENT
$unwind$?dtor$0@?0???$_Insert_string@DU?$char_traits@D@std@@_K@std@@YAAEAV?$basic_ostream@DU?$char_traits@D@std@@@0@AEAV10@QEBD_K@Z@4HA DD 031001H
	DD	0700c4210H
	DD	0500bH
xdata	ENDS
;	COMDAT xdata
xdata	SEGMENT
$ip2state$??$_Insert_string@DU?$char_traits@D@std@@_K@std@@YAAEAV?$basic_ostream@DU?$char_traits@D@std@@@0@AEAV10@QEBD_K@Z DB 0aH
	DB	00H
	DB	00H
	DB	0edH, 03H
	DB	02H
	DB	'<'
	DB	04H
	DB	'%', 08H
	DB	02H
	DB	'v'
	DB	00H
xdata	ENDS
;	COMDAT xdata
xdata	SEGMENT
$handlerMap$??$_Insert_string@DU?$char_traits@D@std@@_K@std@@YAAEAV?$basic_ostream@DU?$char_traits@D@std@@@0@AEAV10@QEBD_K@Z DB 02H
	DB	01H
	DB	080H
	DD	imagerel ?catch$1@?0???$_Insert_string@DU?$char_traits@D@std@@_K@std@@YAAEAV?$basic_ostream@DU?$char_traits@D@std@@@0@AEAV10@QEBD_K@Z@4HA
xdata	ENDS
;	COMDAT xdata
xdata	SEGMENT
$tryMap$??$_Insert_string@DU?$char_traits@D@std@@_K@std@@YAAEAV?$basic_ostream@DU?$char_traits@D@std@@@0@AEAV10@QEBD_K@Z DB 02H
	DB	02H
	DB	02H
	DB	04H
	DD	imagerel $handlerMap$??$_Insert_string@DU?$char_traits@D@std@@_K@std@@YAAEAV?$basic_ostream@DU?$char_traits@D@std@@@0@AEAV10@QEBD_K@Z
xdata	ENDS
;	COMDAT xdata
xdata	SEGMENT
$stateUnwindMap$??$_Insert_string@DU?$char_traits@D@std@@_K@std@@YAAEAV?$basic_ostream@DU?$char_traits@D@std@@@0@AEAV10@QEBD_K@Z DB 06H
	DB	0eH
	DD	imagerel ?dtor$0@?0???$_Insert_string@DU?$char_traits@D@std@@_K@std@@YAAEAV?$basic_ostream@DU?$char_traits@D@std@@@0@AEAV10@QEBD_K@Z@4HA
	DB	028H
	DB	030H
xdata	ENDS
;	COMDAT xdata
xdata	SEGMENT
$cppxdata$??$_Insert_string@DU?$char_traits@D@std@@_K@std@@YAAEAV?$basic_ostream@DU?$char_traits@D@std@@@0@AEAV10@QEBD_K@Z DB 038H
	DD	imagerel $stateUnwindMap$??$_Insert_string@DU?$char_traits@D@std@@_K@std@@YAAEAV?$basic_ostream@DU?$char_traits@D@std@@@0@AEAV10@QEBD_K@Z
	DD	imagerel $tryMap$??$_Insert_string@DU?$char_traits@D@std@@_K@std@@YAAEAV?$basic_ostream@DU?$char_traits@D@std@@@0@AEAV10@QEBD_K@Z
	DD	imagerel $ip2state$??$_Insert_string@DU?$char_traits@D@std@@_K@std@@YAAEAV?$basic_ostream@DU?$char_traits@D@std@@@0@AEAV10@QEBD_K@Z
xdata	ENDS
;	COMDAT xdata
xdata	SEGMENT
$unwind$??$_Insert_string@DU?$char_traits@D@std@@_K@std@@YAAEAV?$basic_ostream@DU?$char_traits@D@std@@@0@AEAV10@QEBD_K@Z DD 025054719H
	DD	0118231dH
	DD	070110031H
	DD	05010H
	DD	imagerel __GSHandlerCheck_EH4
	DD	imagerel $cppxdata$??$_Insert_string@DU?$char_traits@D@std@@_K@std@@YAAEAV?$basic_ostream@DU?$char_traits@D@std@@@0@AEAV10@QEBD_K@Z
	DD	0173H
xdata	ENDS
;	COMDAT CONST
CONST	SEGMENT
??$_Insert_string@DU?$char_traits@D@std@@_K@std@@YAAEAV?$basic_ostream@DU?$char_traits@D@std@@@0@AEAV10@QEBD_K@Z$rtcName$0 DB 05fH ; std::_Insert_string<char,std::char_traits<char>,unsigned __int64>
	DB	04fH
	DB	06bH
	DB	00H
	ORG $+12
??$_Insert_string@DU?$char_traits@D@std@@_K@std@@YAAEAV?$basic_ostream@DU?$char_traits@D@std@@@0@AEAV10@QEBD_K@Z$rtcVarDesc DD 068H ; std::_Insert_string<char,std::char_traits<char>,unsigned __int64>
	DD	010H
	DQ	FLAT:??$_Insert_string@DU?$char_traits@D@std@@_K@std@@YAAEAV?$basic_ostream@DU?$char_traits@D@std@@@0@AEAV10@QEBD_K@Z$rtcName$0
	ORG $+48
??$_Insert_string@DU?$char_traits@D@std@@_K@std@@YAAEAV?$basic_ostream@DU?$char_traits@D@std@@@0@AEAV10@QEBD_K@Z$rtcFrameData DD 01H ; std::_Insert_string<char,std::char_traits<char>,unsigned __int64>
	DD	00H
	DQ	FLAT:??$_Insert_string@DU?$char_traits@D@std@@_K@std@@YAAEAV?$basic_ostream@DU?$char_traits@D@std@@@0@AEAV10@QEBD_K@Z$rtcVarDesc
CONST	ENDS
;	COMDAT xdata
xdata	SEGMENT
$ip2state$??$_Deallocate@$0BA@@std@@YAXPEAX_K@Z DB 02H
	DB	00H
	DB	00H
xdata	ENDS
;	COMDAT xdata
xdata	SEGMENT
$cppxdata$??$_Deallocate@$0BA@@std@@YAXPEAX_K@Z DB 060H
	DD	imagerel $ip2state$??$_Deallocate@$0BA@@std@@YAXPEAX_K@Z
xdata	ENDS
;	COMDAT xdata
xdata	SEGMENT
$unwind$??$_Deallocate@$0BA@@std@@YAXPEAX_K@Z DD 025051819H
	DD	01132318H
	DD	0700c001dH
	DD	0500bH
	DD	imagerel __CxxFrameHandler4
	DD	imagerel $cppxdata$??$_Deallocate@$0BA@@std@@YAXPEAX_K@Z
xdata	ENDS
;	COMDAT xdata
xdata	SEGMENT
$unwind$??$max@_K@std@@YAAEB_KAEB_K0@Z DD 025051801H
	DD	01132318H
	DD	0700c0021H
	DD	0500bH
xdata	ENDS
;	COMDAT xdata
xdata	SEGMENT
$unwind$??$_Destroy_in_place@PEAD@std@@YAXAEAPEAD@Z DD 025051301H
	DD	010e2313H
	DD	07007001dH
	DD	05006H
xdata	ENDS
;	COMDAT xdata
xdata	SEGMENT
$unwind$??$_Unfancy@D@std@@YAPEADPEAD@Z DD 025051301H
	DD	010e2313H
	DD	07007001dH
	DD	05006H
xdata	ENDS
;	COMDAT xdata
xdata	SEGMENT
$unwind$??$addressof@V?$basic_ostream@DU?$char_traits@D@std@@@std@@@std@@YAPEAV?$basic_ostream@DU?$char_traits@D@std@@@0@AEAV10@@Z DD 025051301H
	DD	010e2313H
	DD	07007001dH
	DD	05006H
xdata	ENDS
;	COMDAT voltbl
voltbl	SEGMENT
_volmd	DB	00H
	DB	05H
voltbl	ENDS
;	COMDAT voltbl
voltbl	SEGMENT
_volmd	DW	040H
	DW	01ebH
voltbl	ENDS
;	COMDAT xdata
xdata	SEGMENT
$unwind$?dtor$0@?0???$_Construct@$01PEBD@?$basic_string@DU?$char_traits@D@std@@V?$allocator@D@2@@std@@AEAAXQEBD_K@Z@4HA DD 031001H
	DD	0700c4210H
	DD	0500bH
xdata	ENDS
;	COMDAT xdata
xdata	SEGMENT
$ip2state$??$_Construct@$01PEBD@?$basic_string@DU?$char_traits@D@std@@V?$allocator@D@2@@std@@AEAAXQEBD_K@Z DB 0aH
	DB	00H
	DB	00H
	DB	0d1H, 02H
	DB	02H
	DB	0a0H
	DB	00H
	DB	'$'
	DB	02H
	DB	0e1H, 02H
	DB	00H
xdata	ENDS
;	COMDAT xdata
xdata	SEGMENT
$stateUnwindMap$??$_Construct@$01PEBD@?$basic_string@DU?$char_traits@D@std@@V?$allocator@D@2@@std@@AEAAXQEBD_K@Z DB 02H
	DB	0eH
	DD	imagerel ?dtor$0@?0???$_Construct@$01PEBD@?$basic_string@DU?$char_traits@D@std@@V?$allocator@D@2@@std@@AEAAXQEBD_K@Z@4HA
xdata	ENDS
;	COMDAT xdata
xdata	SEGMENT
$cppxdata$??$_Construct@$01PEBD@?$basic_string@DU?$char_traits@D@std@@V?$allocator@D@2@@std@@AEAAXQEBD_K@Z DB 028H
	DD	imagerel $stateUnwindMap$??$_Construct@$01PEBD@?$basic_string@DU?$char_traits@D@std@@V?$allocator@D@2@@std@@AEAAXQEBD_K@Z
	DD	imagerel $ip2state$??$_Construct@$01PEBD@?$basic_string@DU?$char_traits@D@std@@V?$allocator@D@2@@std@@AEAAXQEBD_K@Z
xdata	ENDS
;	COMDAT xdata
xdata	SEGMENT
$unwind$??$_Construct@$01PEBD@?$basic_string@DU?$char_traits@D@std@@V?$allocator@D@2@@std@@AEAAXQEBD_K@Z DD 025054719H
	DD	0118231dH
	DD	07011003dH
	DD	05010H
	DD	imagerel __GSHandlerCheck_EH4
	DD	imagerel $cppxdata$??$_Construct@$01PEBD@?$basic_string@DU?$char_traits@D@std@@V?$allocator@D@2@@std@@AEAAXQEBD_K@Z
	DD	01d2H
xdata	ENDS
;	COMDAT CONST
CONST	SEGMENT
??$_Construct@$01PEBD@?$basic_string@DU?$char_traits@D@std@@V?$allocator@D@2@@std@@AEAAXQEBD_K@Z$rtcName$0 DB 024H ; std::basic_string<char,std::char_traits<char>,std::allocator<char> >::_Construct<2,char const *>
	DB	053H
	DB	031H
	DB	031H
	DB	00H
	ORG $+3
??$_Construct@$01PEBD@?$basic_string@DU?$char_traits@D@std@@V?$allocator@D@2@@std@@AEAAXQEBD_K@Z$rtcName$1 DB 05fH ; std::basic_string<char,std::char_traits<char>,std::allocator<char> >::_Construct<2,char const *>
	DB	050H
	DB	072H
	DB	06fH
	DB	078H
	DB	079H
	DB	00H
	ORG $+1
??$_Construct@$01PEBD@?$basic_string@DU?$char_traits@D@std@@V?$allocator@D@2@@std@@AEAAXQEBD_K@Z$rtcName$2 DB 05fH ; std::basic_string<char,std::char_traits<char>,std::allocator<char> >::_Construct<2,char const *>
	DB	04eH
	DB	065H
	DB	077H
	DB	05fH
	DB	063H
	DB	061H
	DB	070H
	DB	061H
	DB	063H
	DB	069H
	DB	074H
	DB	079H
	DB	00H
	ORG $+2
??$_Construct@$01PEBD@?$basic_string@DU?$char_traits@D@std@@V?$allocator@D@2@@std@@AEAAXQEBD_K@Z$rtcName$3 DB 05fH ; std::basic_string<char,std::char_traits<char>,std::allocator<char> >::_Construct<2,char const *>
	DB	04eH
	DB	065H
	DB	077H
	DB	05fH
	DB	070H
	DB	074H
	DB	072H
	DB	00H
	ORG $+7
??$_Construct@$01PEBD@?$basic_string@DU?$char_traits@D@std@@V?$allocator@D@2@@std@@AEAAXQEBD_K@Z$rtcVarDesc DD 0f8H ; std::basic_string<char,std::char_traits<char>,std::allocator<char> >::_Construct<2,char const *>
	DD	08H
	DQ	FLAT:??$_Construct@$01PEBD@?$basic_string@DU?$char_traits@D@std@@V?$allocator@D@2@@std@@AEAAXQEBD_K@Z$rtcName$3
	DD	0d8H
	DD	08H
	DQ	FLAT:??$_Construct@$01PEBD@?$basic_string@DU?$char_traits@D@std@@V?$allocator@D@2@@std@@AEAAXQEBD_K@Z$rtcName$2
	DD	0a8H
	DD	010H
	DQ	FLAT:??$_Construct@$01PEBD@?$basic_string@DU?$char_traits@D@std@@V?$allocator@D@2@@std@@AEAAXQEBD_K@Z$rtcName$1
	DD	084H
	DD	01H
	DQ	FLAT:??$_Construct@$01PEBD@?$basic_string@DU?$char_traits@D@std@@V?$allocator@D@2@@std@@AEAAXQEBD_K@Z$rtcName$0
	ORG $+192
??$_Construct@$01PEBD@?$basic_string@DU?$char_traits@D@std@@V?$allocator@D@2@@std@@AEAAXQEBD_K@Z$rtcFrameData DD 04H ; std::basic_string<char,std::char_traits<char>,std::allocator<char> >::_Construct<2,char const *>
	DD	00H
	DQ	FLAT:??$_Construct@$01PEBD@?$basic_string@DU?$char_traits@D@std@@V?$allocator@D@2@@std@@AEAAXQEBD_K@Z$rtcVarDesc
CONST	ENDS
;	COMDAT voltbl
voltbl	SEGMENT
_volmd	DB	00H
	DB	05H
voltbl	ENDS
;	COMDAT voltbl
voltbl	SEGMENT
_volmd	DW	040H
	DW	022dH
voltbl	ENDS
;	COMDAT xdata
xdata	SEGMENT
$unwind$?dtor$0@?0???$_Construct@$00PEBD@?$basic_string@DU?$char_traits@D@std@@V?$allocator@D@2@@std@@AEAAXQEBD_K@Z@4HA DD 031001H
	DD	0700c4210H
	DD	0500bH
xdata	ENDS
;	COMDAT xdata
xdata	SEGMENT
$ip2state$??$_Construct@$00PEBD@?$basic_string@DU?$char_traits@D@std@@V?$allocator@D@2@@std@@AEAAXQEBD_K@Z DB 0aH
	DB	00H
	DB	00H
	DB	0d1H, 02H
	DB	02H
	DB	0f8H
	DB	00H
	DB	'$'
	DB	02H
	DB	'9', 03H
	DB	00H
xdata	ENDS
;	COMDAT xdata
xdata	SEGMENT
$stateUnwindMap$??$_Construct@$00PEBD@?$basic_string@DU?$char_traits@D@std@@V?$allocator@D@2@@std@@AEAAXQEBD_K@Z DB 02H
	DB	0eH
	DD	imagerel ?dtor$0@?0???$_Construct@$00PEBD@?$basic_string@DU?$char_traits@D@std@@V?$allocator@D@2@@std@@AEAAXQEBD_K@Z@4HA
xdata	ENDS
;	COMDAT xdata
xdata	SEGMENT
$cppxdata$??$_Construct@$00PEBD@?$basic_string@DU?$char_traits@D@std@@V?$allocator@D@2@@std@@AEAAXQEBD_K@Z DB 028H
	DD	imagerel $stateUnwindMap$??$_Construct@$00PEBD@?$basic_string@DU?$char_traits@D@std@@V?$allocator@D@2@@std@@AEAAXQEBD_K@Z
	DD	imagerel $ip2state$??$_Construct@$00PEBD@?$basic_string@DU?$char_traits@D@std@@V?$allocator@D@2@@std@@AEAAXQEBD_K@Z
xdata	ENDS
;	COMDAT xdata
xdata	SEGMENT
$unwind$??$_Construct@$00PEBD@?$basic_string@DU?$char_traits@D@std@@V?$allocator@D@2@@std@@AEAAXQEBD_K@Z DD 025054719H
	DD	0118231dH
	DD	070110043H
	DD	05010H
	DD	imagerel __GSHandlerCheck_EH4
	DD	imagerel $cppxdata$??$_Construct@$00PEBD@?$basic_string@DU?$char_traits@D@std@@V?$allocator@D@2@@std@@AEAAXQEBD_K@Z
	DD	020aH
xdata	ENDS
;	COMDAT CONST
CONST	SEGMENT
??$_Construct@$00PEBD@?$basic_string@DU?$char_traits@D@std@@V?$allocator@D@2@@std@@AEAAXQEBD_K@Z$rtcName$0 DB 024H ; std::basic_string<char,std::char_traits<char>,std::allocator<char> >::_Construct<1,char const *>
	DB	053H
	DB	031H
	DB	030H
	DB	00H
	ORG $+3
??$_Construct@$00PEBD@?$basic_string@DU?$char_traits@D@std@@V?$allocator@D@2@@std@@AEAAXQEBD_K@Z$rtcName$1 DB 05fH ; std::basic_string<char,std::char_traits<char>,std::allocator<char> >::_Construct<1,char const *>
	DB	050H
	DB	072H
	DB	06fH
	DB	078H
	DB	079H
	DB	00H
	ORG $+1
??$_Construct@$00PEBD@?$basic_string@DU?$char_traits@D@std@@V?$allocator@D@2@@std@@AEAAXQEBD_K@Z$rtcName$2 DB 05fH ; std::basic_string<char,std::char_traits<char>,std::allocator<char> >::_Construct<1,char const *>
	DB	04eH
	DB	065H
	DB	077H
	DB	05fH
	DB	063H
	DB	061H
	DB	070H
	DB	061H
	DB	063H
	DB	069H
	DB	074H
	DB	079H
	DB	00H
	ORG $+2
??$_Construct@$00PEBD@?$basic_string@DU?$char_traits@D@std@@V?$allocator@D@2@@std@@AEAAXQEBD_K@Z$rtcName$3 DB 05fH ; std::basic_string<char,std::char_traits<char>,std::allocator<char> >::_Construct<1,char const *>
	DB	04eH
	DB	065H
	DB	077H
	DB	05fH
	DB	070H
	DB	074H
	DB	072H
	DB	00H
	ORG $+7
??$_Construct@$00PEBD@?$basic_string@DU?$char_traits@D@std@@V?$allocator@D@2@@std@@AEAAXQEBD_K@Z$rtcVarDesc DD 0f8H ; std::basic_string<char,std::char_traits<char>,std::allocator<char> >::_Construct<1,char const *>
	DD	08H
	DQ	FLAT:??$_Construct@$00PEBD@?$basic_string@DU?$char_traits@D@std@@V?$allocator@D@2@@std@@AEAAXQEBD_K@Z$rtcName$3
	DD	0d8H
	DD	08H
	DQ	FLAT:??$_Construct@$00PEBD@?$basic_string@DU?$char_traits@D@std@@V?$allocator@D@2@@std@@AEAAXQEBD_K@Z$rtcName$2
	DD	0a8H
	DD	010H
	DQ	FLAT:??$_Construct@$00PEBD@?$basic_string@DU?$char_traits@D@std@@V?$allocator@D@2@@std@@AEAAXQEBD_K@Z$rtcName$1
	DD	084H
	DD	01H
	DQ	FLAT:??$_Construct@$00PEBD@?$basic_string@DU?$char_traits@D@std@@V?$allocator@D@2@@std@@AEAAXQEBD_K@Z$rtcName$0
	ORG $+192
??$_Construct@$00PEBD@?$basic_string@DU?$char_traits@D@std@@V?$allocator@D@2@@std@@AEAAXQEBD_K@Z$rtcFrameData DD 04H ; std::basic_string<char,std::char_traits<char>,std::allocator<char> >::_Construct<1,char const *>
	DD	00H
	DQ	FLAT:??$_Construct@$00PEBD@?$basic_string@DU?$char_traits@D@std@@V?$allocator@D@2@@std@@AEAAXQEBD_K@Z$rtcVarDesc
CONST	ENDS
;	COMDAT xdata
xdata	SEGMENT
$unwind$??$?0$$V@?$_Compressed_pair@V?$allocator@D@std@@V?$_String_val@U?$_Simple_types@D@std@@@2@$00@std@@QEAA@U_Zero_then_variadic_args_t@1@@Z DD 025051701H
	DD	01122317H
	DD	0700b001dH
	DD	0500aH
xdata	ENDS
;	COMDAT xdata
xdata	SEGMENT
$unwind$??$?0V?$allocator@D@std@@$$V@?$_Compressed_pair@V?$allocator@D@std@@V?$_String_val@U?$_Simple_types@D@std@@@2@$00@std@@QEAA@U_One_then_variadic_args_t@1@$$QEAV?$allocator@D@1@@Z DD 025051c01H
	DD	0117231cH
	DD	07010001dH
	DD	0500fH
xdata	ENDS
;	COMDAT xdata
xdata	SEGMENT
$unwind$??$?0D@?$allocator@U_Container_proxy@std@@@std@@QEAA@AEBV?$allocator@D@1@@Z DD 025051801H
	DD	01132318H
	DD	0700c001dH
	DD	0500bH
xdata	ENDS
;	COMDAT xdata
xdata	SEGMENT
$unwind$??$_Convert_size@_K_K@std@@YA_K_K@Z DD 025051301H
	DD	010e2313H
	DD	07007001dH
	DD	05006H
xdata	ENDS
;	COMDAT xdata
xdata	SEGMENT
$unwind$??$_Delete_plain_internal@V?$allocator@U_Container_proxy@std@@@std@@@std@@YAXAEAV?$allocator@U_Container_proxy@std@@@0@QEAU_Container_proxy@0@@Z DD 025051801H
	DD	01132318H
	DD	0700c001dH
	DD	0500bH
xdata	ENDS
;	COMDAT xdata
xdata	SEGMENT
$unwind$?allocate@?$allocator@U_Container_proxy@std@@@std@@QEAAPEAU_Container_proxy@2@_K@Z DD 025051801H
	DD	01132318H
	DD	0700c001dH
	DD	0500bH
xdata	ENDS
;	COMDAT xdata
xdata	SEGMENT
$unwind$??$min@_K@std@@YAAEB_KAEB_K0@Z DD 025051801H
	DD	01132318H
	DD	0700c0021H
	DD	0500bH
xdata	ENDS
;	COMDAT xdata
xdata	SEGMENT
$unwind$??Bsentry@?$basic_ostream@DU?$char_traits@D@std@@@std@@QEBA_NXZ DD 025051301H
	DD	010e2313H
	DD	07007001dH
	DD	05006H
xdata	ENDS
;	COMDAT xdata
xdata	SEGMENT
$unwind$??1sentry@?$basic_ostream@DU?$char_traits@D@std@@@std@@QEAA@XZ DD 025051301H
	DD	010e2313H
	DD	070070021H
	DD	05006H
xdata	ENDS
;	COMDAT voltbl
voltbl	SEGMENT
_volmd	DB	00H
	DB	05H
voltbl	ENDS
;	COMDAT xdata
xdata	SEGMENT
$unwind$?dtor$0@?0???0sentry@?$basic_ostream@DU?$char_traits@D@std@@@std@@QEAA@AEAV12@@Z@4HA DD 031001H
	DD	0700c4210H
	DD	0500bH
xdata	ENDS
;	COMDAT xdata
xdata	SEGMENT
$ip2state$??0sentry@?$basic_ostream@DU?$char_traits@D@std@@@std@@QEAA@AEAV12@@Z DB 06H
	DB	00H
	DB	00H
	DB	'r'
	DB	02H
	DB	09H, 03H
	DB	00H
xdata	ENDS
;	COMDAT xdata
xdata	SEGMENT
$stateUnwindMap$??0sentry@?$basic_ostream@DU?$char_traits@D@std@@@std@@QEAA@AEAV12@@Z DB 02H
	DB	0eH
	DD	imagerel ?dtor$0@?0???0sentry@?$basic_ostream@DU?$char_traits@D@std@@@std@@QEAA@AEAV12@@Z@4HA
xdata	ENDS
;	COMDAT xdata
xdata	SEGMENT
$cppxdata$??0sentry@?$basic_ostream@DU?$char_traits@D@std@@@std@@QEAA@AEAV12@@Z DB 028H
	DD	imagerel $stateUnwindMap$??0sentry@?$basic_ostream@DU?$char_traits@D@std@@@std@@QEAA@AEAV12@@Z
	DD	imagerel $ip2state$??0sentry@?$basic_ostream@DU?$char_traits@D@std@@@std@@QEAA@AEAV12@@Z
xdata	ENDS
;	COMDAT xdata
xdata	SEGMENT
$unwind$??0sentry@?$basic_ostream@DU?$char_traits@D@std@@@std@@QEAA@AEAV12@@Z DD 025051811H
	DD	01132318H
	DD	0700c0021H
	DD	0500bH
	DD	imagerel __CxxFrameHandler4
	DD	imagerel $cppxdata$??0sentry@?$basic_ostream@DU?$char_traits@D@std@@@std@@QEAA@AEAV12@@Z
xdata	ENDS
;	COMDAT xdata
xdata	SEGMENT
$ip2state$??1_Sentry_base@?$basic_ostream@DU?$char_traits@D@std@@@std@@QEAA@XZ DB 02H
	DB	00H
	DB	00H
xdata	ENDS
;	COMDAT xdata
xdata	SEGMENT
$cppxdata$??1_Sentry_base@?$basic_ostream@DU?$char_traits@D@std@@@std@@QEAA@XZ DB 060H
	DD	imagerel $ip2state$??1_Sentry_base@?$basic_ostream@DU?$char_traits@D@std@@@std@@QEAA@XZ
xdata	ENDS
;	COMDAT xdata
xdata	SEGMENT
$unwind$??1_Sentry_base@?$basic_ostream@DU?$char_traits@D@std@@@std@@QEAA@XZ DD 025051319H
	DD	010e2313H
	DD	070070021H
	DD	05006H
	DD	imagerel __CxxFrameHandler4
	DD	imagerel $cppxdata$??1_Sentry_base@?$basic_ostream@DU?$char_traits@D@std@@@std@@QEAA@XZ
xdata	ENDS
;	COMDAT xdata
xdata	SEGMENT
$unwind$??0_Sentry_base@?$basic_ostream@DU?$char_traits@D@std@@@std@@QEAA@AEAV12@@Z DD 025051801H
	DD	01132318H
	DD	0700c0021H
	DD	0500bH
xdata	ENDS
;	COMDAT xdata
xdata	SEGMENT
$unwind$??$?6DU?$char_traits@D@std@@V?$allocator@D@1@@std@@YAAEAV?$basic_ostream@DU?$char_traits@D@std@@@0@AEAV10@AEBV?$basic_string@DU?$char_traits@D@std@@V?$allocator@D@2@@0@@Z DD 025051801H
	DD	01132318H
	DD	0700c001fH
	DD	0500bH
xdata	ENDS
;	COMDAT xdata
xdata	SEGMENT
$unwind$??$endl@DU?$char_traits@D@std@@@std@@YAAEAV?$basic_ostream@DU?$char_traits@D@std@@@0@AEAV10@@Z DD 025051301H
	DD	010e2313H
	DD	07007001dH
	DD	05006H
xdata	ENDS
;	COMDAT voltbl
voltbl	SEGMENT
_volmd	DB	00H
	DB	05H
voltbl	ENDS
;	COMDAT voltbl
voltbl	SEGMENT
_volmd	DB	00H
	DB	05H
voltbl	ENDS
;	COMDAT voltbl
voltbl	SEGMENT
_volmd	DW	03bH
	DW	0398H
voltbl	ENDS
;	COMDAT xdata
xdata	SEGMENT
$unwind$?catch$1@?0???$?6U?$char_traits@D@std@@@std@@YAAEAV?$basic_ostream@DU?$char_traits@D@std@@@0@AEAV10@PEBD@Z@4HA DD 031001H
	DD	0700c4210H
	DD	0500bH
xdata	ENDS
;	COMDAT xdata
xdata	SEGMENT
$unwind$?dtor$0@?0???$?6U?$char_traits@D@std@@@std@@YAAEAV?$basic_ostream@DU?$char_traits@D@std@@@0@AEAV10@PEBD@Z@4HA DD 031001H
	DD	0700c4210H
	DD	0500bH
xdata	ENDS
;	COMDAT xdata
xdata	SEGMENT
$ip2state$??$?6U?$char_traits@D@std@@@std@@YAAEAV?$basic_ostream@DU?$char_traits@D@std@@@0@AEAV10@PEBD@Z DB 0aH
	DB	00H
	DB	00H
	DB	'E', 04H
	DB	02H
	DB	'<'
	DB	04H
	DB	'!', 08H
	DB	02H
	DB	'v'
	DB	00H
xdata	ENDS
;	COMDAT xdata
xdata	SEGMENT
$handlerMap$??$?6U?$char_traits@D@std@@@std@@YAAEAV?$basic_ostream@DU?$char_traits@D@std@@@0@AEAV10@PEBD@Z DB 02H
	DB	01H
	DB	080H
	DD	imagerel ?catch$1@?0???$?6U?$char_traits@D@std@@@std@@YAAEAV?$basic_ostream@DU?$char_traits@D@std@@@0@AEAV10@PEBD@Z@4HA
xdata	ENDS
;	COMDAT xdata
xdata	SEGMENT
$tryMap$??$?6U?$char_traits@D@std@@@std@@YAAEAV?$basic_ostream@DU?$char_traits@D@std@@@0@AEAV10@PEBD@Z DB 02H
	DB	02H
	DB	02H
	DB	04H
	DD	imagerel $handlerMap$??$?6U?$char_traits@D@std@@@std@@YAAEAV?$basic_ostream@DU?$char_traits@D@std@@@0@AEAV10@PEBD@Z
xdata	ENDS
;	COMDAT xdata
xdata	SEGMENT
$stateUnwindMap$??$?6U?$char_traits@D@std@@@std@@YAAEAV?$basic_ostream@DU?$char_traits@D@std@@@0@AEAV10@PEBD@Z DB 06H
	DB	0eH
	DD	imagerel ?dtor$0@?0???$?6U?$char_traits@D@std@@@std@@YAAEAV?$basic_ostream@DU?$char_traits@D@std@@@0@AEAV10@PEBD@Z@4HA
	DB	028H
	DB	030H
xdata	ENDS
;	COMDAT xdata
xdata	SEGMENT
$cppxdata$??$?6U?$char_traits@D@std@@@std@@YAAEAV?$basic_ostream@DU?$char_traits@D@std@@@0@AEAV10@PEBD@Z DB 038H
	DD	imagerel $stateUnwindMap$??$?6U?$char_traits@D@std@@@std@@YAAEAV?$basic_ostream@DU?$char_traits@D@std@@@0@AEAV10@PEBD@Z
	DD	imagerel $tryMap$??$?6U?$char_traits@D@std@@@std@@YAAEAV?$basic_ostream@DU?$char_traits@D@std@@@0@AEAV10@PEBD@Z
	DD	imagerel $ip2state$??$?6U?$char_traits@D@std@@@std@@YAAEAV?$basic_ostream@DU?$char_traits@D@std@@@0@AEAV10@PEBD@Z
xdata	ENDS
;	COMDAT xdata
xdata	SEGMENT
$unwind$??$?6U?$char_traits@D@std@@@std@@YAAEAV?$basic_ostream@DU?$char_traits@D@std@@@0@AEAV10@PEBD@Z DD 025054219H
	DD	01132318H
	DD	0700c0035H
	DD	0500bH
	DD	imagerel __GSHandlerCheck_EH4
	DD	imagerel $cppxdata$??$?6U?$char_traits@D@std@@@std@@YAAEAV?$basic_ostream@DU?$char_traits@D@std@@@0@AEAV10@PEBD@Z
	DD	0193H
xdata	ENDS
;	COMDAT CONST
CONST	SEGMENT
??$?6U?$char_traits@D@std@@@std@@YAAEAV?$basic_ostream@DU?$char_traits@D@std@@@0@AEAV10@PEBD@Z$rtcName$0 DB 05fH ; std::operator<<<std::char_traits<char> >
	DB	04fH
	DB	06bH
	DB	00H
	ORG $+12
??$?6U?$char_traits@D@std@@@std@@YAAEAV?$basic_ostream@DU?$char_traits@D@std@@@0@AEAV10@PEBD@Z$rtcVarDesc DD 088H ; std::operator<<<std::char_traits<char> >
	DD	010H
	DQ	FLAT:??$?6U?$char_traits@D@std@@@std@@YAAEAV?$basic_ostream@DU?$char_traits@D@std@@@0@AEAV10@PEBD@Z$rtcName$0
	ORG $+48
??$?6U?$char_traits@D@std@@@std@@YAAEAV?$basic_ostream@DU?$char_traits@D@std@@@0@AEAV10@PEBD@Z$rtcFrameData DD 01H ; std::operator<<<std::char_traits<char> >
	DD	00H
	DQ	FLAT:??$?6U?$char_traits@D@std@@@std@@YAAEAV?$basic_ostream@DU?$char_traits@D@std@@@0@AEAV10@PEBD@Z$rtcVarDesc
CONST	ENDS
;	COMDAT voltbl
voltbl	SEGMENT
_volmd	DB	00H
	DB	05H
voltbl	ENDS
;	COMDAT voltbl
voltbl	SEGMENT
_volmd	DB	00H
	DB	05H
voltbl	ENDS
;	COMDAT voltbl
voltbl	SEGMENT
_volmd	DW	02aH
	DW	08f1H
voltbl	ENDS
;	COMDAT xdata
xdata	SEGMENT
$unwind$main$dtor$1 DD 031001H
	DD	0700c4210H
	DD	0500bH
xdata	ENDS
;	COMDAT xdata
xdata	SEGMENT
$unwind$main$dtor$0 DD 031001H
	DD	0700c4210H
	DD	0500bH
xdata	ENDS
;	COMDAT xdata
xdata	SEGMENT
$ip2state$main DB 0aH
	DB	00H
	DB	00H
	DB	'a', 015H
	DB	02H
	DB	0baH
	DB	00H
	DB	081H, 03H
	DB	04H
	DB	'5', 02H
	DB	00H
xdata	ENDS
;	COMDAT xdata
xdata	SEGMENT
$stateUnwindMap$main DB 04H
	DB	0eH
	DD	imagerel main$dtor$0
	DB	036H
	DD	imagerel main$dtor$1
xdata	ENDS
;	COMDAT xdata
xdata	SEGMENT
$cppxdata$main DB 028H
	DD	imagerel $stateUnwindMap$main
	DD	imagerel $ip2state$main
xdata	ENDS
;	COMDAT xdata
xdata	SEGMENT
$unwind$main DD	025053119H
	DD	010a230fH
	DD	07003007fH
	DD	05002H
	DD	imagerel __GSHandlerCheck_EH4
	DD	imagerel $cppxdata$main
	DD	03eaH
xdata	ENDS
;	COMDAT CONST
CONST	SEGMENT
main$rtcName$0 DB 064H
	DB	061H
	DB	074H
	DB	065H
	DB	00H
	ORG $+3
main$rtcName$1 DB 062H
	DB	069H
	DB	072H
	DB	074H
	DB	068H
	DB	064H
	DB	061H
	DB	074H
	DB	065H
	DB	00H
	ORG $+6
main$rtcName$2 DB 064H
	DB	061H
	DB	079H
	DB	04fH
	DB	066H
	DB	059H
	DB	065H
	DB	061H
	DB	072H
	DB	049H
	DB	06eH
	DB	070H
	DB	075H
	DB	074H
	DB	00H
	ORG $+1
main$rtcName$3 DB 072H
	DB	065H
	DB	073H
	DB	075H
	DB	06cH
	DB	074H
	DB	044H
	DB	061H
	DB	079H
	DB	00H
	ORG $+6
main$rtcName$4 DB 072H
	DB	065H
	DB	073H
	DB	075H
	DB	06cH
	DB	074H
	DB	04dH
	DB	06fH
	DB	06eH
	DB	074H
	DB	068H
	DB	00H
	ORG $+12
main$rtcVarDesc DD 01c4H
	DD	04H
	DQ	FLAT:main$rtcName$4
	DD	01a4H
	DD	04H
	DQ	FLAT:main$rtcName$3
	DD	0184H
	DD	04H
	DQ	FLAT:main$rtcName$2
	DD	0a4H
	DD	04H
	DQ	FLAT:main$rtcName$1
	DD	084H
	DD	04H
	DQ	FLAT:main$rtcName$0
	ORG $+240
main$rtcFrameData DD 05H
	DD	00H
	DQ	FLAT:main$rtcVarDesc
CONST	ENDS
;	COMDAT xdata
xdata	SEGMENT
$unwind$?getDateFromDayOfYear@@YAXHHAEAH0@Z DD 025053801H
	DD	011b2320H
	DD	070140027H
	DD	05013H
xdata	ENDS
;	COMDAT CONST
CONST	SEGMENT
?getDateFromDayOfYear@@YAXHHAEAH0@Z$rtcName$0 DB 064H	; getDateFromDayOfYear
	DB	061H
	DB	079H
	DB	073H
	DB	049H
	DB	06eH
	DB	04dH
	DB	06fH
	DB	06eH
	DB	074H
	DB	068H
	DB	00H
	ORG $+4
?getDateFromDayOfYear@@YAXHHAEAH0@Z$rtcVarDesc DD 028H	; getDateFromDayOfYear
	DD	030H
	DQ	FLAT:?getDateFromDayOfYear@@YAXHHAEAH0@Z$rtcName$0
	ORG $+48
?getDateFromDayOfYear@@YAXHHAEAH0@Z$rtcFrameData DD 01H	; getDateFromDayOfYear
	DD	00H
	DQ	FLAT:?getDateFromDayOfYear@@YAXHHAEAH0@Z$rtcVarDesc
CONST	ENDS
;	COMDAT voltbl
voltbl	SEGMENT
_volmd	DB	00H
	DB	05H
voltbl	ENDS
;	COMDAT voltbl
voltbl	SEGMENT
_volmd	DB	00H
	DB	05H
voltbl	ENDS
;	COMDAT voltbl
voltbl	SEGMENT
_volmd	DB	00H
	DB	05H
voltbl	ENDS
;	COMDAT voltbl
voltbl	SEGMENT
_volmd	DB	00H
	DB	05H
voltbl	ENDS
;	COMDAT voltbl
voltbl	SEGMENT
_volmd	DB	00H
	DB	05H
voltbl	ENDS
;	COMDAT voltbl
voltbl	SEGMENT
_volmd	DB	00H
	DB	05H
voltbl	ENDS
;	COMDAT voltbl
voltbl	SEGMENT
_volmd	DB	00H
	DB	05H
voltbl	ENDS
;	COMDAT voltbl
voltbl	SEGMENT
_volmd	DB	00H
	DB	05H
voltbl	ENDS
;	COMDAT voltbl
voltbl	SEGMENT
_volmd	DB	00H
	DB	05H
voltbl	ENDS
;	COMDAT voltbl
voltbl	SEGMENT
_volmd	DB	00H
	DB	05H
voltbl	ENDS
;	COMDAT voltbl
voltbl	SEGMENT
_volmd	DB	00H
	DB	05H
voltbl	ENDS
;	COMDAT voltbl
voltbl	SEGMENT
_volmd	DB	00H
	DB	05H
voltbl	ENDS
;	COMDAT voltbl
voltbl	SEGMENT
_volmd	DB	00H
	DB	05H
voltbl	ENDS
;	COMDAT voltbl
voltbl	SEGMENT
_volmd	DW	03aH
	DW	0202H
voltbl	ENDS
;	COMDAT xdata
xdata	SEGMENT
$unwind$?dtor$13@?0??getMonthName@@YA?AV?$basic_string@DU?$char_traits@D@std@@V?$allocator@D@2@@std@@H@Z@4HA DD 031001H
	DD	0700c4210H
	DD	0500bH
xdata	ENDS
;	COMDAT xdata
xdata	SEGMENT
$unwind$?dtor$12@?0??getMonthName@@YA?AV?$basic_string@DU?$char_traits@D@std@@V?$allocator@D@2@@std@@H@Z@4HA DD 031001H
	DD	0700c4210H
	DD	0500bH
xdata	ENDS
;	COMDAT xdata
xdata	SEGMENT
$unwind$?dtor$10@?0??getMonthName@@YA?AV?$basic_string@DU?$char_traits@D@std@@V?$allocator@D@2@@std@@H@Z@4HA DD 031001H
	DD	0700c4210H
	DD	0500bH
xdata	ENDS
;	COMDAT xdata
xdata	SEGMENT
$unwind$?dtor$9@?0??getMonthName@@YA?AV?$basic_string@DU?$char_traits@D@std@@V?$allocator@D@2@@std@@H@Z@4HA DD 031001H
	DD	0700c4210H
	DD	0500bH
xdata	ENDS
;	COMDAT xdata
xdata	SEGMENT
$unwind$?dtor$8@?0??getMonthName@@YA?AV?$basic_string@DU?$char_traits@D@std@@V?$allocator@D@2@@std@@H@Z@4HA DD 031001H
	DD	0700c4210H
	DD	0500bH
xdata	ENDS
;	COMDAT xdata
xdata	SEGMENT
$unwind$?dtor$7@?0??getMonthName@@YA?AV?$basic_string@DU?$char_traits@D@std@@V?$allocator@D@2@@std@@H@Z@4HA DD 031001H
	DD	0700c4210H
	DD	0500bH
xdata	ENDS
;	COMDAT xdata
xdata	SEGMENT
$unwind$?dtor$6@?0??getMonthName@@YA?AV?$basic_string@DU?$char_traits@D@std@@V?$allocator@D@2@@std@@H@Z@4HA DD 031001H
	DD	0700c4210H
	DD	0500bH
xdata	ENDS
;	COMDAT xdata
xdata	SEGMENT
$unwind$?dtor$5@?0??getMonthName@@YA?AV?$basic_string@DU?$char_traits@D@std@@V?$allocator@D@2@@std@@H@Z@4HA DD 031001H
	DD	0700c4210H
	DD	0500bH
xdata	ENDS
;	COMDAT xdata
xdata	SEGMENT
$unwind$?dtor$4@?0??getMonthName@@YA?AV?$basic_string@DU?$char_traits@D@std@@V?$allocator@D@2@@std@@H@Z@4HA DD 031001H
	DD	0700c4210H
	DD	0500bH
xdata	ENDS
;	COMDAT xdata
xdata	SEGMENT
$unwind$?dtor$3@?0??getMonthName@@YA?AV?$basic_string@DU?$char_traits@D@std@@V?$allocator@D@2@@std@@H@Z@4HA DD 031001H
	DD	0700c4210H
	DD	0500bH
xdata	ENDS
;	COMDAT xdata
xdata	SEGMENT
$unwind$?dtor$2@?0??getMonthName@@YA?AV?$basic_string@DU?$char_traits@D@std@@V?$allocator@D@2@@std@@H@Z@4HA DD 031001H
	DD	0700c4210H
	DD	0500bH
xdata	ENDS
;	COMDAT xdata
xdata	SEGMENT
$unwind$?dtor$1@?0??getMonthName@@YA?AV?$basic_string@DU?$char_traits@D@std@@V?$allocator@D@2@@std@@H@Z@4HA DD 031001H
	DD	0700c4210H
	DD	0500bH
xdata	ENDS
;	COMDAT xdata
xdata	SEGMENT
$unwind$?dtor$0@?0??getMonthName@@YA?AV?$basic_string@DU?$char_traits@D@std@@V?$allocator@D@2@@std@@H@Z@4HA DD 031001H
	DD	0700c4210H
	DD	0500bH
xdata	ENDS
;	COMDAT xdata
xdata	SEGMENT
$ip2state$?getMonthName@@YA?AV?$basic_string@DU?$char_traits@D@std@@V?$allocator@D@2@@std@@H@Z DB ' '
	DB	00H
	DB	00H
	DB	0d2H
	DB	04H
	DB	'"'
	DB	06H
	DB	'"'
	DB	08H
	DB	'('
	DB	0aH
	DB	'('
	DB	0cH
	DB	'('
	DB	0eH
	DB	'('
	DB	010H
	DB	'('
	DB	012H
	DB	'('
	DB	014H
	DB	'('
	DB	016H
	DB	'('
	DB	018H
	DB	'('
	DB	01aH
	DB	086H
	DB	02H
	DB	'J'
	DB	01aH
	DB	'D'
	DB	02H
xdata	ENDS
;	COMDAT xdata
xdata	SEGMENT
$stateUnwindMap$?getMonthName@@YA?AV?$basic_string@DU?$char_traits@D@std@@V?$allocator@D@2@@std@@H@Z DB 01aH
	DB	0eH
	DD	imagerel ?dtor$13@?0??getMonthName@@YA?AV?$basic_string@DU?$char_traits@D@std@@V?$allocator@D@2@@std@@H@Z@4HA
	DB	02eH
	DD	imagerel ?dtor$0@?0??getMonthName@@YA?AV?$basic_string@DU?$char_traits@D@std@@V?$allocator@D@2@@std@@H@Z@4HA
	DB	02eH
	DD	imagerel ?dtor$1@?0??getMonthName@@YA?AV?$basic_string@DU?$char_traits@D@std@@V?$allocator@D@2@@std@@H@Z@4HA
	DB	02eH
	DD	imagerel ?dtor$2@?0??getMonthName@@YA?AV?$basic_string@DU?$char_traits@D@std@@V?$allocator@D@2@@std@@H@Z@4HA
	DB	02eH
	DD	imagerel ?dtor$3@?0??getMonthName@@YA?AV?$basic_string@DU?$char_traits@D@std@@V?$allocator@D@2@@std@@H@Z@4HA
	DB	02eH
	DD	imagerel ?dtor$4@?0??getMonthName@@YA?AV?$basic_string@DU?$char_traits@D@std@@V?$allocator@D@2@@std@@H@Z@4HA
	DB	02eH
	DD	imagerel ?dtor$5@?0??getMonthName@@YA?AV?$basic_string@DU?$char_traits@D@std@@V?$allocator@D@2@@std@@H@Z@4HA
	DB	02eH
	DD	imagerel ?dtor$6@?0??getMonthName@@YA?AV?$basic_string@DU?$char_traits@D@std@@V?$allocator@D@2@@std@@H@Z@4HA
	DB	02eH
	DD	imagerel ?dtor$7@?0??getMonthName@@YA?AV?$basic_string@DU?$char_traits@D@std@@V?$allocator@D@2@@std@@H@Z@4HA
	DB	02eH
	DD	imagerel ?dtor$8@?0??getMonthName@@YA?AV?$basic_string@DU?$char_traits@D@std@@V?$allocator@D@2@@std@@H@Z@4HA
	DB	02eH
	DD	imagerel ?dtor$9@?0??getMonthName@@YA?AV?$basic_string@DU?$char_traits@D@std@@V?$allocator@D@2@@std@@H@Z@4HA
	DB	02eH
	DD	imagerel ?dtor$10@?0??getMonthName@@YA?AV?$basic_string@DU?$char_traits@D@std@@V?$allocator@D@2@@std@@H@Z@4HA
	DB	0cdH
	DB	03H
	DD	imagerel ?dtor$12@?0??getMonthName@@YA?AV?$basic_string@DU?$char_traits@D@std@@V?$allocator@D@2@@std@@H@Z@4HA
xdata	ENDS
;	COMDAT xdata
xdata	SEGMENT
$cppxdata$?getMonthName@@YA?AV?$basic_string@DU?$char_traits@D@std@@V?$allocator@D@2@@std@@H@Z DB 028H
	DD	imagerel $stateUnwindMap$?getMonthName@@YA?AV?$basic_string@DU?$char_traits@D@std@@V?$allocator@D@2@@std@@H@Z
	DD	imagerel $ip2state$?getMonthName@@YA?AV?$basic_string@DU?$char_traits@D@std@@V?$allocator@D@2@@std@@H@Z
xdata	ENDS
;	COMDAT xdata
xdata	SEGMENT
$unwind$?getMonthName@@YA?AV?$basic_string@DU?$char_traits@D@std@@V?$allocator@D@2@@std@@H@Z DD 025054119H
	DD	01122317H
	DD	0700b0079H
	DD	0500aH
	DD	imagerel __GSHandlerCheck_EH4
	DD	imagerel $cppxdata$?getMonthName@@YA?AV?$basic_string@DU?$char_traits@D@std@@V?$allocator@D@2@@std@@H@Z
	DD	03baH
xdata	ENDS
;	COMDAT CONST
CONST	SEGMENT
?getMonthName@@YA?AV?$basic_string@DU?$char_traits@D@std@@V?$allocator@D@2@@std@@H@Z$rtcName$0 DB 06dH ; getMonthName
	DB	06fH
	DB	06eH
	DB	074H
	DB	068H
	DB	073H
	DB	00H
	ORG $+9
?getMonthName@@YA?AV?$basic_string@DU?$char_traits@D@std@@V?$allocator@D@2@@std@@H@Z$rtcVarDesc DD 030H ; getMonthName
	DD	01e0H
	DQ	FLAT:?getMonthName@@YA?AV?$basic_string@DU?$char_traits@D@std@@V?$allocator@D@2@@std@@H@Z$rtcName$0
	ORG $+48
?getMonthName@@YA?AV?$basic_string@DU?$char_traits@D@std@@V?$allocator@D@2@@std@@H@Z$rtcFrameData DD 01H ; getMonthName
	DD	00H
	DQ	FLAT:?getMonthName@@YA?AV?$basic_string@DU?$char_traits@D@std@@V?$allocator@D@2@@std@@H@Z$rtcVarDesc
CONST	ENDS
;	COMDAT xdata
xdata	SEGMENT
$unwind$??$_Getvals@_W@?$time_get@_WV?$istreambuf_iterator@_WU?$char_traits@_W@std@@@std@@@std@@IEAAX_WAEBV_Locinfo@1@@Z DD 025061e01H
	DD	0119231eH
	DD	070120026H
	DD	050106011H
xdata	ENDS
;	COMDAT xdata
xdata	SEGMENT
$unwind$??$_Getvals@_W@?$time_get@DV?$istreambuf_iterator@DU?$char_traits@D@std@@@std@@@std@@IEAAX_WAEBV_Locinfo@1@@Z DD 025061e01H
	DD	0119231eH
	DD	070120026H
	DD	050106011H
xdata	ENDS
;	COMDAT xdata
xdata	SEGMENT
$unwind$??$_Max_limit@_J@std@@YA_JXZ DD 025050f01H
	DD	010a230fH
	DD	070030021H
	DD	05002H
xdata	ENDS
;	COMDAT xdata
xdata	SEGMENT
$unwind$??$_Maklocstr@D@std@@YAPEADPEBDPEADAEBU_Cvtvec@@@Z DD 035051d01H
	DD	0118331dH
	DD	07011002bH
	DD	05010H
xdata	ENDS
;	COMDAT xdata
xdata	SEGMENT
$unwind$?_Maklocwcs@std@@YAPEA_WPEB_W@Z DD 035051301H
	DD	010e3313H
	DD	070070027H
	DD	05006H
xdata	ENDS
;	COMDAT voltbl
voltbl	SEGMENT
_volmd	DW	040H
	DW	0233H
voltbl	ENDS
;	COMDAT xdata
xdata	SEGMENT
$unwind$??$_Maklocstr@_W@std@@YAPEA_WPEBDPEA_WAEBU_Cvtvec@@@Z DD 035054719H
	DD	0118331dH
	DD	070110047H
	DD	05010H
	DD	imagerel __GSHandlerCheck
	DD	0228H
xdata	ENDS
;	COMDAT CONST
CONST	SEGMENT
??$_Maklocstr@_W@std@@YAPEA_WPEBDPEA_WAEBU_Cvtvec@@@Z$rtcName$0 DB 05fH ; std::_Maklocstr<wchar_t>
	DB	057H
	DB	063H
	DB	00H
??$_Maklocstr@_W@std@@YAPEA_WPEBDPEA_WAEBU_Cvtvec@@@Z$rtcName$1 DB 05fH ; std::_Maklocstr<wchar_t>
	DB	04dH
	DB	062H
	DB	073H
	DB	074H
	DB	031H
	DB	00H
	ORG $+1
??$_Maklocstr@_W@std@@YAPEA_WPEBDPEA_WAEBU_Cvtvec@@@Z$rtcName$2 DB 05fH ; std::_Maklocstr<wchar_t>
	DB	04dH
	DB	062H
	DB	073H
	DB	074H
	DB	032H
	DB	00H
	ORG $+13
??$_Maklocstr@_W@std@@YAPEA_WPEBDPEA_WAEBU_Cvtvec@@@Z$rtcVarDesc DD 0158H ; std::_Maklocstr<wchar_t>
	DD	08H
	DQ	FLAT:??$_Maklocstr@_W@std@@YAPEA_WPEBDPEA_WAEBU_Cvtvec@@@Z$rtcName$2
	DD	0f8H
	DD	08H
	DQ	FLAT:??$_Maklocstr@_W@std@@YAPEA_WPEBDPEA_WAEBU_Cvtvec@@@Z$rtcName$1
	DD	0d4H
	DD	02H
	DQ	FLAT:??$_Maklocstr@_W@std@@YAPEA_WPEBDPEA_WAEBU_Cvtvec@@@Z$rtcName$0
	ORG $+144
??$_Maklocstr@_W@std@@YAPEA_WPEBDPEA_WAEBU_Cvtvec@@@Z$rtcFrameData DD 03H ; std::_Maklocstr<wchar_t>
	DD	00H
	DQ	FLAT:??$_Maklocstr@_W@std@@YAPEA_WPEBDPEA_WAEBU_Cvtvec@@@Z$rtcVarDesc
CONST	ENDS
;	COMDAT xdata
xdata	SEGMENT
$unwind$??1?$_Compressed_pair@V?$allocator@D@std@@V?$_String_val@U?$_Simple_types@D@std@@@2@$00@std@@QEAA@XZ DD 025051301H
	DD	010e2313H
	DD	07007001dH
	DD	05006H
xdata	ENDS
;	COMDAT xdata
xdata	SEGMENT
$unwind$?_Get_first@?$_Compressed_pair@V?$allocator@D@std@@V?$_String_val@U?$_Simple_types@D@std@@@2@$00@std@@QEBAAEBV?$allocator@D@2@XZ DD 025051301H
	DD	010e2313H
	DD	07007001dH
	DD	05006H
xdata	ENDS
;	COMDAT xdata
xdata	SEGMENT
$unwind$?_Get_first@?$_Compressed_pair@V?$allocator@D@std@@V?$_String_val@U?$_Simple_types@D@std@@@2@$00@std@@QEAAAEAV?$allocator@D@2@XZ DD 025051301H
	DD	010e2313H
	DD	07007001dH
	DD	05006H
xdata	ENDS
;	COMDAT xdata
xdata	SEGMENT
$unwind$?_Getal@?$basic_string@DU?$char_traits@D@std@@V?$allocator@D@2@@std@@AEBAAEBV?$allocator@D@2@XZ DD 025051301H
	DD	010e2313H
	DD	07007001dH
	DD	05006H
xdata	ENDS
;	COMDAT xdata
xdata	SEGMENT
$unwind$?_Getal@?$basic_string@DU?$char_traits@D@std@@V?$allocator@D@2@@std@@AEAAAEAV?$allocator@D@2@XZ DD 025051301H
	DD	010e2313H
	DD	07007001dH
	DD	05006H
xdata	ENDS
;	COMDAT xdata
xdata	SEGMENT
$unwind$?_Tidy_deallocate@?$basic_string@DU?$char_traits@D@std@@V?$allocator@D@2@@std@@AEAAXXZ DD 025051301H
	DD	010e2313H
	DD	070070029H
	DD	05006H
xdata	ENDS
;	COMDAT voltbl
voltbl	SEGMENT
_volmd	DB	040H
	DB	0f7H
voltbl	ENDS
;	COMDAT xdata
xdata	SEGMENT
$unwind$?_Calculate_growth@?$basic_string@DU?$char_traits@D@std@@V?$allocator@D@2@@std@@CA_K_K00@Z DD 025054719H
	DD	0118231dH
	DD	070110025H
	DD	05010H
	DD	imagerel __GSHandlerCheck
	DD	0118H
xdata	ENDS
;	COMDAT CONST
CONST	SEGMENT
?_Calculate_growth@?$basic_string@DU?$char_traits@D@std@@V?$allocator@D@2@@std@@CA_K_K00@Z$rtcName$0 DB 05fH ; std::basic_string<char,std::char_traits<char>,std::allocator<char> >::_Calculate_growth
	DB	04dH
	DB	061H
	DB	073H
	DB	06bH
	DB	065H
	DB	064H
	DB	00H
	ORG $+8
?_Calculate_growth@?$basic_string@DU?$char_traits@D@std@@V?$allocator@D@2@@std@@CA_K_K00@Z$rtcVarDesc DD 028H ; std::basic_string<char,std::char_traits<char>,std::allocator<char> >::_Calculate_growth
	DD	08H
	DQ	FLAT:?_Calculate_growth@?$basic_string@DU?$char_traits@D@std@@V?$allocator@D@2@@std@@CA_K_K00@Z$rtcName$0
	ORG $+48
?_Calculate_growth@?$basic_string@DU?$char_traits@D@std@@V?$allocator@D@2@@std@@CA_K_K00@Z$rtcFrameData DD 01H ; std::basic_string<char,std::char_traits<char>,std::allocator<char> >::_Calculate_growth
	DD	00H
	DQ	FLAT:?_Calculate_growth@?$basic_string@DU?$char_traits@D@std@@V?$allocator@D@2@@std@@CA_K_K00@Z$rtcVarDesc
CONST	ENDS
;	COMDAT voltbl
voltbl	SEGMENT
_volmd	DB	036H
	DB	0caH
voltbl	ENDS
;	COMDAT xdata
xdata	SEGMENT
$unwind$?max_size@?$basic_string@DU?$char_traits@D@std@@V?$allocator@D@2@@std@@QEBA_KXZ DD 025053d19H
	DD	010e2313H
	DD	070070031H
	DD	05006H
	DD	imagerel __GSHandlerCheck
	DD	0178H
xdata	ENDS
;	COMDAT CONST
CONST	SEGMENT
?max_size@?$basic_string@DU?$char_traits@D@std@@V?$allocator@D@2@@std@@QEBA_KXZ$rtcName$0 DB 05fH ; std::basic_string<char,std::char_traits<char>,std::allocator<char> >::max_size
	DB	041H
	DB	06cH
	DB	06cH
	DB	06fH
	DB	063H
	DB	05fH
	DB	06dH
	DB	061H
	DB	078H
	DB	00H
	ORG $+5
?max_size@?$basic_string@DU?$char_traits@D@std@@V?$allocator@D@2@@std@@QEBA_KXZ$rtcVarDesc DD 028H ; std::basic_string<char,std::char_traits<char>,std::allocator<char> >::max_size
	DD	08H
	DQ	FLAT:?max_size@?$basic_string@DU?$char_traits@D@std@@V?$allocator@D@2@@std@@QEBA_KXZ$rtcName$0
	ORG $+48
?max_size@?$basic_string@DU?$char_traits@D@std@@V?$allocator@D@2@@std@@QEBA_KXZ$rtcFrameData DD 01H ; std::basic_string<char,std::char_traits<char>,std::allocator<char> >::max_size
	DD	00H
	DQ	FLAT:?max_size@?$basic_string@DU?$char_traits@D@std@@V?$allocator@D@2@@std@@QEBA_KXZ$rtcVarDesc
CONST	ENDS
;	COMDAT xdata
xdata	SEGMENT
$unwind$?size@?$basic_string@DU?$char_traits@D@std@@V?$allocator@D@2@@std@@QEBA_KXZ DD 025051301H
	DD	010e2313H
	DD	07007001dH
	DD	05006H
xdata	ENDS
;	COMDAT xdata
xdata	SEGMENT
$unwind$?data@?$basic_string@DU?$char_traits@D@std@@V?$allocator@D@2@@std@@QEBAPEBDXZ DD 025051301H
	DD	010e2313H
	DD	07007001dH
	DD	05006H
xdata	ENDS
;	COMDAT voltbl
voltbl	SEGMENT
_volmd	DB	036H
	DB	0c1H
voltbl	ENDS
;	COMDAT xdata
xdata	SEGMENT
$unwind$??1?$basic_string@DU?$char_traits@D@std@@V?$allocator@D@2@@std@@QEAA@XZ DD 025053d19H
	DD	010e2313H
	DD	070070029H
	DD	05006H
	DD	imagerel __GSHandlerCheck
	DD	0138H
xdata	ENDS
;	COMDAT CONST
CONST	SEGMENT
??1?$basic_string@DU?$char_traits@D@std@@V?$allocator@D@2@@std@@QEAA@XZ$rtcName$0 DB 024H ; std::basic_string<char,std::char_traits<char>,std::allocator<char> >::~basic_string<char,std::char_traits<char>,std::allocator<char> >
	DB	053H
	DB	034H
	DB	00H
	ORG $+12
??1?$basic_string@DU?$char_traits@D@std@@V?$allocator@D@2@@std@@QEAA@XZ$rtcVarDesc DD 044H ; std::basic_string<char,std::char_traits<char>,std::allocator<char> >::~basic_string<char,std::char_traits<char>,std::allocator<char> >
	DD	01H
	DQ	FLAT:??1?$basic_string@DU?$char_traits@D@std@@V?$allocator@D@2@@std@@QEAA@XZ$rtcName$0
	ORG $+48
??1?$basic_string@DU?$char_traits@D@std@@V?$allocator@D@2@@std@@QEAA@XZ$rtcFrameData DD 01H ; std::basic_string<char,std::char_traits<char>,std::allocator<char> >::~basic_string<char,std::char_traits<char>,std::allocator<char> >
	DD	00H
	DQ	FLAT:??1?$basic_string@DU?$char_traits@D@std@@V?$allocator@D@2@@std@@QEAA@XZ$rtcVarDesc
CONST	ENDS
;	COMDAT xdata
xdata	SEGMENT
$ip2state$?_Deallocate_for_capacity@?$basic_string@DU?$char_traits@D@std@@V?$allocator@D@2@@std@@CAXAEAV?$allocator@D@2@QEAD_K@Z DB 02H
	DB	00H
	DB	00H
xdata	ENDS
;	COMDAT xdata
xdata	SEGMENT
$cppxdata$?_Deallocate_for_capacity@?$basic_string@DU?$char_traits@D@std@@V?$allocator@D@2@@std@@CAXAEAV?$allocator@D@2@QEAD_K@Z DB 060H
	DD	imagerel $ip2state$?_Deallocate_for_capacity@?$basic_string@DU?$char_traits@D@std@@V?$allocator@D@2@@std@@CAXAEAV?$allocator@D@2@QEAD_K@Z
xdata	ENDS
;	COMDAT xdata
xdata	SEGMENT
$unwind$?_Deallocate_for_capacity@?$basic_string@DU?$char_traits@D@std@@V?$allocator@D@2@@std@@CAXAEAV?$allocator@D@2@QEAD_K@Z DD 025051d19H
	DD	0118231dH
	DD	07011001dH
	DD	05010H
	DD	imagerel __CxxFrameHandler4
	DD	imagerel $cppxdata$?_Deallocate_for_capacity@?$basic_string@DU?$char_traits@D@std@@V?$allocator@D@2@@std@@CAXAEAV?$allocator@D@2@QEAD_K@Z
xdata	ENDS
;	COMDAT voltbl
voltbl	SEGMENT
_volmd	DB	00H
	DB	05H
voltbl	ENDS
;	COMDAT xdata
xdata	SEGMENT
$unwind$?dtor$0@?0???0?$basic_string@DU?$char_traits@D@std@@V?$allocator@D@2@@std@@QEAA@QEBD@Z@4HA DD 031001H
	DD	0700c4210H
	DD	0500bH
xdata	ENDS
;	COMDAT xdata
xdata	SEGMENT
$ip2state$??0?$basic_string@DU?$char_traits@D@std@@V?$allocator@D@2@@std@@QEAA@QEBD@Z DB 06H
	DB	00H
	DB	00H
	DB	'x'
	DB	02H
	DB	'V'
	DB	00H
xdata	ENDS
;	COMDAT xdata
xdata	SEGMENT
$stateUnwindMap$??0?$basic_string@DU?$char_traits@D@std@@V?$allocator@D@2@@std@@QEAA@QEBD@Z DB 02H
	DB	0eH
	DD	imagerel ?dtor$0@?0???0?$basic_string@DU?$char_traits@D@std@@V?$allocator@D@2@@std@@QEAA@QEBD@Z@4HA
xdata	ENDS
;	COMDAT xdata
xdata	SEGMENT
$cppxdata$??0?$basic_string@DU?$char_traits@D@std@@V?$allocator@D@2@@std@@QEAA@QEBD@Z DB 028H
	DD	imagerel $stateUnwindMap$??0?$basic_string@DU?$char_traits@D@std@@V?$allocator@D@2@@std@@QEAA@QEBD@Z
	DD	imagerel $ip2state$??0?$basic_string@DU?$char_traits@D@std@@V?$allocator@D@2@@std@@QEAA@QEBD@Z
xdata	ENDS
;	COMDAT xdata
xdata	SEGMENT
$unwind$??0?$basic_string@DU?$char_traits@D@std@@V?$allocator@D@2@@std@@QEAA@QEBD@Z DD 025051811H
	DD	01132318H
	DD	0700c0021H
	DD	0500bH
	DD	imagerel __CxxFrameHandler4
	DD	imagerel $cppxdata$??0?$basic_string@DU?$char_traits@D@std@@V?$allocator@D@2@@std@@QEAA@QEBD@Z
xdata	ENDS
;	COMDAT voltbl
voltbl	SEGMENT
_volmd	DB	00H
	DB	05H
voltbl	ENDS
;	COMDAT xdata
xdata	SEGMENT
$unwind$?dtor$0@?0???0?$basic_string@DU?$char_traits@D@std@@V?$allocator@D@2@@std@@QEAA@AEBV01@@Z@4HA DD 031001H
	DD	0700c4210H
	DD	0500bH
xdata	ENDS
;	COMDAT xdata
xdata	SEGMENT
$ip2state$??0?$basic_string@DU?$char_traits@D@std@@V?$allocator@D@2@@std@@QEAA@AEBV01@@Z DB 06H
	DB	00H
	DB	00H
	DB	0aeH
	DB	02H
	DB	'T'
	DB	00H
xdata	ENDS
;	COMDAT xdata
xdata	SEGMENT
$stateUnwindMap$??0?$basic_string@DU?$char_traits@D@std@@V?$allocator@D@2@@std@@QEAA@AEBV01@@Z DB 02H
	DB	0eH
	DD	imagerel ?dtor$0@?0???0?$basic_string@DU?$char_traits@D@std@@V?$allocator@D@2@@std@@QEAA@AEBV01@@Z@4HA
xdata	ENDS
;	COMDAT xdata
xdata	SEGMENT
$cppxdata$??0?$basic_string@DU?$char_traits@D@std@@V?$allocator@D@2@@std@@QEAA@AEBV01@@Z DB 028H
	DD	imagerel $stateUnwindMap$??0?$basic_string@DU?$char_traits@D@std@@V?$allocator@D@2@@std@@QEAA@AEBV01@@Z
	DD	imagerel $ip2state$??0?$basic_string@DU?$char_traits@D@std@@V?$allocator@D@2@@std@@QEAA@AEBV01@@Z
xdata	ENDS
;	COMDAT xdata
xdata	SEGMENT
$unwind$??0?$basic_string@DU?$char_traits@D@std@@V?$allocator@D@2@@std@@QEAA@AEBV01@@Z DD 025051811H
	DD	01132318H
	DD	0700c0025H
	DD	0500bH
	DD	imagerel __CxxFrameHandler4
	DD	imagerel $cppxdata$??0?$basic_string@DU?$char_traits@D@std@@V?$allocator@D@2@@std@@QEAA@AEBV01@@Z
xdata	ENDS
;	COMDAT xdata
xdata	SEGMENT
$unwind$??1?$_String_val@U?$_Simple_types@D@std@@@std@@QEAA@XZ DD 025051301H
	DD	010e2313H
	DD	07007001dH
	DD	05006H
xdata	ENDS
;	COMDAT xdata
xdata	SEGMENT
$unwind$?_Switch_to_buf@_Bxty@?$_String_val@U?$_Simple_types@D@std@@@std@@QEAAXXZ DD 025051301H
	DD	010e2313H
	DD	07007001dH
	DD	05006H
xdata	ENDS
;	COMDAT xdata
xdata	SEGMENT
$unwind$??1_Bxty@?$_String_val@U?$_Simple_types@D@std@@@std@@QEAA@XZ DD 025051301H
	DD	010e2313H
	DD	07007001dH
	DD	05006H
xdata	ENDS
;	COMDAT xdata
xdata	SEGMENT
$unwind$??0_Bxty@?$_String_val@U?$_Simple_types@D@std@@@std@@QEAA@XZ DD 025051301H
	DD	010e2313H
	DD	07007001dH
	DD	05006H
xdata	ENDS
;	COMDAT xdata
xdata	SEGMENT
$unwind$?_Large_mode_engaged@?$_String_val@U?$_Simple_types@D@std@@@std@@QEBA_NXZ DD 025051301H
	DD	010e2313H
	DD	07007001fH
	DD	05006H
xdata	ENDS
;	COMDAT xdata
xdata	SEGMENT
$unwind$?_Myptr@?$_String_val@U?$_Simple_types@D@std@@@std@@QEBAPEBDXZ DD 025051301H
	DD	010e2313H
	DD	070070021H
	DD	05006H
xdata	ENDS
;	COMDAT xdata
xdata	SEGMENT
$unwind$??0?$_String_val@U?$_Simple_types@D@std@@@std@@QEAA@XZ DD 025051301H
	DD	010e2313H
	DD	07007001dH
	DD	05006H
xdata	ENDS
;	COMDAT xdata
xdata	SEGMENT
$unwind$?select_on_container_copy_construction@?$_Default_allocator_traits@V?$allocator@D@std@@@std@@SA?AV?$allocator@D@2@AEBV32@@Z DD 025051801H
	DD	01132318H
	DD	0700c001dH
	DD	0500bH
xdata	ENDS
;	COMDAT xdata
xdata	SEGMENT
$unwind$?max_size@?$_Default_allocator_traits@V?$allocator@D@std@@@std@@SA_KAEBV?$allocator@D@2@@Z DD 025051301H
	DD	010e2313H
	DD	07007001dH
	DD	05006H
xdata	ENDS
;	COMDAT xdata
xdata	SEGMENT
$unwind$?allocate@?$allocator@D@std@@QEAAPEAD_K@Z DD 025051801H
	DD	01132318H
	DD	0700c001dH
	DD	0500bH
xdata	ENDS
;	COMDAT xdata
xdata	SEGMENT
$unwind$?deallocate@?$allocator@D@std@@QEAAXQEAD_K@Z DD 035051d01H
	DD	0118331dH
	DD	07011001fH
	DD	05010H
xdata	ENDS
;	COMDAT xdata
xdata	SEGMENT
$unwind$??0?$allocator@D@std@@QEAA@XZ DD 025051301H
	DD	010e2313H
	DD	07007001dH
	DD	05006H
xdata	ENDS
;	COMDAT xdata
xdata	SEGMENT
$unwind$?_Xlen_string@std@@YAXXZ DD 025050f01H
	DD	010a230fH
	DD	07003001dH
	DD	05002H
xdata	ENDS
;	COMDAT xdata
xdata	SEGMENT
$unwind$??$_Construct_in_place@U_Container_proxy@std@@PEAU_Container_base12@2@@std@@YAXAEAU_Container_proxy@0@$$QEAPEAU_Container_base12@0@@Z DD 025051801H
	DD	01132318H
	DD	0700c0021H
	DD	0500bH
xdata	ENDS
;	COMDAT xdata
xdata	SEGMENT
$unwind$??$addressof@U_Container_base12@std@@@std@@YAPEAU_Container_base12@0@AEAU10@@Z DD 025051301H
	DD	010e2313H
	DD	07007001dH
	DD	05006H
xdata	ENDS
;	COMDAT xdata
xdata	SEGMENT
$unwind$??0_Basic_container_proxy_ptr12@std@@IEAA@XZ DD 025051301H
	DD	010e2313H
	DD	07007001dH
	DD	05006H
xdata	ENDS
;	COMDAT xdata
xdata	SEGMENT
$unwind$?_Release@_Basic_container_proxy_ptr12@std@@QEAAXXZ DD 025051301H
	DD	010e2313H
	DD	07007001dH
	DD	05006H
xdata	ENDS
;	COMDAT xdata
xdata	SEGMENT
$unwind$??$exchange@PEAU_Iterator_base12@std@@$$T@std@@YAPEAU_Iterator_base12@0@AEAPEAU10@$$QEA$$T@Z DD 025051801H
	DD	01132318H
	DD	0700c0021H
	DD	0500bH
xdata	ENDS
;	COMDAT voltbl
voltbl	SEGMENT
_volmd	DB	036H
	DB	082H
voltbl	ENDS
;	COMDAT xdata
xdata	SEGMENT
$unwind$?_Orphan_all_locked_v3@_Container_base12@std@@AEAAXXZ DD 025053d19H
	DD	010e2313H
	DD	070070021H
	DD	05006H
	DD	imagerel __GSHandlerCheck
	DD	0f8H
xdata	ENDS
;	COMDAT CONST
CONST	SEGMENT
?_Orphan_all_locked_v3@_Container_base12@std@@AEAAXXZ$rtcName$0 DB 05fH ; std::_Container_base12::_Orphan_all_locked_v3
	DB	04cH
	DB	06fH
	DB	063H
	DB	06bH
	DB	00H
	ORG $+10
?_Orphan_all_locked_v3@_Container_base12@std@@AEAAXXZ$rtcVarDesc DD 024H ; std::_Container_base12::_Orphan_all_locked_v3
	DD	04H
	DQ	FLAT:?_Orphan_all_locked_v3@_Container_base12@std@@AEAAXXZ$rtcName$0
	ORG $+48
?_Orphan_all_locked_v3@_Container_base12@std@@AEAAXXZ$rtcFrameData DD 01H ; std::_Container_base12::_Orphan_all_locked_v3
	DD	00H
	DQ	FLAT:?_Orphan_all_locked_v3@_Container_base12@std@@AEAAXXZ$rtcVarDesc
CONST	ENDS
;	COMDAT xdata
xdata	SEGMENT
$unwind$?_Orphan_all_unlocked_v3@_Container_base12@std@@AEAAXXZ DD 025051301H
	DD	010e2313H
	DD	070070025H
	DD	05006H
xdata	ENDS
;	COMDAT xdata
xdata	SEGMENT
$unwind$?_Orphan_all@_Container_base12@std@@QEAAXXZ DD 025051301H
	DD	010e2313H
	DD	07007001dH
	DD	05006H
xdata	ENDS
;	COMDAT xdata
xdata	SEGMENT
$unwind$??0_Container_base12@std@@QEAA@XZ DD 025051301H
	DD	010e2313H
	DD	07007001dH
	DD	05006H
xdata	ENDS
;	COMDAT xdata
xdata	SEGMENT
$unwind$??0_Container_proxy@std@@QEAA@PEAU_Container_base12@1@@Z DD 025051801H
	DD	01132318H
	DD	0700c001dH
	DD	0500bH
xdata	ENDS
;	COMDAT xdata
xdata	SEGMENT
$unwind$?_Adjust_manually_vector_aligned@std@@YAXAEAPEAXAEA_K@Z DD 035051801H
	DD	01133318H
	DD	0700c002fH
	DD	0500bH
xdata	ENDS
;	COMDAT xdata
xdata	SEGMENT
$unwind$?_Allocate@_Default_allocate_traits@std@@SAPEAX_K@Z DD 025051301H
	DD	010e2313H
	DD	07007001dH
	DD	05006H
xdata	ENDS
;	COMDAT xdata
xdata	SEGMENT
$unwind$?_Throw_bad_array_new_length@std@@YAXXZ DD 025050f01H
	DD	010a230fH
	DD	070030023H
	DD	05002H
xdata	ENDS
;	COMDAT xdata
xdata	SEGMENT
$unwind$?eof@?$_Narrow_char_traits@DH@std@@SAHXZ DD 025050f01H
	DD	010a230fH
	DD	07003001dH
	DD	05002H
xdata	ENDS
;	COMDAT xdata
xdata	SEGMENT
$unwind$?eq_int_type@?$_Narrow_char_traits@DH@std@@SA_NHH@Z DD 025051601H
	DD	01112316H
	DD	0700a001fH
	DD	05009H
xdata	ENDS
;	COMDAT xdata
xdata	SEGMENT
$unwind$?assign@?$_Narrow_char_traits@DH@std@@SAXAEADAEBD@Z DD 025051801H
	DD	01132318H
	DD	0700c001dH
	DD	0500bH
xdata	ENDS
;	COMDAT xdata
xdata	SEGMENT
$unwind$?length@?$_Narrow_char_traits@DH@std@@SA_KQEBD@Z DD 025051301H
	DD	010e2313H
	DD	07007001dH
	DD	05006H
xdata	ENDS
;	COMDAT xdata
xdata	SEGMENT
$unwind$?copy@?$_Char_traits@DH@std@@SAPEADQEADQEBD_K@Z DD 025051d01H
	DD	0118231dH
	DD	07011001dH
	DD	05010H
xdata	ENDS
;	COMDAT xdata
xdata	SEGMENT
$unwind$??_Gbad_array_new_length@std@@UEAAPEAXI@Z DD 025051701H
	DD	01122317H
	DD	0700b001dH
	DD	0500aH
xdata	ENDS
;	COMDAT xdata
xdata	SEGMENT
$unwind$??0bad_array_new_length@std@@QEAA@AEBV01@@Z DD 025051801H
	DD	01132318H
	DD	0700c001dH
	DD	0500bH
xdata	ENDS
;	COMDAT xdata
xdata	SEGMENT
$unwind$??1bad_array_new_length@std@@UEAA@XZ DD 025051301H
	DD	010e2313H
	DD	07007001dH
	DD	05006H
xdata	ENDS
;	COMDAT xdata
xdata	SEGMENT
$unwind$??0bad_array_new_length@std@@QEAA@XZ DD 025051301H
	DD	010e2313H
	DD	07007001dH
	DD	05006H
xdata	ENDS
;	COMDAT xdata
xdata	SEGMENT
$unwind$??_Gbad_alloc@std@@UEAAPEAXI@Z DD 025051701H
	DD	01122317H
	DD	0700b001dH
	DD	0500aH
xdata	ENDS
;	COMDAT xdata
xdata	SEGMENT
$unwind$??0bad_alloc@std@@QEAA@AEBV01@@Z DD 025051801H
	DD	01132318H
	DD	0700c001dH
	DD	0500bH
xdata	ENDS
;	COMDAT xdata
xdata	SEGMENT
$unwind$??1bad_alloc@std@@UEAA@XZ DD 025051301H
	DD	010e2313H
	DD	07007001dH
	DD	05006H
xdata	ENDS
;	COMDAT xdata
xdata	SEGMENT
$unwind$??0bad_alloc@std@@AEAA@QEBD@Z DD 025051801H
	DD	01132318H
	DD	0700c001dH
	DD	0500bH
xdata	ENDS
;	COMDAT xdata
xdata	SEGMENT
$unwind$??_Gexception@std@@UEAAPEAXI@Z DD 025051701H
	DD	01122317H
	DD	0700b001dH
	DD	0500aH
xdata	ENDS
;	COMDAT xdata
xdata	SEGMENT
$unwind$?what@exception@std@@UEBAPEBDXZ DD 025051301H
	DD	010e2313H
	DD	07007001fH
	DD	05006H
xdata	ENDS
;	COMDAT xdata
xdata	SEGMENT
$unwind$??1exception@std@@UEAA@XZ DD 025051301H
	DD	010e2313H
	DD	07007001dH
	DD	05006H
xdata	ENDS
;	COMDAT xdata
xdata	SEGMENT
$unwind$??0exception@std@@QEAA@AEBV01@@Z DD 025051801H
	DD	01132318H
	DD	0700c001dH
	DD	0500bH
xdata	ENDS
;	COMDAT xdata
xdata	SEGMENT
$unwind$??0exception@std@@QEAA@QEBDH@Z DD 025051d01H
	DD	0118231dH
	DD	07011001dH
	DD	05010H
xdata	ENDS
;	COMDAT xdata
xdata	SEGMENT
$unwind$wmemcpy DD 025051d01H
	DD	0118231dH
	DD	07011001dH
	DD	05010H
xdata	ENDS
;	COMDAT xdata
xdata	SEGMENT
$unwind$??2@YAPEAX_KPEAX@Z DD 025051801H
	DD	01132318H
	DD	0700c001dH
	DD	0500bH
xdata	ENDS
;	COMDAT xdata
xdata	SEGMENT
$unwind$?__empty_global_delete@@YAXPEAX_K@Z DD 025051801H
	DD	01132318H
	DD	0700c001dH
	DD	0500bH
xdata	ENDS
;	COMDAT xdata
xdata	SEGMENT
$unwind$?__empty_global_delete@@YAXPEAX@Z DD 025051301H
	DD	010e2313H
	DD	07007001dH
	DD	05006H
xdata	ENDS
; Function compile flags: /Odt
;	COMDAT __JustMyCode_Default
_TEXT	SEGMENT
__JustMyCode_Default PROC				; COMDAT
  00000	c2 00 00	 ret	 0
__JustMyCode_Default ENDP
_TEXT	ENDS
; Function compile flags: /Odtp /RTCsu /ZI
; File C:\Program Files\Microsoft Visual Studio\2022\Community\VC\Tools\MSVC\14.42.34433\include\xmemory
;	COMDAT ??$_Get_size_of_n@$00@std@@YA_K_K@Z
_TEXT	SEGMENT
_Overflow_is_possible$ = 4
_Count$ = 256
??$_Get_size_of_n@$00@std@@YA_K_K@Z PROC		; std::_Get_size_of_n<1>, COMDAT

; 79   : _NODISCARD constexpr size_t _Get_size_of_n(const size_t _Count) {

$LN3:
  00000	48 89 4c 24 08	 mov	 QWORD PTR [rsp+8], rcx
  00005	55		 push	 rbp
  00006	57		 push	 rdi
  00007	48 81 ec 08 01
	00 00		 sub	 rsp, 264		; 00000108H
  0000e	48 8d 6c 24 20	 lea	 rbp, QWORD PTR [rsp+32]
  00013	48 8d 0d 00 00
	00 00		 lea	 rcx, OFFSET FLAT:__03BD3355_xmemory
  0001a	e8 00 00 00 00	 call	 __CheckForDebuggerJustMyCode
  0001f	90		 npad	 1

; 80   :     constexpr bool _Overflow_is_possible = _Ty_size > 1;

  00020	c6 45 04 00	 mov	 BYTE PTR _Overflow_is_possible$[rbp], 0

; 81   : 
; 82   :     if constexpr (_Overflow_is_possible) {
; 83   :         constexpr size_t _Max_possible = static_cast<size_t>(-1) / _Ty_size;
; 84   :         if (_Count > _Max_possible) {
; 85   :             _Throw_bad_array_new_length(); // multiply overflow
; 86   :         }
; 87   :     }
; 88   : 
; 89   :     return _Count * _Ty_size;

  00024	48 8b 85 00 01
	00 00		 mov	 rax, QWORD PTR _Count$[rbp]

; 90   : }

  0002b	48 8d a5 e8 00
	00 00		 lea	 rsp, QWORD PTR [rbp+232]
  00032	5f		 pop	 rdi
  00033	5d		 pop	 rbp
  00034	c3		 ret	 0
??$_Get_size_of_n@$00@std@@YA_K_K@Z ENDP		; std::_Get_size_of_n<1>
_TEXT	ENDS
; Function compile flags: /Odtp /RTCsu /ZI
; File C:\Program Files\Microsoft Visual Studio\2022\Community\VC\Tools\MSVC\14.42.34433\include\xmemory
;	COMDAT ??$_Allocate_manually_vector_aligned@U_Default_allocate_traits@std@@@std@@YAPEAX_K@Z
_TEXT	SEGMENT
_Block_size$ = 8
_Ptr_container$ = 40
_Ptr$ = 72
_Bytes$ = 320
??$_Allocate_manually_vector_aligned@U_Default_allocate_traits@std@@@std@@YAPEAX_K@Z PROC ; std::_Allocate_manually_vector_aligned<std::_Default_allocate_traits>, COMDAT

; 151  : __declspec(allocator) void* _Allocate_manually_vector_aligned(const size_t _Bytes) {

$LN13:
  00000	48 89 4c 24 08	 mov	 QWORD PTR [rsp+8], rcx
  00005	55		 push	 rbp
  00006	57		 push	 rdi
  00007	48 81 ec 58 01
	00 00		 sub	 rsp, 344		; 00000158H
  0000e	48 8d 6c 24 30	 lea	 rbp, QWORD PTR [rsp+48]
  00013	48 8d 0d 00 00
	00 00		 lea	 rcx, OFFSET FLAT:__03BD3355_xmemory
  0001a	e8 00 00 00 00	 call	 __CheckForDebuggerJustMyCode
  0001f	90		 npad	 1

; 152  :     // allocate _Bytes manually aligned to at least _Big_allocation_alignment
; 153  :     const size_t _Block_size = _Non_user_size + _Bytes;

  00020	48 8b 85 40 01
	00 00		 mov	 rax, QWORD PTR _Bytes$[rbp]
  00027	48 83 c0 2f	 add	 rax, 47			; 0000002fH
  0002b	48 89 45 08	 mov	 QWORD PTR _Block_size$[rbp], rax

; 154  :     if (_Block_size <= _Bytes) {

  0002f	48 8b 85 40 01
	00 00		 mov	 rax, QWORD PTR _Bytes$[rbp]
  00036	48 39 45 08	 cmp	 QWORD PTR _Block_size$[rbp], rax
  0003a	77 06		 ja	 SHORT $LN8@Allocate_m

; 155  :         _Throw_bad_array_new_length(); // add overflow

  0003c	e8 00 00 00 00	 call	 ?_Throw_bad_array_new_length@std@@YAXXZ ; std::_Throw_bad_array_new_length
  00041	90		 npad	 1
$LN8@Allocate_m:

; 156  :     }
; 157  : 
; 158  :     const uintptr_t _Ptr_container = reinterpret_cast<uintptr_t>(_Traits::_Allocate(_Block_size));

  00042	48 8b 4d 08	 mov	 rcx, QWORD PTR _Block_size$[rbp]
  00046	e8 00 00 00 00	 call	 ?_Allocate@_Default_allocate_traits@std@@SAPEAX_K@Z ; std::_Default_allocate_traits::_Allocate
  0004b	48 89 45 28	 mov	 QWORD PTR _Ptr_container$[rbp], rax
$LN4@Allocate_m:

; 159  :     _STL_VERIFY(_Ptr_container != 0, "invalid argument"); // validate even in release since we're doing p[-1]

  0004f	48 83 7d 28 00	 cmp	 QWORD PTR _Ptr_container$[rbp], 0
  00054	74 02		 je	 SHORT $LN9@Allocate_m
  00056	eb 6c		 jmp	 SHORT $LN10@Allocate_m
$LN9@Allocate_m:
$LN7@Allocate_m:
  00058	48 8d 05 00 00
	00 00		 lea	 rax, OFFSET FLAT:??_C@_0BB@FCMFBGOM@invalid?5argument@
  0005f	48 89 44 24 28	 mov	 QWORD PTR [rsp+40], rax
  00064	48 8d 05 00 00
	00 00		 lea	 rax, OFFSET FLAT:??_C@_02DKCKIIND@?$CFs@
  0006b	48 89 44 24 20	 mov	 QWORD PTR [rsp+32], rax
  00070	45 33 c9	 xor	 r9d, r9d
  00073	41 b8 9f 00 00
	00		 mov	 r8d, 159		; 0000009fH
  00079	48 8d 15 00 00
	00 00		 lea	 rdx, OFFSET FLAT:??_C@_0GC@KIHIELAM@C?3?2Program?5Files?2Microsoft?5Visu@
  00080	b9 02 00 00 00	 mov	 ecx, 2
  00085	ff 15 00 00 00
	00		 call	 QWORD PTR __imp__CrtDbgReport
  0008b	83 f8 01	 cmp	 eax, 1
  0008e	75 03		 jne	 SHORT $LN12@Allocate_m
  00090	cc		 int	 3
  00091	33 c0		 xor	 eax, eax
$LN12@Allocate_m:
  00093	48 c7 44 24 20
	00 00 00 00	 mov	 QWORD PTR [rsp+32], 0
  0009c	41 b9 9f 00 00
	00		 mov	 r9d, 159		; 0000009fH
  000a2	4c 8d 05 00 00
	00 00		 lea	 r8, OFFSET FLAT:??_C@_1ME@NMPKGKJL@?$AAC?$AA?3?$AA?2?$AAP?$AAr?$AAo?$AAg?$AAr?$AAa?$AAm?$AA?5?$AAF?$AAi?$AAl?$AAe@
  000a9	48 8d 15 00 00
	00 00		 lea	 rdx, OFFSET FLAT:??_C@_11LOCGONAA@@
  000b0	48 8d 0d 00 00
	00 00		 lea	 rcx, OFFSET FLAT:??_C@_1CG@JNLFBNGN@?$AA?$CC?$AAi?$AAn?$AAv?$AAa?$AAl?$AAi?$AAd?$AA?5?$AAa?$AAr?$AAg?$AAu?$AAm?$AAe@
  000b7	ff 15 00 00 00
	00		 call	 QWORD PTR __imp__invalid_parameter
  000bd	90		 npad	 1
  000be	33 c0		 xor	 eax, eax
  000c0	85 c0		 test	 eax, eax
  000c2	75 94		 jne	 SHORT $LN7@Allocate_m
$LN10@Allocate_m:
  000c4	33 c0		 xor	 eax, eax
  000c6	85 c0		 test	 eax, eax
  000c8	75 85		 jne	 SHORT $LN4@Allocate_m

; 160  :     void* const _Ptr = reinterpret_cast<void*>((_Ptr_container + _Non_user_size) & ~(_Big_allocation_alignment - 1));

  000ca	48 8b 45 28	 mov	 rax, QWORD PTR _Ptr_container$[rbp]
  000ce	48 83 c0 2f	 add	 rax, 47			; 0000002fH
  000d2	48 83 e0 e0	 and	 rax, -32		; ffffffffffffffe0H
  000d6	48 89 45 48	 mov	 QWORD PTR _Ptr$[rbp], rax

; 161  :     static_cast<uintptr_t*>(_Ptr)[-1] = _Ptr_container;

  000da	b8 08 00 00 00	 mov	 eax, 8
  000df	48 6b c0 ff	 imul	 rax, rax, -1
  000e3	48 8b 4d 48	 mov	 rcx, QWORD PTR _Ptr$[rbp]
  000e7	48 8b 55 28	 mov	 rdx, QWORD PTR _Ptr_container$[rbp]
  000eb	48 89 14 01	 mov	 QWORD PTR [rcx+rax], rdx

; 162  : 
; 163  : #ifdef _DEBUG
; 164  :     static_cast<uintptr_t*>(_Ptr)[-2] = _Big_allocation_sentinel;

  000ef	b8 08 00 00 00	 mov	 eax, 8
  000f4	48 6b c0 fe	 imul	 rax, rax, -2
  000f8	48 8b 4d 48	 mov	 rcx, QWORD PTR _Ptr$[rbp]
  000fc	48 ba fa fa fa
	fa fa fa fa fa	 mov	 rdx, -361700864190383366 ; fafafafafafafafaH
  00106	48 89 14 01	 mov	 QWORD PTR [rcx+rax], rdx

; 165  : #endif // defined(_DEBUG)
; 166  :     return _Ptr;

  0010a	48 8b 45 48	 mov	 rax, QWORD PTR _Ptr$[rbp]
$LN11@Allocate_m:

; 167  : }

  0010e	48 8d a5 28 01
	00 00		 lea	 rsp, QWORD PTR [rbp+296]
  00115	5f		 pop	 rdi
  00116	5d		 pop	 rbp
  00117	c3		 ret	 0
??$_Allocate_manually_vector_aligned@U_Default_allocate_traits@std@@@std@@YAPEAX_K@Z ENDP ; std::_Allocate_manually_vector_aligned<std::_Default_allocate_traits>
_TEXT	ENDS
; Function compile flags: /Odtp /RTCsu /ZI
; File C:\Program Files\Microsoft Visual Studio\2022\Community\VC\Tools\MSVC\14.42.34433\include\xmemory
;	COMDAT ??$_Allocate_at_least_helper@V?$allocator@D@std@@@std@@YAPEADAEAV?$allocator@D@0@AEA_K@Z
_TEXT	SEGMENT
_Al$ = 224
_Count$ = 232
??$_Allocate_at_least_helper@V?$allocator@D@std@@@std@@YAPEADAEAV?$allocator@D@0@AEA_K@Z PROC ; std::_Allocate_at_least_helper<std::allocator<char> >, COMDAT

; 2173 :     _Alloc& _Al, _CRT_GUARDOVERFLOW typename allocator_traits<_Alloc>::size_type& _Count) {

$LN3:
  00000	48 89 54 24 10	 mov	 QWORD PTR [rsp+16], rdx
  00005	48 89 4c 24 08	 mov	 QWORD PTR [rsp+8], rcx
  0000a	55		 push	 rbp
  0000b	57		 push	 rdi
  0000c	48 81 ec e8 00
	00 00		 sub	 rsp, 232		; 000000e8H
  00013	48 8d 6c 24 20	 lea	 rbp, QWORD PTR [rsp+32]
  00018	48 8d 0d 00 00
	00 00		 lea	 rcx, OFFSET FLAT:__03BD3355_xmemory
  0001f	e8 00 00 00 00	 call	 __CheckForDebuggerJustMyCode
  00024	90		 npad	 1

; 2174 : #if _HAS_CXX23
; 2175 :     if constexpr (_Should_allocate_at_least<_Alloc>) {
; 2176 :         auto [_Ptr, _Allocated] = _Al.allocate_at_least(_Count);
; 2177 :         _Count                  = _Allocated;
; 2178 :         return _Ptr;
; 2179 :     } else
; 2180 : #endif // _HAS_CXX23
; 2181 :     {
; 2182 :         return _Al.allocate(_Count);

  00025	48 8b 85 e8 00
	00 00		 mov	 rax, QWORD PTR _Count$[rbp]
  0002c	48 8b 10	 mov	 rdx, QWORD PTR [rax]
  0002f	48 8b 8d e0 00
	00 00		 mov	 rcx, QWORD PTR _Al$[rbp]
  00036	e8 00 00 00 00	 call	 ?allocate@?$allocator@D@std@@QEAAPEAD_K@Z ; std::allocator<char>::allocate

; 2183 :     }
; 2184 : }

  0003b	48 8d a5 c8 00
	00 00		 lea	 rsp, QWORD PTR [rbp+200]
  00042	5f		 pop	 rdi
  00043	5d		 pop	 rbp
  00044	c3		 ret	 0
??$_Allocate_at_least_helper@V?$allocator@D@std@@@std@@YAPEADAEAV?$allocator@D@0@AEA_K@Z ENDP ; std::_Allocate_at_least_helper<std::allocator<char> >
_TEXT	ENDS
; Function compile flags: /Odtp /RTCsu /ZI
; File C:\Program Files\Microsoft Visual Studio\2022\Community\VC\Tools\MSVC\14.42.34433\include\xmemory
;	COMDAT ?deallocate@?$_Default_allocator_traits@V?$allocator@U_Container_proxy@std@@@std@@@std@@SAXAEAV?$allocator@U_Container_proxy@std@@@2@QEAU_Container_proxy@2@_K@Z
_TEXT	SEGMENT
_Al$ = 224
_Ptr$ = 232
_Count$ = 240
?deallocate@?$_Default_allocator_traits@V?$allocator@U_Container_proxy@std@@@std@@@std@@SAXAEAV?$allocator@U_Container_proxy@std@@@2@QEAU_Container_proxy@2@_K@Z PROC ; std::_Default_allocator_traits<std::allocator<std::_Container_proxy> >::deallocate, COMDAT

; 682  :     static _CONSTEXPR20 void deallocate(_Alloc& _Al, const pointer _Ptr, const size_type _Count) {

$LN3:
  00000	4c 89 44 24 18	 mov	 QWORD PTR [rsp+24], r8
  00005	48 89 54 24 10	 mov	 QWORD PTR [rsp+16], rdx
  0000a	48 89 4c 24 08	 mov	 QWORD PTR [rsp+8], rcx
  0000f	55		 push	 rbp
  00010	57		 push	 rdi
  00011	48 81 ec e8 00
	00 00		 sub	 rsp, 232		; 000000e8H
  00018	48 8d 6c 24 20	 lea	 rbp, QWORD PTR [rsp+32]
  0001d	48 8d 0d 00 00
	00 00		 lea	 rcx, OFFSET FLAT:__03BD3355_xmemory
  00024	e8 00 00 00 00	 call	 __CheckForDebuggerJustMyCode
  00029	90		 npad	 1

; 683  :         // no overflow check on the following multiply; we assume _Allocate did that check
; 684  : #if _HAS_CXX20 // TRANSITION, GH-1532
; 685  :         if (_STD is_constant_evaluated()) {
; 686  :             _Al.deallocate(_Ptr, _Count);
; 687  :         } else
; 688  : #endif // _HAS_CXX20
; 689  :         {
; 690  :             (void) _Al;
; 691  :             _STD _Deallocate<_New_alignof<value_type>>(_Ptr, sizeof(value_type) * _Count);

  0002a	48 6b 85 f0 00
	00 00 10	 imul	 rax, QWORD PTR _Count$[rbp], 16
  00032	48 8b d0	 mov	 rdx, rax
  00035	48 8b 8d e8 00
	00 00		 mov	 rcx, QWORD PTR _Ptr$[rbp]
  0003c	e8 00 00 00 00	 call	 ??$_Deallocate@$0BA@@std@@YAXPEAX_K@Z ; std::_Deallocate<16>
  00041	90		 npad	 1

; 692  :         }
; 693  :     }

  00042	48 8d a5 c8 00
	00 00		 lea	 rsp, QWORD PTR [rbp+200]
  00049	5f		 pop	 rdi
  0004a	5d		 pop	 rbp
  0004b	c3		 ret	 0
?deallocate@?$_Default_allocator_traits@V?$allocator@U_Container_proxy@std@@@std@@@std@@SAXAEAV?$allocator@U_Container_proxy@std@@@2@QEAU_Container_proxy@2@_K@Z ENDP ; std::_Default_allocator_traits<std::allocator<std::_Container_proxy> >::deallocate
_TEXT	ENDS
; Function compile flags: /Odtp /RTCsu /ZI
; File C:\Program Files\Microsoft Visual Studio\2022\Community\VC\Tools\MSVC\14.42.34433\include\type_traits
;	COMDAT ??$addressof@U_Container_proxy@std@@@std@@YAPEAU_Container_proxy@0@AEAU10@@Z
_TEXT	SEGMENT
_Val$ = 224
??$addressof@U_Container_proxy@std@@@std@@YAPEAU_Container_proxy@0@AEAU10@@Z PROC ; std::addressof<std::_Container_proxy>, COMDAT

; 1549 : _NODISCARD constexpr _Ty* addressof(_Ty& _Val) noexcept {

$LN4:
  00000	48 89 4c 24 08	 mov	 QWORD PTR [rsp+8], rcx
  00005	55		 push	 rbp
  00006	57		 push	 rdi
  00007	48 81 ec e8 00
	00 00		 sub	 rsp, 232		; 000000e8H
  0000e	48 8d 6c 24 20	 lea	 rbp, QWORD PTR [rsp+32]
  00013	48 8d 0d 00 00
	00 00		 lea	 rcx, OFFSET FLAT:__4C58012B_type_traits
  0001a	e8 00 00 00 00	 call	 __CheckForDebuggerJustMyCode
  0001f	90		 npad	 1

; 1550 :     return __builtin_addressof(_Val);

  00020	48 8b 85 e0 00
	00 00		 mov	 rax, QWORD PTR _Val$[rbp]

; 1551 : }

  00027	48 8d a5 c8 00
	00 00		 lea	 rsp, QWORD PTR [rbp+200]
  0002e	5f		 pop	 rdi
  0002f	5d		 pop	 rbp
  00030	c3		 ret	 0
??$addressof@U_Container_proxy@std@@@std@@YAPEAU_Container_proxy@0@AEAU10@@Z ENDP ; std::addressof<std::_Container_proxy>
_TEXT	ENDS
; Function compile flags: /Odtp /RTCsu /ZI
; File C:\Program Files\Microsoft Visual Studio\2022\Community\VC\Tools\MSVC\14.42.34433\include\xmemory
;	COMDAT ??$_Allocate@$0BA@U_Default_allocate_traits@std@@@std@@YAPEAX_K@Z
_TEXT	SEGMENT
_Bytes$ = 224
??$_Allocate@$0BA@U_Default_allocate_traits@std@@@std@@YAPEAX_K@Z PROC ; std::_Allocate<16,std::_Default_allocate_traits>, COMDAT

; 194  : __declspec(allocator) _CONSTEXPR20 void* _Allocate(const size_t _Bytes) {

$LN5:
  00000	48 89 4c 24 08	 mov	 QWORD PTR [rsp+8], rcx
  00005	55		 push	 rbp
  00006	57		 push	 rdi
  00007	48 81 ec e8 00
	00 00		 sub	 rsp, 232		; 000000e8H
  0000e	48 8d 6c 24 20	 lea	 rbp, QWORD PTR [rsp+32]
  00013	48 8d 0d 00 00
	00 00		 lea	 rcx, OFFSET FLAT:__03BD3355_xmemory
  0001a	e8 00 00 00 00	 call	 __CheckForDebuggerJustMyCode
  0001f	90		 npad	 1

; 195  :     // allocate _Bytes
; 196  :     if (_Bytes == 0) {

  00020	48 83 bd e0 00
	00 00 00	 cmp	 QWORD PTR _Bytes$[rbp], 0
  00028	75 04		 jne	 SHORT $LN2@Allocate

; 197  :         return nullptr;

  0002a	33 c0		 xor	 eax, eax
  0002c	eb 27		 jmp	 SHORT $LN1@Allocate
$LN2@Allocate:

; 198  :     }
; 199  : 
; 200  : #if _HAS_CXX20 // TRANSITION, GH-1532
; 201  :     if (_STD is_constant_evaluated()) {
; 202  :         return _Traits::_Allocate(_Bytes);
; 203  :     }
; 204  : #endif // _HAS_CXX20
; 205  : 
; 206  : #ifdef __cpp_aligned_new
; 207  :     if constexpr (_Align > __STDCPP_DEFAULT_NEW_ALIGNMENT__) {
; 208  :         size_t _Passed_align = _Align;
; 209  : #if defined(_M_IX86) || defined(_M_X64)
; 210  :         if (_Bytes >= _Big_allocation_threshold) {
; 211  :             // boost the alignment of big allocations to help autovectorization
; 212  :             _Passed_align = (_STD max)(_Align, _Big_allocation_alignment);
; 213  :         }
; 214  : #endif // defined(_M_IX86) || defined(_M_X64)
; 215  :         return _Traits::_Allocate_aligned(_Bytes, _Passed_align);
; 216  :     } else
; 217  : #endif // defined(__cpp_aligned_new)
; 218  :     {
; 219  : #if defined(_M_IX86) || defined(_M_X64)
; 220  :         if (_Bytes >= _Big_allocation_threshold) {

  0002e	48 81 bd e0 00
	00 00 00 10 00
	00		 cmp	 QWORD PTR _Bytes$[rbp], 4096 ; 00001000H
  00039	72 0e		 jb	 SHORT $LN3@Allocate

; 221  :             // boost the alignment of big allocations to help autovectorization
; 222  :             return _Allocate_manually_vector_aligned<_Traits>(_Bytes);

  0003b	48 8b 8d e0 00
	00 00		 mov	 rcx, QWORD PTR _Bytes$[rbp]
  00042	e8 00 00 00 00	 call	 ??$_Allocate_manually_vector_aligned@U_Default_allocate_traits@std@@@std@@YAPEAX_K@Z ; std::_Allocate_manually_vector_aligned<std::_Default_allocate_traits>
  00047	eb 0c		 jmp	 SHORT $LN1@Allocate
$LN3@Allocate:

; 223  :         }
; 224  : #endif // defined(_M_IX86) || defined(_M_X64)
; 225  :         return _Traits::_Allocate(_Bytes);

  00049	48 8b 8d e0 00
	00 00		 mov	 rcx, QWORD PTR _Bytes$[rbp]
  00050	e8 00 00 00 00	 call	 ?_Allocate@_Default_allocate_traits@std@@SAPEAX_K@Z ; std::_Default_allocate_traits::_Allocate
$LN1@Allocate:

; 226  :     }
; 227  : }

  00055	48 8d a5 c8 00
	00 00		 lea	 rsp, QWORD PTR [rbp+200]
  0005c	5f		 pop	 rdi
  0005d	5d		 pop	 rbp
  0005e	c3		 ret	 0
??$_Allocate@$0BA@U_Default_allocate_traits@std@@@std@@YAPEAX_K@Z ENDP ; std::_Allocate<16,std::_Default_allocate_traits>
_TEXT	ENDS
; Function compile flags: /Odtp /RTCsu /ZI
; File C:\Program Files\Microsoft Visual Studio\2022\Community\VC\Tools\MSVC\14.42.34433\include\xmemory
;	COMDAT ??$_Get_size_of_n@$0BA@@std@@YA_K_K@Z
_TEXT	SEGMENT
_Overflow_is_possible$ = 4
_Max_possible$1 = 40
_Count$ = 288
??$_Get_size_of_n@$0BA@@std@@YA_K_K@Z PROC		; std::_Get_size_of_n<16>, COMDAT

; 79   : _NODISCARD constexpr size_t _Get_size_of_n(const size_t _Count) {

$LN4:
  00000	48 89 4c 24 08	 mov	 QWORD PTR [rsp+8], rcx
  00005	55		 push	 rbp
  00006	57		 push	 rdi
  00007	48 81 ec 28 01
	00 00		 sub	 rsp, 296		; 00000128H
  0000e	48 8d 6c 24 20	 lea	 rbp, QWORD PTR [rsp+32]
  00013	48 8d 0d 00 00
	00 00		 lea	 rcx, OFFSET FLAT:__03BD3355_xmemory
  0001a	e8 00 00 00 00	 call	 __CheckForDebuggerJustMyCode
  0001f	90		 npad	 1

; 80   :     constexpr bool _Overflow_is_possible = _Ty_size > 1;

  00020	c6 45 04 01	 mov	 BYTE PTR _Overflow_is_possible$[rbp], 1

; 81   : 
; 82   :     if constexpr (_Overflow_is_possible) {
; 83   :         constexpr size_t _Max_possible = static_cast<size_t>(-1) / _Ty_size;

  00024	48 b8 ff ff ff
	ff ff ff ff 0f	 mov	 rax, 1152921504606846975 ; 0fffffffffffffffH
  0002e	48 89 45 28	 mov	 QWORD PTR _Max_possible$1[rbp], rax

; 84   :         if (_Count > _Max_possible) {

  00032	48 b8 ff ff ff
	ff ff ff ff 0f	 mov	 rax, 1152921504606846975 ; 0fffffffffffffffH
  0003c	48 39 85 20 01
	00 00		 cmp	 QWORD PTR _Count$[rbp], rax
  00043	76 06		 jbe	 SHORT $LN2@Get_size_o

; 85   :             _Throw_bad_array_new_length(); // multiply overflow

  00045	e8 00 00 00 00	 call	 ?_Throw_bad_array_new_length@std@@YAXXZ ; std::_Throw_bad_array_new_length
  0004a	90		 npad	 1
$LN2@Get_size_o:

; 86   :         }
; 87   :     }
; 88   : 
; 89   :     return _Count * _Ty_size;

  0004b	48 6b 85 20 01
	00 00 10	 imul	 rax, QWORD PTR _Count$[rbp], 16
$LN3@Get_size_o:

; 90   : }

  00053	48 8d a5 08 01
	00 00		 lea	 rsp, QWORD PTR [rbp+264]
  0005a	5f		 pop	 rdi
  0005b	5d		 pop	 rbp
  0005c	c3		 ret	 0
??$_Get_size_of_n@$0BA@@std@@YA_K_K@Z ENDP		; std::_Get_size_of_n<16>
_TEXT	ENDS
; Function compile flags: /Odtp /RTCsu /ZI
; File C:\Program Files\Microsoft Visual Studio\2022\Community\VC\Tools\MSVC\14.42.34433\include\type_traits
;	COMDAT ??$addressof@PEAD@std@@YAPEAPEADAEAPEAD@Z
_TEXT	SEGMENT
_Val$ = 224
??$addressof@PEAD@std@@YAPEAPEADAEAPEAD@Z PROC		; std::addressof<char *>, COMDAT

; 1549 : _NODISCARD constexpr _Ty* addressof(_Ty& _Val) noexcept {

$LN4:
  00000	48 89 4c 24 08	 mov	 QWORD PTR [rsp+8], rcx
  00005	55		 push	 rbp
  00006	57		 push	 rdi
  00007	48 81 ec e8 00
	00 00		 sub	 rsp, 232		; 000000e8H
  0000e	48 8d 6c 24 20	 lea	 rbp, QWORD PTR [rsp+32]
  00013	48 8d 0d 00 00
	00 00		 lea	 rcx, OFFSET FLAT:__4C58012B_type_traits
  0001a	e8 00 00 00 00	 call	 __CheckForDebuggerJustMyCode
  0001f	90		 npad	 1

; 1550 :     return __builtin_addressof(_Val);

  00020	48 8b 85 e0 00
	00 00		 mov	 rax, QWORD PTR _Val$[rbp]

; 1551 : }

  00027	48 8d a5 c8 00
	00 00		 lea	 rsp, QWORD PTR [rbp+200]
  0002e	5f		 pop	 rdi
  0002f	5d		 pop	 rbp
  00030	c3		 ret	 0
??$addressof@PEAD@std@@YAPEAPEADAEAPEAD@Z ENDP		; std::addressof<char *>
_TEXT	ENDS
; Function compile flags: /Odtp /RTCsu /ZI
; File C:\Program Files\Microsoft Visual Studio\2022\Community\VC\Tools\MSVC\14.42.34433\include\xutility
;	COMDAT ??$_Construct_in_place@PEADAEBQEAD@std@@YAXAEAPEADAEBQEAD@Z
_TEXT	SEGMENT
$T1 = 200
_Obj$ = 256
<_Args_0>$ = 264
??$_Construct_in_place@PEADAEBQEAD@std@@YAXAEAPEADAEBQEAD@Z PROC ; std::_Construct_in_place<char *,char * const &>, COMDAT

; 399  :     is_nothrow_constructible_v<_Ty, _Types...>) {

$LN4:
  00000	48 89 54 24 10	 mov	 QWORD PTR [rsp+16], rdx
  00005	48 89 4c 24 08	 mov	 QWORD PTR [rsp+8], rcx
  0000a	55		 push	 rbp
  0000b	57		 push	 rdi
  0000c	48 81 ec 08 01
	00 00		 sub	 rsp, 264		; 00000108H
  00013	48 8d 6c 24 20	 lea	 rbp, QWORD PTR [rsp+32]
  00018	48 8d 0d 00 00
	00 00		 lea	 rcx, OFFSET FLAT:__EC88E9B5_xutility
  0001f	e8 00 00 00 00	 call	 __CheckForDebuggerJustMyCode
  00024	90		 npad	 1

; 400  : #if _HAS_CXX20
; 401  :     if (_STD is_constant_evaluated()) {
; 402  :         _STD construct_at(_STD addressof(_Obj), _STD forward<_Types>(_Args)...);
; 403  :     } else
; 404  : #endif // _HAS_CXX20
; 405  :     {
; 406  :         ::new (static_cast<void*>(_STD addressof(_Obj))) _Ty(_STD forward<_Types>(_Args)...);

  00025	48 8b 8d 00 01
	00 00		 mov	 rcx, QWORD PTR _Obj$[rbp]
  0002c	e8 00 00 00 00	 call	 ??$addressof@PEAD@std@@YAPEAPEADAEAPEAD@Z ; std::addressof<char *>
  00031	48 8b d0	 mov	 rdx, rax
  00034	b9 08 00 00 00	 mov	 ecx, 8
  00039	e8 00 00 00 00	 call	 ??2@YAPEAX_KPEAX@Z	; operator new
  0003e	48 89 85 c8 00
	00 00		 mov	 QWORD PTR $T1[rbp], rax
  00045	48 8b 85 c8 00
	00 00		 mov	 rax, QWORD PTR $T1[rbp]
  0004c	48 8b 8d 08 01
	00 00		 mov	 rcx, QWORD PTR <_Args_0>$[rbp]
  00053	48 8b 09	 mov	 rcx, QWORD PTR [rcx]
  00056	48 89 08	 mov	 QWORD PTR [rax], rcx

; 407  :     }
; 408  : }

  00059	48 8d a5 e8 00
	00 00		 lea	 rsp, QWORD PTR [rbp+232]
  00060	5f		 pop	 rdi
  00061	5d		 pop	 rbp
  00062	c3		 ret	 0
??$_Construct_in_place@PEADAEBQEAD@std@@YAXAEAPEADAEBQEAD@Z ENDP ; std::_Construct_in_place<char *,char * const &>
_TEXT	ENDS
; Function compile flags: /Odtp /RTCsu /ZI
; File C:\Program Files\Microsoft Visual Studio\2022\Community\VC\Tools\MSVC\14.42.34433\include\xstring
;	COMDAT ??$_Allocate_for_capacity@$0A@@?$basic_string@DU?$char_traits@D@std@@V?$allocator@D@2@@std@@CAPEADAEAV?$allocator@D@1@AEA_K@Z
_TEXT	SEGMENT
_Fancy_ptr$ = 8
_Al$ = 256
_Capacity$ = 264
??$_Allocate_for_capacity@$0A@@?$basic_string@DU?$char_traits@D@std@@V?$allocator@D@2@@std@@CAPEADAEAV?$allocator@D@1@AEA_K@Z PROC ; std::basic_string<char,std::char_traits<char>,std::allocator<char> >::_Allocate_for_capacity<0>, COMDAT

; 804  :     _NODISCARD static _CONSTEXPR20 pointer _Allocate_for_capacity(_Alty& _Al, size_type& _Capacity) {

$LN3:
  00000	48 89 54 24 10	 mov	 QWORD PTR [rsp+16], rdx
  00005	48 89 4c 24 08	 mov	 QWORD PTR [rsp+8], rcx
  0000a	55		 push	 rbp
  0000b	57		 push	 rdi
  0000c	48 81 ec 08 01
	00 00		 sub	 rsp, 264		; 00000108H
  00013	48 8d 6c 24 20	 lea	 rbp, QWORD PTR [rsp+32]
  00018	48 8d 0d 00 00
	00 00		 lea	 rcx, OFFSET FLAT:__776EB5C9_xstring
  0001f	e8 00 00 00 00	 call	 __CheckForDebuggerJustMyCode
  00024	90		 npad	 1

; 805  :         _STL_INTERNAL_CHECK(_Capacity > _Small_string_capacity);
; 806  :         ++_Capacity; // Take null terminator into consideration

  00025	48 8b 85 08 01
	00 00		 mov	 rax, QWORD PTR _Capacity$[rbp]
  0002c	48 8b 00	 mov	 rax, QWORD PTR [rax]
  0002f	48 ff c0	 inc	 rax
  00032	48 8b 8d 08 01
	00 00		 mov	 rcx, QWORD PTR _Capacity$[rbp]
  00039	48 89 01	 mov	 QWORD PTR [rcx], rax

; 807  : 
; 808  :         pointer _Fancy_ptr = nullptr;

  0003c	48 c7 45 08 00
	00 00 00	 mov	 QWORD PTR _Fancy_ptr$[rbp], 0

; 809  :         if constexpr (_Policy == _Allocation_policy::_At_least) {
; 810  :             _Fancy_ptr = _Allocate_at_least_helper(_Al, _Capacity);

  00044	48 8b 95 08 01
	00 00		 mov	 rdx, QWORD PTR _Capacity$[rbp]
  0004b	48 8b 8d 00 01
	00 00		 mov	 rcx, QWORD PTR _Al$[rbp]
  00052	e8 00 00 00 00	 call	 ??$_Allocate_at_least_helper@V?$allocator@D@std@@@std@@YAPEADAEAV?$allocator@D@0@AEA_K@Z ; std::_Allocate_at_least_helper<std::allocator<char> >
  00057	48 89 45 08	 mov	 QWORD PTR _Fancy_ptr$[rbp], rax

; 811  :         } else {
; 812  :             _STL_INTERNAL_STATIC_ASSERT(_Policy == _Allocation_policy::_Exactly);
; 813  :             _Fancy_ptr = _Al.allocate(_Capacity);
; 814  :         }
; 815  : 
; 816  : #if _HAS_CXX20
; 817  :         // Start element lifetimes to avoid UB. This is a more general mechanism than _String_val::_Activate_SSO_buffer,
; 818  :         // but likely more impactful to throughput.
; 819  :         if (_STD is_constant_evaluated()) {
; 820  :             _Elem* const _Ptr = _Unfancy(_Fancy_ptr);
; 821  :             for (size_type _Idx = 0; _Idx < _Capacity; ++_Idx) {
; 822  :                 _STD construct_at(_Ptr + _Idx);
; 823  :             }
; 824  :         }
; 825  : #endif // _HAS_CXX20
; 826  :         --_Capacity;

  0005b	48 8b 85 08 01
	00 00		 mov	 rax, QWORD PTR _Capacity$[rbp]
  00062	48 8b 00	 mov	 rax, QWORD PTR [rax]
  00065	48 ff c8	 dec	 rax
  00068	48 8b 8d 08 01
	00 00		 mov	 rcx, QWORD PTR _Capacity$[rbp]
  0006f	48 89 01	 mov	 QWORD PTR [rcx], rax

; 827  :         return _Fancy_ptr;

  00072	48 8b 45 08	 mov	 rax, QWORD PTR _Fancy_ptr$[rbp]

; 828  :     }

  00076	48 8d a5 e8 00
	00 00		 lea	 rsp, QWORD PTR [rbp+232]
  0007d	5f		 pop	 rdi
  0007e	5d		 pop	 rbp
  0007f	c3		 ret	 0
??$_Allocate_for_capacity@$0A@@?$basic_string@DU?$char_traits@D@std@@V?$allocator@D@2@@std@@CAPEADAEAV?$allocator@D@1@AEA_K@Z ENDP ; std::basic_string<char,std::char_traits<char>,std::allocator<char> >::_Allocate_for_capacity<0>
_TEXT	ENDS
; Function compile flags: /Odtp /RTCsu /ZI
; File C:\Program Files\Microsoft Visual Studio\2022\Community\VC\Tools\MSVC\14.42.34433\include\xmemory
;	COMDAT ??$_Unfancy@U_Container_proxy@std@@@std@@YAPEAU_Container_proxy@0@PEAU10@@Z
_TEXT	SEGMENT
_Ptr$ = 224
??$_Unfancy@U_Container_proxy@std@@@std@@YAPEAU_Container_proxy@0@PEAU10@@Z PROC ; std::_Unfancy<std::_Container_proxy>, COMDAT

; 35   : _NODISCARD constexpr _Ty* _Unfancy(_Ty* _Ptr) noexcept { // do nothing for plain pointers

$LN4:
  00000	48 89 4c 24 08	 mov	 QWORD PTR [rsp+8], rcx
  00005	55		 push	 rbp
  00006	57		 push	 rdi
  00007	48 81 ec e8 00
	00 00		 sub	 rsp, 232		; 000000e8H
  0000e	48 8d 6c 24 20	 lea	 rbp, QWORD PTR [rsp+32]
  00013	48 8d 0d 00 00
	00 00		 lea	 rcx, OFFSET FLAT:__03BD3355_xmemory
  0001a	e8 00 00 00 00	 call	 __CheckForDebuggerJustMyCode
  0001f	90		 npad	 1

; 36   :     return _Ptr;

  00020	48 8b 85 e0 00
	00 00		 mov	 rax, QWORD PTR _Ptr$[rbp]

; 37   : }

  00027	48 8d a5 c8 00
	00 00		 lea	 rsp, QWORD PTR [rbp+200]
  0002e	5f		 pop	 rdi
  0002f	5d		 pop	 rbp
  00030	c3		 ret	 0
??$_Unfancy@U_Container_proxy@std@@@std@@YAPEAU_Container_proxy@0@PEAU10@@Z ENDP ; std::_Unfancy<std::_Container_proxy>
_TEXT	ENDS
; Function compile flags: /Odtp /RTCsu /ZI
; File C:\Program Files\Microsoft Visual Studio\2022\Community\VC\Tools\MSVC\14.42.34433\include\xmemory
;	COMDAT ??1?$_Container_proxy_ptr12@V?$allocator@U_Container_proxy@std@@@std@@@std@@QEAA@XZ
_TEXT	SEGMENT
this$ = 224
??1?$_Container_proxy_ptr12@V?$allocator@U_Container_proxy@std@@@std@@@std@@QEAA@XZ PROC ; std::_Container_proxy_ptr12<std::allocator<std::_Container_proxy> >::~_Container_proxy_ptr12<std::allocator<std::_Container_proxy> >, COMDAT

; 1459 :     _CONSTEXPR20 ~_Container_proxy_ptr12() {

$LN5:
  00000	48 89 4c 24 08	 mov	 QWORD PTR [rsp+8], rcx
  00005	55		 push	 rbp
  00006	57		 push	 rdi
  00007	48 81 ec e8 00
	00 00		 sub	 rsp, 232		; 000000e8H
  0000e	48 8d 6c 24 20	 lea	 rbp, QWORD PTR [rsp+32]
  00013	48 8d 0d 00 00
	00 00		 lea	 rcx, OFFSET FLAT:__03BD3355_xmemory
  0001a	e8 00 00 00 00	 call	 __CheckForDebuggerJustMyCode
  0001f	90		 npad	 1

; 1460 :         if (_Ptr) {

  00020	48 8b 85 e0 00
	00 00		 mov	 rax, QWORD PTR this$[rbp]
  00027	48 83 38 00	 cmp	 QWORD PTR [rax], 0
  0002b	74 1b		 je	 SHORT $LN2@Container_

; 1461 :             _Delete_plain_internal(_Al, _Ptr);

  0002d	48 8b 85 e0 00
	00 00		 mov	 rax, QWORD PTR this$[rbp]
  00034	48 8b 10	 mov	 rdx, QWORD PTR [rax]
  00037	48 8b 85 e0 00
	00 00		 mov	 rax, QWORD PTR this$[rbp]
  0003e	48 8b 48 08	 mov	 rcx, QWORD PTR [rax+8]
  00042	e8 00 00 00 00	 call	 ??$_Delete_plain_internal@V?$allocator@U_Container_proxy@std@@@std@@@std@@YAXAEAV?$allocator@U_Container_proxy@std@@@0@QEAU_Container_proxy@0@@Z ; std::_Delete_plain_internal<std::allocator<std::_Container_proxy> >
  00047	90		 npad	 1
$LN2@Container_:

; 1462 :         }
; 1463 :     }

  00048	48 8d a5 c8 00
	00 00		 lea	 rsp, QWORD PTR [rbp+200]
  0004f	5f		 pop	 rdi
  00050	5d		 pop	 rbp
  00051	c3		 ret	 0
??1?$_Container_proxy_ptr12@V?$allocator@U_Container_proxy@std@@@std@@@std@@QEAA@XZ ENDP ; std::_Container_proxy_ptr12<std::allocator<std::_Container_proxy> >::~_Container_proxy_ptr12<std::allocator<std::_Container_proxy> >
_TEXT	ENDS
; Function compile flags: /Odtp /RTCsu /ZI
; File C:\Program Files\Microsoft Visual Studio\2022\Community\VC\Tools\MSVC\14.42.34433\include\xmemory
;	COMDAT ??0?$_Container_proxy_ptr12@V?$allocator@U_Container_proxy@std@@@std@@@std@@QEAA@AEAV?$allocator@U_Container_proxy@std@@@1@AEAU_Container_base12@1@@Z
_TEXT	SEGMENT
$T1 = 200
this$ = 256
_Al_$ = 264
_Mycont$ = 272
??0?$_Container_proxy_ptr12@V?$allocator@U_Container_proxy@std@@@std@@@std@@QEAA@AEAV?$allocator@U_Container_proxy@std@@@1@AEAU_Container_base12@1@@Z PROC ; std::_Container_proxy_ptr12<std::allocator<std::_Container_proxy> >::_Container_proxy_ptr12<std::allocator<std::_Container_proxy> >, COMDAT

; 1445 :     _CONSTEXPR20 _Container_proxy_ptr12(_Alloc& _Al_, _Container_base12& _Mycont) : _Al(_Al_) {

$LN3:
  00000	4c 89 44 24 18	 mov	 QWORD PTR [rsp+24], r8
  00005	48 89 54 24 10	 mov	 QWORD PTR [rsp+16], rdx
  0000a	48 89 4c 24 08	 mov	 QWORD PTR [rsp+8], rcx
  0000f	55		 push	 rbp
  00010	57		 push	 rdi
  00011	48 81 ec 08 01
	00 00		 sub	 rsp, 264		; 00000108H
  00018	48 8d 6c 24 20	 lea	 rbp, QWORD PTR [rsp+32]
  0001d	48 8d 0d 00 00
	00 00		 lea	 rcx, OFFSET FLAT:__03BD3355_xmemory
  00024	e8 00 00 00 00	 call	 __CheckForDebuggerJustMyCode
  00029	90		 npad	 1
  0002a	48 8b 8d 00 01
	00 00		 mov	 rcx, QWORD PTR this$[rbp]
  00031	e8 00 00 00 00	 call	 ??0_Basic_container_proxy_ptr12@std@@IEAA@XZ ; std::_Basic_container_proxy_ptr12::_Basic_container_proxy_ptr12
  00036	90		 npad	 1
  00037	48 8b 85 00 01
	00 00		 mov	 rax, QWORD PTR this$[rbp]
  0003e	48 8b 8d 08 01
	00 00		 mov	 rcx, QWORD PTR _Al_$[rbp]
  00045	48 89 48 08	 mov	 QWORD PTR [rax+8], rcx

; 1446 :         // create a new _Container_proxy pointing at _Mycont
; 1447 :         _Ptr = _Unfancy(_Al_.allocate(1));

  00049	ba 01 00 00 00	 mov	 edx, 1
  0004e	48 8b 8d 08 01
	00 00		 mov	 rcx, QWORD PTR _Al_$[rbp]
  00055	e8 00 00 00 00	 call	 ?allocate@?$allocator@U_Container_proxy@std@@@std@@QEAAPEAU_Container_proxy@2@_K@Z ; std::allocator<std::_Container_proxy>::allocate
  0005a	48 8b c8	 mov	 rcx, rax
  0005d	e8 00 00 00 00	 call	 ??$_Unfancy@U_Container_proxy@std@@@std@@YAPEAU_Container_proxy@0@PEAU10@@Z ; std::_Unfancy<std::_Container_proxy>
  00062	48 8b 8d 00 01
	00 00		 mov	 rcx, QWORD PTR this$[rbp]
  00069	48 89 01	 mov	 QWORD PTR [rcx], rax

; 1448 :         _Construct_in_place(*_Ptr, _STD addressof(_Mycont));

  0006c	48 8b 8d 10 01
	00 00		 mov	 rcx, QWORD PTR _Mycont$[rbp]
  00073	e8 00 00 00 00	 call	 ??$addressof@U_Container_base12@std@@@std@@YAPEAU_Container_base12@0@AEAU10@@Z ; std::addressof<std::_Container_base12>
  00078	48 89 85 c8 00
	00 00		 mov	 QWORD PTR $T1[rbp], rax
  0007f	48 8d 95 c8 00
	00 00		 lea	 rdx, QWORD PTR $T1[rbp]
  00086	48 8b 85 00 01
	00 00		 mov	 rax, QWORD PTR this$[rbp]
  0008d	48 8b 08	 mov	 rcx, QWORD PTR [rax]
  00090	e8 00 00 00 00	 call	 ??$_Construct_in_place@U_Container_proxy@std@@PEAU_Container_base12@2@@std@@YAXAEAU_Container_proxy@0@$$QEAPEAU_Container_base12@0@@Z ; std::_Construct_in_place<std::_Container_proxy,std::_Container_base12 *>
  00095	90		 npad	 1

; 1449 :         _Mycont._Myproxy = _Ptr;

  00096	48 8b 85 10 01
	00 00		 mov	 rax, QWORD PTR _Mycont$[rbp]
  0009d	48 8b 8d 00 01
	00 00		 mov	 rcx, QWORD PTR this$[rbp]
  000a4	48 8b 09	 mov	 rcx, QWORD PTR [rcx]
  000a7	48 89 08	 mov	 QWORD PTR [rax], rcx

; 1450 :     }

  000aa	48 8b 85 00 01
	00 00		 mov	 rax, QWORD PTR this$[rbp]
  000b1	48 8d a5 e8 00
	00 00		 lea	 rsp, QWORD PTR [rbp+232]
  000b8	5f		 pop	 rdi
  000b9	5d		 pop	 rbp
  000ba	c3		 ret	 0
??0?$_Container_proxy_ptr12@V?$allocator@U_Container_proxy@std@@@std@@@std@@QEAA@AEAV?$allocator@U_Container_proxy@std@@@1@AEAU_Container_base12@1@@Z ENDP ; std::_Container_proxy_ptr12<std::allocator<std::_Container_proxy> >::_Container_proxy_ptr12<std::allocator<std::_Container_proxy> >
_TEXT	ENDS
; Function compile flags: /Odtp /RTCsu /ZI
; File C:\Program Files\Microsoft Visual Studio\2022\Community\VC\Tools\MSVC\14.42.34433\include\xmemory
;	COMDAT ??$_Deallocate_plain@V?$allocator@U_Container_proxy@std@@@std@@@std@@YAXAEAV?$allocator@U_Container_proxy@std@@@0@QEAU_Container_proxy@0@@Z
_TEXT	SEGMENT
_Al$ = 224
_Ptr$ = 232
??$_Deallocate_plain@V?$allocator@U_Container_proxy@std@@@std@@@std@@YAXAEAV?$allocator@U_Container_proxy@std@@@0@QEAU_Container_proxy@0@@Z PROC ; std::_Deallocate_plain<std::allocator<std::_Container_proxy> >, COMDAT

; 1099 : _CONSTEXPR20 void _Deallocate_plain(_Alloc& _Al, typename _Alloc::value_type* const _Ptr) noexcept {

$LN4:
  00000	48 89 54 24 10	 mov	 QWORD PTR [rsp+16], rdx
  00005	48 89 4c 24 08	 mov	 QWORD PTR [rsp+8], rcx
  0000a	55		 push	 rbp
  0000b	57		 push	 rdi
  0000c	48 81 ec e8 00
	00 00		 sub	 rsp, 232		; 000000e8H
  00013	48 8d 6c 24 20	 lea	 rbp, QWORD PTR [rsp+32]
  00018	48 8d 0d 00 00
	00 00		 lea	 rcx, OFFSET FLAT:__03BD3355_xmemory
  0001f	e8 00 00 00 00	 call	 __CheckForDebuggerJustMyCode
  00024	90		 npad	 1

; 1100 :     // deallocate a plain pointer using an allocator
; 1101 :     using _Alloc_traits = allocator_traits<_Alloc>;
; 1102 :     if constexpr (is_same_v<_Alloc_ptr_t<_Alloc>, typename _Alloc::value_type*>) {
; 1103 :         _Alloc_traits::deallocate(_Al, _Ptr, 1);

  00025	41 b8 01 00 00
	00		 mov	 r8d, 1
  0002b	48 8b 95 e8 00
	00 00		 mov	 rdx, QWORD PTR _Ptr$[rbp]
  00032	48 8b 8d e0 00
	00 00		 mov	 rcx, QWORD PTR _Al$[rbp]
  00039	e8 00 00 00 00	 call	 ?deallocate@?$_Default_allocator_traits@V?$allocator@U_Container_proxy@std@@@std@@@std@@SAXAEAV?$allocator@U_Container_proxy@std@@@2@QEAU_Container_proxy@2@_K@Z ; std::_Default_allocator_traits<std::allocator<std::_Container_proxy> >::deallocate
  0003e	90		 npad	 1

; 1104 :     } else {
; 1105 :         using _Ptr_traits = pointer_traits<_Alloc_ptr_t<_Alloc>>;
; 1106 :         _Alloc_traits::deallocate(_Al, _Ptr_traits::pointer_to(*_Ptr), 1);
; 1107 :     }
; 1108 : }

  0003f	48 8d a5 c8 00
	00 00		 lea	 rsp, QWORD PTR [rbp+200]
  00046	5f		 pop	 rdi
  00047	5d		 pop	 rbp
  00048	c3		 ret	 0
??$_Deallocate_plain@V?$allocator@U_Container_proxy@std@@@std@@@std@@YAXAEAV?$allocator@U_Container_proxy@std@@@0@QEAU_Container_proxy@0@@Z ENDP ; std::_Deallocate_plain<std::allocator<std::_Container_proxy> >
_TEXT	ENDS
; Function compile flags: /Odtp /RTCsu /ZI
; File C:\Program Files\Microsoft Visual Studio\2022\Community\VC\Tools\MSVC\14.42.34433\include\__msvc_string_view.hpp
;	COMDAT ??$_Insert_string@DU?$char_traits@D@std@@_K@std@@YAAEAV?$basic_ostream@DU?$char_traits@D@std@@@0@AEAV10@QEBD_K@Z
_TEXT	SEGMENT
_State$ = 4
_Pad$ = 40
_Ok$ = 72
$T4 = 312
tv279 = 324
tv281 = 324
tv136 = 328
tv291 = 328
tv292 = 328
__$ArrayPad$ = 336
_Ostr$ = 384
_Data$ = 392
_Size$ = 400
??$_Insert_string@DU?$char_traits@D@std@@_K@std@@YAAEAV?$basic_ostream@DU?$char_traits@D@std@@@0@AEAV10@QEBD_K@Z PROC ; std::_Insert_string<char,std::char_traits<char>,unsigned __int64>, COMDAT

; 474  :     basic_ostream<_Elem, _Traits>& _Ostr, const _Elem* const _Data, const _SizeT _Size) {

$LN26:
  00000	4c 89 44 24 18	 mov	 QWORD PTR [rsp+24], r8
  00005	48 89 54 24 10	 mov	 QWORD PTR [rsp+16], rdx
  0000a	48 89 4c 24 08	 mov	 QWORD PTR [rsp+8], rcx
  0000f	55		 push	 rbp
  00010	57		 push	 rdi
  00011	48 81 ec 88 01
	00 00		 sub	 rsp, 392		; 00000188H
  00018	48 8d 6c 24 20	 lea	 rbp, QWORD PTR [rsp+32]
  0001d	48 8d 7c 24 20	 lea	 rdi, QWORD PTR [rsp+32]
  00022	b9 2a 00 00 00	 mov	 ecx, 42			; 0000002aH
  00027	b8 cc cc cc cc	 mov	 eax, -858993460		; ccccccccH
  0002c	f3 ab		 rep stosd
  0002e	48 8b 8c 24 a8
	01 00 00	 mov	 rcx, QWORD PTR [rsp+424]
  00036	48 8b 05 00 00
	00 00		 mov	 rax, QWORD PTR __security_cookie
  0003d	48 33 c5	 xor	 rax, rbp
  00040	48 89 85 50 01
	00 00		 mov	 QWORD PTR __$ArrayPad$[rbp], rax
  00047	48 8d 0d 00 00
	00 00		 lea	 rcx, OFFSET FLAT:__39B162D3___msvc_string_view@hpp
  0004e	e8 00 00 00 00	 call	 __CheckForDebuggerJustMyCode
  00053	90		 npad	 1

; 475  :     // insert a character-type sequence into _Ostr as if through a basic_string copy
; 476  :     using _Ostr_t                    = basic_ostream<_Elem, _Traits>;
; 477  :     typename _Ostr_t::iostate _State = _Ostr_t::goodbit;

  00054	c7 45 04 00 00
	00 00		 mov	 DWORD PTR _State$[rbp], 0

; 478  : 
; 479  :     _SizeT _Pad;
; 480  :     if (_Ostr.width() <= 0 || static_cast<_SizeT>(_Ostr.width()) <= _Size) {

  0005b	48 8b 85 80 01
	00 00		 mov	 rax, QWORD PTR _Ostr$[rbp]
  00062	48 8b 00	 mov	 rax, QWORD PTR [rax]
  00065	48 63 40 04	 movsxd	 rax, DWORD PTR [rax+4]
  00069	48 8b 8d 80 01
	00 00		 mov	 rcx, QWORD PTR _Ostr$[rbp]
  00070	48 03 c8	 add	 rcx, rax
  00073	48 8b c1	 mov	 rax, rcx
  00076	48 8b c8	 mov	 rcx, rax
  00079	ff 15 00 00 00
	00		 call	 QWORD PTR __imp_?width@ios_base@std@@QEBA_JXZ
  0007f	48 85 c0	 test	 rax, rax
  00082	7e 2d		 jle	 SHORT $LN10@Insert_str
  00084	48 8b 85 80 01
	00 00		 mov	 rax, QWORD PTR _Ostr$[rbp]
  0008b	48 8b 00	 mov	 rax, QWORD PTR [rax]
  0008e	48 63 40 04	 movsxd	 rax, DWORD PTR [rax+4]
  00092	48 8b 8d 80 01
	00 00		 mov	 rcx, QWORD PTR _Ostr$[rbp]
  00099	48 03 c8	 add	 rcx, rax
  0009c	48 8b c1	 mov	 rax, rcx
  0009f	48 8b c8	 mov	 rcx, rax
  000a2	ff 15 00 00 00
	00		 call	 QWORD PTR __imp_?width@ios_base@std@@QEBA_JXZ
  000a8	48 3b 85 90 01
	00 00		 cmp	 rax, QWORD PTR _Size$[rbp]
  000af	77 0a		 ja	 SHORT $LN8@Insert_str
$LN10@Insert_str:

; 481  :         _Pad = 0;

  000b1	48 c7 45 28 00
	00 00 00	 mov	 QWORD PTR _Pad$[rbp], 0

; 482  :     } else {

  000b9	eb 2f		 jmp	 SHORT $LN9@Insert_str
$LN8@Insert_str:

; 483  :         _Pad = static_cast<_SizeT>(_Ostr.width()) - _Size;

  000bb	48 8b 85 80 01
	00 00		 mov	 rax, QWORD PTR _Ostr$[rbp]
  000c2	48 8b 00	 mov	 rax, QWORD PTR [rax]
  000c5	48 63 40 04	 movsxd	 rax, DWORD PTR [rax+4]
  000c9	48 8b 8d 80 01
	00 00		 mov	 rcx, QWORD PTR _Ostr$[rbp]
  000d0	48 03 c8	 add	 rcx, rax
  000d3	48 8b c1	 mov	 rax, rcx
  000d6	48 8b c8	 mov	 rcx, rax
  000d9	ff 15 00 00 00
	00		 call	 QWORD PTR __imp_?width@ios_base@std@@QEBA_JXZ
  000df	48 2b 85 90 01
	00 00		 sub	 rax, QWORD PTR _Size$[rbp]
  000e6	48 89 45 28	 mov	 QWORD PTR _Pad$[rbp], rax
$LN9@Insert_str:

; 484  :     }
; 485  : 
; 486  :     const typename _Ostr_t::sentry _Ok(_Ostr);

  000ea	48 8b 95 80 01
	00 00		 mov	 rdx, QWORD PTR _Ostr$[rbp]
  000f1	48 8d 4d 48	 lea	 rcx, QWORD PTR _Ok$[rbp]
  000f5	e8 00 00 00 00	 call	 ??0sentry@?$basic_ostream@DU?$char_traits@D@std@@@std@@QEAA@AEAV12@@Z ; std::basic_ostream<char,std::char_traits<char> >::sentry::sentry
  000fa	90		 npad	 1

; 487  : 
; 488  :     if (!_Ok) {

  000fb	48 8d 4d 48	 lea	 rcx, QWORD PTR _Ok$[rbp]
  000ff	e8 00 00 00 00	 call	 ??Bsentry@?$basic_ostream@DU?$char_traits@D@std@@@std@@QEBA_NXZ ; std::basic_ostream<char,std::char_traits<char> >::sentry::operator bool
  00104	0f b6 c0	 movzx	 eax, al
  00107	85 c0		 test	 eax, eax
  00109	75 0e		 jne	 SHORT $LN11@Insert_str

; 489  :         _State |= _Ostr_t::badbit;

  0010b	8b 45 04	 mov	 eax, DWORD PTR _State$[rbp]
  0010e	83 c8 04	 or	 eax, 4
  00111	89 45 04	 mov	 DWORD PTR _State$[rbp], eax

; 490  :     } else { // state okay, insert characters

  00114	e9 0b 02 00 00	 jmp	 $LN12@Insert_str
$LN11@Insert_str:

; 491  :         _TRY_IO_BEGIN
; 492  :         if ((_Ostr.flags() & _Ostr_t::adjustfield) != _Ostr_t::left) {

  00119	48 8b 85 80 01
	00 00		 mov	 rax, QWORD PTR _Ostr$[rbp]
  00120	48 8b 00	 mov	 rax, QWORD PTR [rax]
  00123	48 63 40 04	 movsxd	 rax, DWORD PTR [rax+4]
  00127	48 8b 8d 80 01
	00 00		 mov	 rcx, QWORD PTR _Ostr$[rbp]
  0012e	48 03 c8	 add	 rcx, rax
  00131	48 8b c1	 mov	 rax, rcx
  00134	48 8b c8	 mov	 rcx, rax
  00137	ff 15 00 00 00
	00		 call	 QWORD PTR __imp_?flags@ios_base@std@@QEBAHXZ
  0013d	25 c0 01 00 00	 and	 eax, 448		; 000001c0H
  00142	83 f8 40	 cmp	 eax, 64			; 00000040H
  00145	0f 84 a5 00 00
	00		 je	 $LN14@Insert_str

; 493  :             for (; 0 < _Pad; --_Pad) { // pad on left

  0014b	eb 0b		 jmp	 SHORT $LN4@Insert_str
$LN2@Insert_str:
  0014d	48 8b 45 28	 mov	 rax, QWORD PTR _Pad$[rbp]
  00151	48 ff c8	 dec	 rax
  00154	48 89 45 28	 mov	 QWORD PTR _Pad$[rbp], rax
$LN4@Insert_str:
  00158	48 83 7d 28 00	 cmp	 QWORD PTR _Pad$[rbp], 0
  0015d	0f 86 8d 00 00
	00		 jbe	 $LN14@Insert_str

; 494  :                 if (_Traits::eq_int_type(_Traits::eof(), _Ostr.rdbuf()->sputc(_Ostr.fill()))) {

  00163	48 8b 85 80 01
	00 00		 mov	 rax, QWORD PTR _Ostr$[rbp]
  0016a	48 8b 00	 mov	 rax, QWORD PTR [rax]
  0016d	48 63 40 04	 movsxd	 rax, DWORD PTR [rax+4]
  00171	48 8b 8d 80 01
	00 00		 mov	 rcx, QWORD PTR _Ostr$[rbp]
  00178	48 03 c8	 add	 rcx, rax
  0017b	48 8b c1	 mov	 rax, rcx
  0017e	48 8b c8	 mov	 rcx, rax
  00181	ff 15 00 00 00
	00		 call	 QWORD PTR __imp_?fill@?$basic_ios@DU?$char_traits@D@std@@@std@@QEBADXZ
  00187	88 85 44 01 00
	00		 mov	 BYTE PTR tv281[rbp], al
  0018d	48 8b 8d 80 01
	00 00		 mov	 rcx, QWORD PTR _Ostr$[rbp]
  00194	48 8b 09	 mov	 rcx, QWORD PTR [rcx]
  00197	48 63 49 04	 movsxd	 rcx, DWORD PTR [rcx+4]
  0019b	48 8b 95 80 01
	00 00		 mov	 rdx, QWORD PTR _Ostr$[rbp]
  001a2	48 03 d1	 add	 rdx, rcx
  001a5	48 8b ca	 mov	 rcx, rdx
  001a8	ff 15 00 00 00
	00		 call	 QWORD PTR __imp_?rdbuf@?$basic_ios@DU?$char_traits@D@std@@@std@@QEBAPEAV?$basic_streambuf@DU?$char_traits@D@std@@@2@XZ
  001ae	0f b6 8d 44 01
	00 00		 movzx	 ecx, BYTE PTR tv281[rbp]
  001b5	0f b6 d1	 movzx	 edx, cl
  001b8	48 8b c8	 mov	 rcx, rax
  001bb	ff 15 00 00 00
	00		 call	 QWORD PTR __imp_?sputc@?$basic_streambuf@DU?$char_traits@D@std@@@std@@QEAAHD@Z
  001c1	89 85 48 01 00
	00		 mov	 DWORD PTR tv136[rbp], eax
  001c7	e8 00 00 00 00	 call	 ?eof@?$_Narrow_char_traits@DH@std@@SAHXZ ; std::_Narrow_char_traits<char,int>::eof
  001cc	8b 95 48 01 00
	00		 mov	 edx, DWORD PTR tv136[rbp]
  001d2	8b c8		 mov	 ecx, eax
  001d4	e8 00 00 00 00	 call	 ?eq_int_type@?$_Narrow_char_traits@DH@std@@SA_NHH@Z ; std::_Narrow_char_traits<char,int>::eq_int_type
  001d9	0f b6 c0	 movzx	 eax, al
  001dc	85 c0		 test	 eax, eax
  001de	74 0b		 je	 SHORT $LN15@Insert_str

; 495  :                     _State |= _Ostr_t::badbit; // insertion failed, quit

  001e0	8b 45 04	 mov	 eax, DWORD PTR _State$[rbp]
  001e3	83 c8 04	 or	 eax, 4
  001e6	89 45 04	 mov	 DWORD PTR _State$[rbp], eax

; 496  :                     break;

  001e9	eb 05		 jmp	 SHORT $LN14@Insert_str
$LN15@Insert_str:

; 497  :                 }
; 498  :             }

  001eb	e9 5d ff ff ff	 jmp	 $LN2@Insert_str
$LN14@Insert_str:

; 499  :         }
; 500  : 
; 501  :         if (_State == _Ostr_t::goodbit
; 502  :             && _Ostr.rdbuf()->sputn(_Data, static_cast<streamsize>(_Size)) != static_cast<streamsize>(_Size)) {

  001f0	83 7d 04 00	 cmp	 DWORD PTR _State$[rbp], 0
  001f4	75 60		 jne	 SHORT $LN16@Insert_str
  001f6	48 8b 85 80 01
	00 00		 mov	 rax, QWORD PTR _Ostr$[rbp]
  001fd	48 8b 00	 mov	 rax, QWORD PTR [rax]
  00200	48 63 40 04	 movsxd	 rax, DWORD PTR [rax+4]
  00204	48 8b 8d 80 01
	00 00		 mov	 rcx, QWORD PTR _Ostr$[rbp]
  0020b	48 03 c8	 add	 rcx, rax
  0020e	48 8b c1	 mov	 rax, rcx
  00211	48 8b c8	 mov	 rcx, rax
  00214	ff 15 00 00 00
	00		 call	 QWORD PTR __imp_?rdbuf@?$basic_ios@DU?$char_traits@D@std@@@std@@QEBAPEAV?$basic_streambuf@DU?$char_traits@D@std@@@2@XZ
  0021a	4c 8b 85 90 01
	00 00		 mov	 r8, QWORD PTR _Size$[rbp]
  00221	48 8b 95 88 01
	00 00		 mov	 rdx, QWORD PTR _Data$[rbp]
  00228	48 8b c8	 mov	 rcx, rax
  0022b	ff 15 00 00 00
	00		 call	 QWORD PTR __imp_?sputn@?$basic_streambuf@DU?$char_traits@D@std@@@std@@QEAA_JPEBD_J@Z
  00231	48 89 85 48 01
	00 00		 mov	 QWORD PTR tv291[rbp], rax
  00238	48 8b 85 90 01
	00 00		 mov	 rax, QWORD PTR _Size$[rbp]
  0023f	48 39 85 48 01
	00 00		 cmp	 QWORD PTR tv291[rbp], rax
  00246	74 0e		 je	 SHORT $LN16@Insert_str

; 503  :             _State |= _Ostr_t::badbit;

  00248	8b 45 04	 mov	 eax, DWORD PTR _State$[rbp]
  0024b	83 c8 04	 or	 eax, 4
  0024e	89 45 04	 mov	 DWORD PTR _State$[rbp], eax

; 504  :         } else {

  00251	e9 a5 00 00 00	 jmp	 $LN17@Insert_str
$LN16@Insert_str:

; 505  :             for (; 0 < _Pad; --_Pad) { // pad on right

  00256	eb 0b		 jmp	 SHORT $LN7@Insert_str
$LN5@Insert_str:
  00258	48 8b 45 28	 mov	 rax, QWORD PTR _Pad$[rbp]
  0025c	48 ff c8	 dec	 rax
  0025f	48 89 45 28	 mov	 QWORD PTR _Pad$[rbp], rax
$LN7@Insert_str:
  00263	48 83 7d 28 00	 cmp	 QWORD PTR _Pad$[rbp], 0
  00268	0f 86 8d 00 00
	00		 jbe	 $LN17@Insert_str

; 506  :                 if (_Traits::eq_int_type(_Traits::eof(), _Ostr.rdbuf()->sputc(_Ostr.fill()))) {

  0026e	48 8b 85 80 01
	00 00		 mov	 rax, QWORD PTR _Ostr$[rbp]
  00275	48 8b 00	 mov	 rax, QWORD PTR [rax]
  00278	48 63 40 04	 movsxd	 rax, DWORD PTR [rax+4]
  0027c	48 8b 8d 80 01
	00 00		 mov	 rcx, QWORD PTR _Ostr$[rbp]
  00283	48 03 c8	 add	 rcx, rax
  00286	48 8b c1	 mov	 rax, rcx
  00289	48 8b c8	 mov	 rcx, rax
  0028c	ff 15 00 00 00
	00		 call	 QWORD PTR __imp_?fill@?$basic_ios@DU?$char_traits@D@std@@@std@@QEBADXZ
  00292	88 85 44 01 00
	00		 mov	 BYTE PTR tv279[rbp], al
  00298	48 8b 8d 80 01
	00 00		 mov	 rcx, QWORD PTR _Ostr$[rbp]
  0029f	48 8b 09	 mov	 rcx, QWORD PTR [rcx]
  002a2	48 63 49 04	 movsxd	 rcx, DWORD PTR [rcx+4]
  002a6	48 8b 95 80 01
	00 00		 mov	 rdx, QWORD PTR _Ostr$[rbp]
  002ad	48 03 d1	 add	 rdx, rcx
  002b0	48 8b ca	 mov	 rcx, rdx
  002b3	ff 15 00 00 00
	00		 call	 QWORD PTR __imp_?rdbuf@?$basic_ios@DU?$char_traits@D@std@@@std@@QEBAPEAV?$basic_streambuf@DU?$char_traits@D@std@@@2@XZ
  002b9	0f b6 8d 44 01
	00 00		 movzx	 ecx, BYTE PTR tv279[rbp]
  002c0	0f b6 d1	 movzx	 edx, cl
  002c3	48 8b c8	 mov	 rcx, rax
  002c6	ff 15 00 00 00
	00		 call	 QWORD PTR __imp_?sputc@?$basic_streambuf@DU?$char_traits@D@std@@@std@@QEAAHD@Z
  002cc	89 85 48 01 00
	00		 mov	 DWORD PTR tv292[rbp], eax
  002d2	e8 00 00 00 00	 call	 ?eof@?$_Narrow_char_traits@DH@std@@SAHXZ ; std::_Narrow_char_traits<char,int>::eof
  002d7	8b 95 48 01 00
	00		 mov	 edx, DWORD PTR tv292[rbp]
  002dd	8b c8		 mov	 ecx, eax
  002df	e8 00 00 00 00	 call	 ?eq_int_type@?$_Narrow_char_traits@DH@std@@SA_NHH@Z ; std::_Narrow_char_traits<char,int>::eq_int_type
  002e4	0f b6 c0	 movzx	 eax, al
  002e7	85 c0		 test	 eax, eax
  002e9	74 0b		 je	 SHORT $LN18@Insert_str

; 507  :                     _State |= _Ostr_t::badbit; // insertion failed, quit

  002eb	8b 45 04	 mov	 eax, DWORD PTR _State$[rbp]
  002ee	83 c8 04	 or	 eax, 4
  002f1	89 45 04	 mov	 DWORD PTR _State$[rbp], eax

; 508  :                     break;

  002f4	eb 05		 jmp	 SHORT $LN17@Insert_str
$LN18@Insert_str:

; 509  :                 }
; 510  :             }

  002f6	e9 5d ff ff ff	 jmp	 $LN5@Insert_str
$LN17@Insert_str:

; 511  :         }
; 512  : 
; 513  :         _Ostr.width(0);

  002fb	48 8b 85 80 01
	00 00		 mov	 rax, QWORD PTR _Ostr$[rbp]
  00302	48 8b 00	 mov	 rax, QWORD PTR [rax]
  00305	48 63 40 04	 movsxd	 rax, DWORD PTR [rax+4]
  00309	48 8b 8d 80 01
	00 00		 mov	 rcx, QWORD PTR _Ostr$[rbp]
  00310	48 03 c8	 add	 rcx, rax
  00313	48 8b c1	 mov	 rax, rcx
  00316	33 d2		 xor	 edx, edx
  00318	48 8b c8	 mov	 rcx, rax
  0031b	ff 15 00 00 00
	00		 call	 QWORD PTR __imp_?width@ios_base@std@@QEAA_J_J@Z
  00321	90		 npad	 1
  00322	eb 00		 jmp	 SHORT $LN12@Insert_str
$LN24@Insert_str:
$LN12@Insert_str:

; 514  :         _CATCH_IO_(_Ostr_t, _Ostr)
; 515  :     }
; 516  : 
; 517  :     _Ostr.setstate(_State);

  00324	48 8b 85 80 01
	00 00		 mov	 rax, QWORD PTR _Ostr$[rbp]
  0032b	48 8b 00	 mov	 rax, QWORD PTR [rax]
  0032e	48 63 40 04	 movsxd	 rax, DWORD PTR [rax+4]
  00332	48 8b 8d 80 01
	00 00		 mov	 rcx, QWORD PTR _Ostr$[rbp]
  00339	48 03 c8	 add	 rcx, rax
  0033c	48 8b c1	 mov	 rax, rcx
  0033f	45 33 c0	 xor	 r8d, r8d
  00342	8b 55 04	 mov	 edx, DWORD PTR _State$[rbp]
  00345	48 8b c8	 mov	 rcx, rax
  00348	ff 15 00 00 00
	00		 call	 QWORD PTR __imp_?setstate@?$basic_ios@DU?$char_traits@D@std@@@std@@QEAAXH_N@Z
  0034e	90		 npad	 1

; 518  :     return _Ostr;

  0034f	48 8b 85 80 01
	00 00		 mov	 rax, QWORD PTR _Ostr$[rbp]
  00356	48 89 85 38 01
	00 00		 mov	 QWORD PTR $T4[rbp], rax
  0035d	48 8d 4d 48	 lea	 rcx, QWORD PTR _Ok$[rbp]
  00361	e8 00 00 00 00	 call	 ??1sentry@?$basic_ostream@DU?$char_traits@D@std@@@std@@QEAA@XZ ; std::basic_ostream<char,std::char_traits<char> >::sentry::~sentry
  00366	48 8b 85 38 01
	00 00		 mov	 rax, QWORD PTR $T4[rbp]

; 519  : }

  0036d	48 8b f8	 mov	 rdi, rax
  00370	48 8d 4d e0	 lea	 rcx, QWORD PTR [rbp-32]
  00374	48 8d 15 00 00
	00 00		 lea	 rdx, OFFSET FLAT:??$_Insert_string@DU?$char_traits@D@std@@_K@std@@YAAEAV?$basic_ostream@DU?$char_traits@D@std@@@0@AEAV10@QEBD_K@Z$rtcFrameData
  0037b	e8 00 00 00 00	 call	 _RTC_CheckStackVars
  00380	48 8b c7	 mov	 rax, rdi
  00383	48 8b 8d 50 01
	00 00		 mov	 rcx, QWORD PTR __$ArrayPad$[rbp]
  0038a	48 33 cd	 xor	 rcx, rbp
  0038d	e8 00 00 00 00	 call	 __security_check_cookie
  00392	48 8d a5 68 01
	00 00		 lea	 rsp, QWORD PTR [rbp+360]
  00399	5f		 pop	 rdi
  0039a	5d		 pop	 rbp
  0039b	c3		 ret	 0
??$_Insert_string@DU?$char_traits@D@std@@_K@std@@YAAEAV?$basic_ostream@DU?$char_traits@D@std@@@0@AEAV10@QEBD_K@Z ENDP ; std::_Insert_string<char,std::char_traits<char>,unsigned __int64>
_TEXT	ENDS
; Function compile flags: /Odtp /RTCsu /ZI
;	COMDAT text$x
text$x	SEGMENT
_State$ = 4
_Pad$ = 40
_Ok$ = 72
$T4 = 312
tv279 = 324
tv281 = 324
tv136 = 328
tv291 = 328
tv292 = 328
__$ArrayPad$ = 336
_Ostr$ = 384
_Data$ = 392
_Size$ = 400
?dtor$0@?0???$_Insert_string@DU?$char_traits@D@std@@_K@std@@YAAEAV?$basic_ostream@DU?$char_traits@D@std@@@0@AEAV10@QEBD_K@Z@4HA PROC ; `std::_Insert_string<char,std::char_traits<char>,unsigned __int64>'::`1'::dtor$0
  00000	48 89 4c 24 08	 mov	 QWORD PTR [rsp+8], rcx
  00005	48 89 54 24 10	 mov	 QWORD PTR [rsp+16], rdx
  0000a	55		 push	 rbp
  0000b	57		 push	 rdi
  0000c	48 83 ec 28	 sub	 rsp, 40			; 00000028H
  00010	48 8d 6a 20	 lea	 rbp, QWORD PTR [rdx+32]
  00014	48 8d 4d 48	 lea	 rcx, QWORD PTR _Ok$[rbp]
  00018	e8 00 00 00 00	 call	 ??1sentry@?$basic_ostream@DU?$char_traits@D@std@@@std@@QEAA@XZ ; std::basic_ostream<char,std::char_traits<char> >::sentry::~sentry
  0001d	48 83 c4 28	 add	 rsp, 40			; 00000028H
  00021	5f		 pop	 rdi
  00022	5d		 pop	 rbp
  00023	c3		 ret	 0
?dtor$0@?0???$_Insert_string@DU?$char_traits@D@std@@_K@std@@YAAEAV?$basic_ostream@DU?$char_traits@D@std@@@0@AEAV10@QEBD_K@Z@4HA ENDP ; `std::_Insert_string<char,std::char_traits<char>,unsigned __int64>'::`1'::dtor$0
text$x	ENDS
; Function compile flags: /Odtp /RTCsu /ZI
;	COMDAT text$x
text$x	SEGMENT
_State$ = 4
_Pad$ = 40
_Ok$ = 72
$T4 = 312
tv279 = 324
tv281 = 324
tv136 = 328
tv291 = 328
tv292 = 328
__$ArrayPad$ = 336
_Ostr$ = 384
_Data$ = 392
_Size$ = 400
?catch$1@?0???$_Insert_string@DU?$char_traits@D@std@@_K@std@@YAAEAV?$basic_ostream@DU?$char_traits@D@std@@@0@AEAV10@QEBD_K@Z@4HA PROC ; `std::_Insert_string<char,std::char_traits<char>,unsigned __int64>'::`1'::catch$1

; 514  :         _CATCH_IO_(_Ostr_t, _Ostr)

  00000	48 89 4c 24 08	 mov	 QWORD PTR [rsp+8], rcx
  00005	48 89 54 24 10	 mov	 QWORD PTR [rsp+16], rdx
  0000a	55		 push	 rbp
  0000b	57		 push	 rdi
  0000c	48 83 ec 28	 sub	 rsp, 40			; 00000028H
  00010	48 8d 6a 20	 lea	 rbp, QWORD PTR [rdx+32]
__catch$??$_Insert_string@DU?$char_traits@D@std@@_K@std@@YAAEAV?$basic_ostream@DU?$char_traits@D@std@@@0@AEAV10@QEBD_K@Z$0:
  00014	48 8b 85 80 01
	00 00		 mov	 rax, QWORD PTR _Ostr$[rbp]
  0001b	48 8b 00	 mov	 rax, QWORD PTR [rax]
  0001e	48 63 40 04	 movsxd	 rax, DWORD PTR [rax+4]
  00022	48 8b 8d 80 01
	00 00		 mov	 rcx, QWORD PTR _Ostr$[rbp]
  00029	48 03 c8	 add	 rcx, rax
  0002c	48 8b c1	 mov	 rax, rcx
  0002f	41 b0 01	 mov	 r8b, 1
  00032	ba 04 00 00 00	 mov	 edx, 4
  00037	48 8b c8	 mov	 rcx, rax
  0003a	ff 15 00 00 00
	00		 call	 QWORD PTR __imp_?setstate@?$basic_ios@DU?$char_traits@D@std@@@std@@QEAAXH_N@Z
  00040	90		 npad	 1
  00041	48 8d 05 00 00
	00 00		 lea	 rax, $LN24@catch$1
  00048	48 83 c4 28	 add	 rsp, 40			; 00000028H
  0004c	5f		 pop	 rdi
  0004d	5d		 pop	 rbp
  0004e	c3		 ret	 0
  0004f	cc		 int	 3
?catch$1@?0???$_Insert_string@DU?$char_traits@D@std@@_K@std@@YAAEAV?$basic_ostream@DU?$char_traits@D@std@@@0@AEAV10@QEBD_K@Z@4HA ENDP ; `std::_Insert_string<char,std::char_traits<char>,unsigned __int64>'::`1'::catch$1
text$x	ENDS
; Function compile flags: /Odtp /RTCsu /ZI
; File C:\Program Files\Microsoft Visual Studio\2022\Community\VC\Tools\MSVC\14.42.34433\include\xmemory
;	COMDAT ??$_Deallocate@$0BA@@std@@YAXPEAX_K@Z
_TEXT	SEGMENT
_Ptr$ = 224
_Bytes$ = 232
??$_Deallocate@$0BA@@std@@YAXPEAX_K@Z PROC		; std::_Deallocate<16>, COMDAT

; 230  : _CONSTEXPR20 void _Deallocate(void* _Ptr, size_t _Bytes) noexcept {

$LN5:
  00000	48 89 54 24 10	 mov	 QWORD PTR [rsp+16], rdx
  00005	48 89 4c 24 08	 mov	 QWORD PTR [rsp+8], rcx
  0000a	55		 push	 rbp
  0000b	57		 push	 rdi
  0000c	48 81 ec e8 00
	00 00		 sub	 rsp, 232		; 000000e8H
  00013	48 8d 6c 24 20	 lea	 rbp, QWORD PTR [rsp+32]
  00018	48 8d 0d 00 00
	00 00		 lea	 rcx, OFFSET FLAT:__03BD3355_xmemory
  0001f	e8 00 00 00 00	 call	 __CheckForDebuggerJustMyCode
  00024	90		 npad	 1

; 231  :     // deallocate storage allocated by _Allocate
; 232  : #if _HAS_CXX20 // TRANSITION, GH-1532
; 233  :     if (_STD is_constant_evaluated()) {
; 234  :         ::operator delete(_Ptr);
; 235  :         return;
; 236  :     }
; 237  : #endif // _HAS_CXX20
; 238  : 
; 239  : #ifdef __cpp_aligned_new
; 240  :     if constexpr (_Align > __STDCPP_DEFAULT_NEW_ALIGNMENT__) {
; 241  :         size_t _Passed_align = _Align;
; 242  : #if defined(_M_IX86) || defined(_M_X64)
; 243  :         if (_Bytes >= _Big_allocation_threshold) {
; 244  :             // boost the alignment of big allocations to help autovectorization
; 245  :             _Passed_align = (_STD max)(_Align, _Big_allocation_alignment);
; 246  :         }
; 247  : #endif // defined(_M_IX86) || defined(_M_X64)
; 248  :         ::operator delete(_Ptr, _Bytes, align_val_t{_Passed_align});
; 249  :     } else
; 250  : #endif // defined(__cpp_aligned_new)
; 251  :     {
; 252  : #if defined(_M_IX86) || defined(_M_X64)
; 253  :         if (_Bytes >= _Big_allocation_threshold) {

  00025	48 81 bd e8 00
	00 00 00 10 00
	00		 cmp	 QWORD PTR _Bytes$[rbp], 4096 ; 00001000H
  00030	72 14		 jb	 SHORT $LN2@Deallocate

; 254  :             // boost the alignment of big allocations to help autovectorization
; 255  :             _Adjust_manually_vector_aligned(_Ptr, _Bytes);

  00032	48 8d 95 e8 00
	00 00		 lea	 rdx, QWORD PTR _Bytes$[rbp]
  00039	48 8d 8d e0 00
	00 00		 lea	 rcx, QWORD PTR _Ptr$[rbp]
  00040	e8 00 00 00 00	 call	 ?_Adjust_manually_vector_aligned@std@@YAXAEAPEAXAEA_K@Z ; std::_Adjust_manually_vector_aligned
  00045	90		 npad	 1
$LN2@Deallocate:

; 256  :         }
; 257  : #endif // defined(_M_IX86) || defined(_M_X64)
; 258  :         ::operator delete(_Ptr, _Bytes);

  00046	48 8b 95 e8 00
	00 00		 mov	 rdx, QWORD PTR _Bytes$[rbp]
  0004d	48 8b 8d e0 00
	00 00		 mov	 rcx, QWORD PTR _Ptr$[rbp]
  00054	e8 00 00 00 00	 call	 ??3@YAXPEAX_K@Z		; operator delete
  00059	90		 npad	 1

; 259  :     }
; 260  : }

  0005a	48 8d a5 c8 00
	00 00		 lea	 rsp, QWORD PTR [rbp+200]
  00061	5f		 pop	 rdi
  00062	5d		 pop	 rbp
  00063	c3		 ret	 0
??$_Deallocate@$0BA@@std@@YAXPEAX_K@Z ENDP		; std::_Deallocate<16>
_TEXT	ENDS
; Function compile flags: /Odtp /RTCsu /ZI
; File C:\Program Files\Microsoft Visual Studio\2022\Community\VC\Tools\MSVC\14.42.34433\include\utility
;	COMDAT ??$max@_K@std@@YAAEB_KAEB_K0@Z
_TEXT	SEGMENT
$T1 = 200
tv65 = 216
_Left$ = 256
_Right$ = 264
??$max@_K@std@@YAAEB_KAEB_K0@Z PROC			; std::max<unsigned __int64>, COMDAT

; 75   :         noexcept(_Left < _Right)) /* strengthened */ {

$LN6:
  00000	48 89 54 24 10	 mov	 QWORD PTR [rsp+16], rdx
  00005	48 89 4c 24 08	 mov	 QWORD PTR [rsp+8], rcx
  0000a	55		 push	 rbp
  0000b	57		 push	 rdi
  0000c	48 81 ec 08 01
	00 00		 sub	 rsp, 264		; 00000108H
  00013	48 8d 6c 24 20	 lea	 rbp, QWORD PTR [rsp+32]
  00018	48 8d 0d 00 00
	00 00		 lea	 rcx, OFFSET FLAT:__69285096_utility
  0001f	e8 00 00 00 00	 call	 __CheckForDebuggerJustMyCode
  00024	90		 npad	 1

; 76   :     // return larger of _Left and _Right
; 77   :     return _Left < _Right ? _Right : _Left;

  00025	48 8b 85 00 01
	00 00		 mov	 rax, QWORD PTR _Left$[rbp]
  0002c	48 8b 8d 08 01
	00 00		 mov	 rcx, QWORD PTR _Right$[rbp]
  00033	48 8b 09	 mov	 rcx, QWORD PTR [rcx]
  00036	48 39 08	 cmp	 QWORD PTR [rax], rcx
  00039	73 10		 jae	 SHORT $LN3@max
  0003b	48 8b 85 08 01
	00 00		 mov	 rax, QWORD PTR _Right$[rbp]
  00042	48 89 85 d8 00
	00 00		 mov	 QWORD PTR tv65[rbp], rax
  00049	eb 0e		 jmp	 SHORT $LN4@max
$LN3@max:
  0004b	48 8b 85 00 01
	00 00		 mov	 rax, QWORD PTR _Left$[rbp]
  00052	48 89 85 d8 00
	00 00		 mov	 QWORD PTR tv65[rbp], rax
$LN4@max:
  00059	48 8b 85 d8 00
	00 00		 mov	 rax, QWORD PTR tv65[rbp]
  00060	48 89 85 c8 00
	00 00		 mov	 QWORD PTR $T1[rbp], rax
  00067	48 8b 85 c8 00
	00 00		 mov	 rax, QWORD PTR $T1[rbp]

; 78   : }

  0006e	48 8d a5 e8 00
	00 00		 lea	 rsp, QWORD PTR [rbp+232]
  00075	5f		 pop	 rdi
  00076	5d		 pop	 rbp
  00077	c3		 ret	 0
??$max@_K@std@@YAAEB_KAEB_K0@Z ENDP			; std::max<unsigned __int64>
_TEXT	ENDS
; Function compile flags: /Odtp /RTCsu /ZI
; File C:\Program Files\Microsoft Visual Studio\2022\Community\VC\Tools\MSVC\14.42.34433\include\xmemory
;	COMDAT ??$_Destroy_in_place@PEAD@std@@YAXAEAPEAD@Z
_TEXT	SEGMENT
_Obj$ = 224
??$_Destroy_in_place@PEAD@std@@YAXAEAPEAD@Z PROC	; std::_Destroy_in_place<char *>, COMDAT

; 289  : _CONSTEXPR20 void _Destroy_in_place(_Ty& _Obj) noexcept {

$LN4:
  00000	48 89 4c 24 08	 mov	 QWORD PTR [rsp+8], rcx
  00005	55		 push	 rbp
  00006	57		 push	 rdi
  00007	48 81 ec e8 00
	00 00		 sub	 rsp, 232		; 000000e8H
  0000e	48 8d 6c 24 20	 lea	 rbp, QWORD PTR [rsp+32]
  00013	48 8d 0d 00 00
	00 00		 lea	 rcx, OFFSET FLAT:__03BD3355_xmemory
  0001a	e8 00 00 00 00	 call	 __CheckForDebuggerJustMyCode
  0001f	90		 npad	 1

; 290  :     if constexpr (is_array_v<_Ty>) {
; 291  :         _STD _Destroy_range(_Obj, _Obj + extent_v<_Ty>);
; 292  :     } else {
; 293  :         _Obj.~_Ty();
; 294  :     }
; 295  : }

  00020	48 8d a5 c8 00
	00 00		 lea	 rsp, QWORD PTR [rbp+200]
  00027	5f		 pop	 rdi
  00028	5d		 pop	 rbp
  00029	c3		 ret	 0
??$_Destroy_in_place@PEAD@std@@YAXAEAPEAD@Z ENDP	; std::_Destroy_in_place<char *>
_TEXT	ENDS
; Function compile flags: /Odtp /RTCsu /ZI
; File C:\Program Files\Microsoft Visual Studio\2022\Community\VC\Tools\MSVC\14.42.34433\include\xmemory
;	COMDAT ??$_Unfancy@D@std@@YAPEADPEAD@Z
_TEXT	SEGMENT
_Ptr$ = 224
??$_Unfancy@D@std@@YAPEADPEAD@Z PROC			; std::_Unfancy<char>, COMDAT

; 35   : _NODISCARD constexpr _Ty* _Unfancy(_Ty* _Ptr) noexcept { // do nothing for plain pointers

$LN4:
  00000	48 89 4c 24 08	 mov	 QWORD PTR [rsp+8], rcx
  00005	55		 push	 rbp
  00006	57		 push	 rdi
  00007	48 81 ec e8 00
	00 00		 sub	 rsp, 232		; 000000e8H
  0000e	48 8d 6c 24 20	 lea	 rbp, QWORD PTR [rsp+32]
  00013	48 8d 0d 00 00
	00 00		 lea	 rcx, OFFSET FLAT:__03BD3355_xmemory
  0001a	e8 00 00 00 00	 call	 __CheckForDebuggerJustMyCode
  0001f	90		 npad	 1

; 36   :     return _Ptr;

  00020	48 8b 85 e0 00
	00 00		 mov	 rax, QWORD PTR _Ptr$[rbp]

; 37   : }

  00027	48 8d a5 c8 00
	00 00		 lea	 rsp, QWORD PTR [rbp+200]
  0002e	5f		 pop	 rdi
  0002f	5d		 pop	 rbp
  00030	c3		 ret	 0
??$_Unfancy@D@std@@YAPEADPEAD@Z ENDP			; std::_Unfancy<char>
_TEXT	ENDS
; Function compile flags: /Odtp /RTCsu /ZI
; File C:\Program Files\Microsoft Visual Studio\2022\Community\VC\Tools\MSVC\14.42.34433\include\type_traits
;	COMDAT ??$addressof@V?$basic_ostream@DU?$char_traits@D@std@@@std@@@std@@YAPEAV?$basic_ostream@DU?$char_traits@D@std@@@0@AEAV10@@Z
_TEXT	SEGMENT
_Val$ = 224
??$addressof@V?$basic_ostream@DU?$char_traits@D@std@@@std@@@std@@YAPEAV?$basic_ostream@DU?$char_traits@D@std@@@0@AEAV10@@Z PROC ; std::addressof<std::basic_ostream<char,std::char_traits<char> > >, COMDAT

; 1549 : _NODISCARD constexpr _Ty* addressof(_Ty& _Val) noexcept {

$LN4:
  00000	48 89 4c 24 08	 mov	 QWORD PTR [rsp+8], rcx
  00005	55		 push	 rbp
  00006	57		 push	 rdi
  00007	48 81 ec e8 00
	00 00		 sub	 rsp, 232		; 000000e8H
  0000e	48 8d 6c 24 20	 lea	 rbp, QWORD PTR [rsp+32]
  00013	48 8d 0d 00 00
	00 00		 lea	 rcx, OFFSET FLAT:__4C58012B_type_traits
  0001a	e8 00 00 00 00	 call	 __CheckForDebuggerJustMyCode
  0001f	90		 npad	 1

; 1550 :     return __builtin_addressof(_Val);

  00020	48 8b 85 e0 00
	00 00		 mov	 rax, QWORD PTR _Val$[rbp]

; 1551 : }

  00027	48 8d a5 c8 00
	00 00		 lea	 rsp, QWORD PTR [rbp+200]
  0002e	5f		 pop	 rdi
  0002f	5d		 pop	 rbp
  00030	c3		 ret	 0
??$addressof@V?$basic_ostream@DU?$char_traits@D@std@@@std@@@std@@YAPEAV?$basic_ostream@DU?$char_traits@D@std@@@0@AEAV10@@Z ENDP ; std::addressof<std::basic_ostream<char,std::char_traits<char> > >
_TEXT	ENDS
; Function compile flags: /Odtp /RTCsu /ZI
; File C:\Program Files\Microsoft Visual Studio\2022\Community\VC\Tools\MSVC\14.42.34433\include\xstring
;	COMDAT ??$_Construct@$01PEBD@?$basic_string@DU?$char_traits@D@std@@V?$allocator@D@2@@std@@AEAAXQEBD_K@Z
_TEXT	SEGMENT
_My_data$ = 8
_Al$ = 40
_Alproxy$ = 72
$S11$ = 100
_Proxy$ = 136
_New_capacity$ = 184
_New_ptr$ = 216
tv143 = 424
__$ArrayPad$ = 432
this$ = 480
_Arg$ = 488
_Count$ = 496
??$_Construct@$01PEBD@?$basic_string@DU?$char_traits@D@std@@V?$allocator@D@2@@std@@AEAAXQEBD_K@Z PROC ; std::basic_string<char,std::char_traits<char>,std::allocator<char> >::_Construct<2,char const *>, COMDAT

; 852  :     _CONSTEXPR20 void _Construct(const _Char_or_ptr _Arg, _CRT_GUARDOVERFLOW const size_type _Count) {

$LN7:
  00000	4c 89 44 24 18	 mov	 QWORD PTR [rsp+24], r8
  00005	48 89 54 24 10	 mov	 QWORD PTR [rsp+16], rdx
  0000a	48 89 4c 24 08	 mov	 QWORD PTR [rsp+8], rcx
  0000f	55		 push	 rbp
  00010	57		 push	 rdi
  00011	48 81 ec e8 01
	00 00		 sub	 rsp, 488		; 000001e8H
  00018	48 8d 6c 24 20	 lea	 rbp, QWORD PTR [rsp+32]
  0001d	48 8d 7c 24 20	 lea	 rdi, QWORD PTR [rsp+32]
  00022	b9 42 00 00 00	 mov	 ecx, 66			; 00000042H
  00027	b8 cc cc cc cc	 mov	 eax, -858993460		; ccccccccH
  0002c	f3 ab		 rep stosd
  0002e	48 8b 8c 24 08
	02 00 00	 mov	 rcx, QWORD PTR [rsp+520]
  00036	48 8b 05 00 00
	00 00		 mov	 rax, QWORD PTR __security_cookie
  0003d	48 33 c5	 xor	 rax, rbp
  00040	48 89 85 b0 01
	00 00		 mov	 QWORD PTR __$ArrayPad$[rbp], rax
  00047	48 8d 0d 00 00
	00 00		 lea	 rcx, OFFSET FLAT:__776EB5C9_xstring
  0004e	e8 00 00 00 00	 call	 __CheckForDebuggerJustMyCode
  00053	90		 npad	 1

; 853  :         auto& _My_data = _Mypair._Myval2;

  00054	48 8b 85 e0 01
	00 00		 mov	 rax, QWORD PTR this$[rbp]
  0005b	48 89 45 08	 mov	 QWORD PTR _My_data$[rbp], rax

; 854  :         _STL_INTERNAL_CHECK(!_My_data._Large_mode_engaged());
; 855  : 
; 856  :         if constexpr (_Strat == _Construct_strategy::_From_char) {
; 857  :             _STL_INTERNAL_STATIC_ASSERT(is_same_v<_Char_or_ptr, _Elem>);
; 858  :         } else {
; 859  :             _STL_INTERNAL_STATIC_ASSERT(_Is_elem_cptr<_Char_or_ptr>::value);
; 860  :         }
; 861  : 
; 862  :         if (_Count > max_size()) {

  0005f	48 8b 8d e0 01
	00 00		 mov	 rcx, QWORD PTR this$[rbp]
  00066	e8 00 00 00 00	 call	 ?max_size@?$basic_string@DU?$char_traits@D@std@@V?$allocator@D@2@@std@@QEBA_KXZ ; std::basic_string<char,std::char_traits<char>,std::allocator<char> >::max_size
  0006b	48 39 85 f0 01
	00 00		 cmp	 QWORD PTR _Count$[rbp], rax
  00072	76 06		 jbe	 SHORT $LN2@Construct

; 863  :             _Xlen_string(); // result too long

  00074	e8 00 00 00 00	 call	 ?_Xlen_string@std@@YAXXZ ; std::_Xlen_string
  00079	90		 npad	 1
$LN2@Construct:

; 864  :         }
; 865  : 
; 866  :         auto& _Al       = _Getal();

  0007a	48 8b 8d e0 01
	00 00		 mov	 rcx, QWORD PTR this$[rbp]
  00081	e8 00 00 00 00	 call	 ?_Getal@?$basic_string@DU?$char_traits@D@std@@V?$allocator@D@2@@std@@AEAAAEAV?$allocator@D@2@XZ ; std::basic_string<char,std::char_traits<char>,std::allocator<char> >::_Getal
  00086	48 89 45 28	 mov	 QWORD PTR _Al$[rbp], rax

; 867  :         auto&& _Alproxy = _GET_PROXY_ALLOCATOR(_Alty, _Al);

  0008a	48 8b 55 28	 mov	 rdx, QWORD PTR _Al$[rbp]
  0008e	48 8d 4d 64	 lea	 rcx, QWORD PTR $S11$[rbp]
  00092	e8 00 00 00 00	 call	 ??$?0D@?$allocator@U_Container_proxy@std@@@std@@QEAA@AEBV?$allocator@D@1@@Z ; std::allocator<std::_Container_proxy>::allocator<std::_Container_proxy><char>
  00097	48 8d 45 64	 lea	 rax, QWORD PTR $S11$[rbp]
  0009b	48 89 45 48	 mov	 QWORD PTR _Alproxy$[rbp], rax

; 868  :         _Container_proxy_ptr<_Alty> _Proxy(_Alproxy, _My_data);

  0009f	4c 8b 45 08	 mov	 r8, QWORD PTR _My_data$[rbp]
  000a3	48 8b 55 48	 mov	 rdx, QWORD PTR _Alproxy$[rbp]
  000a7	48 8d 8d 88 00
	00 00		 lea	 rcx, QWORD PTR _Proxy$[rbp]
  000ae	e8 00 00 00 00	 call	 ??0?$_Container_proxy_ptr12@V?$allocator@U_Container_proxy@std@@@std@@@std@@QEAA@AEAV?$allocator@U_Container_proxy@std@@@1@AEAU_Container_base12@1@@Z ; std::_Container_proxy_ptr12<std::allocator<std::_Container_proxy> >::_Container_proxy_ptr12<std::allocator<std::_Container_proxy> >
  000b3	90		 npad	 1

; 869  : 
; 870  :         if (_Count <= _Small_string_capacity) {

  000b4	48 83 bd f0 01
	00 00 0f	 cmp	 QWORD PTR _Count$[rbp], 15
  000bc	77 58		 ja	 SHORT $LN3@Construct

; 871  :             _My_data._Mysize = _Count;

  000be	48 8b 45 08	 mov	 rax, QWORD PTR _My_data$[rbp]
  000c2	48 8b 8d f0 01
	00 00		 mov	 rcx, QWORD PTR _Count$[rbp]
  000c9	48 89 48 18	 mov	 QWORD PTR [rax+24], rcx

; 872  :             _My_data._Myres  = _Small_string_capacity;

  000cd	48 8b 45 08	 mov	 rax, QWORD PTR _My_data$[rbp]
  000d1	48 c7 40 20 0f
	00 00 00	 mov	 QWORD PTR [rax+32], 15

; 873  : 
; 874  :             if constexpr (_Strat == _Construct_strategy::_From_char) {
; 875  :                 _Traits::assign(_My_data._Bx._Buf, _Count, _Arg);
; 876  :                 _Traits::assign(_My_data._Bx._Buf[_Count], _Elem());
; 877  :             } else if constexpr (_Strat == _Construct_strategy::_From_ptr) {
; 878  :                 _Traits::copy(_My_data._Bx._Buf, _Arg, _Count);
; 879  :                 _Traits::assign(_My_data._Bx._Buf[_Count], _Elem());
; 880  :             } else { // _Strat == _Construct_strategy::_From_string
; 881  : #ifdef _INSERT_STRING_ANNOTATION
; 882  :                 _Traits::copy(_My_data._Bx._Buf, _Arg, _Count + 1);
; 883  : #else // ^^^ _INSERT_STRING_ANNOTATION / !_INSERT_STRING_ANNOTATION vvv
; 884  :                 _Traits::copy(_My_data._Bx._Buf, _Arg, _BUF_SIZE);

  000d9	48 8b 45 08	 mov	 rax, QWORD PTR _My_data$[rbp]
  000dd	48 83 c0 08	 add	 rax, 8
  000e1	41 b8 10 00 00
	00		 mov	 r8d, 16
  000e7	48 8b 95 e8 01
	00 00		 mov	 rdx, QWORD PTR _Arg$[rbp]
  000ee	48 8b c8	 mov	 rcx, rax
  000f1	e8 00 00 00 00	 call	 ?copy@?$_Char_traits@DH@std@@SAPEADQEADQEBD_K@Z ; std::_Char_traits<char,int>::copy
  000f6	90		 npad	 1

; 885  : #endif // ^^^ !_INSERT_STRING_ANNOTATION ^^^
; 886  :             }
; 887  : 
; 888  :             _Proxy._Release();

  000f7	48 8d 8d 88 00
	00 00		 lea	 rcx, QWORD PTR _Proxy$[rbp]
  000fe	e8 00 00 00 00	 call	 ?_Release@_Basic_container_proxy_ptr12@std@@QEAAXXZ ; std::_Basic_container_proxy_ptr12::_Release
  00103	90		 npad	 1

; 889  :             return;

  00104	48 8d 8d 88 00
	00 00		 lea	 rcx, QWORD PTR _Proxy$[rbp]
  0010b	e8 00 00 00 00	 call	 ??1?$_Container_proxy_ptr12@V?$allocator@U_Container_proxy@std@@@std@@@std@@QEAA@XZ ; std::_Container_proxy_ptr12<std::allocator<std::_Container_proxy> >::~_Container_proxy_ptr12<std::allocator<std::_Container_proxy> >
  00110	90		 npad	 1
  00111	e9 c5 00 00 00	 jmp	 $LN4@Construct
$LN3@Construct:

; 890  :         }
; 891  : 
; 892  :         size_type _New_capacity = _Calculate_growth(_Count, _Small_string_capacity, max_size());

  00116	48 8b 8d e0 01
	00 00		 mov	 rcx, QWORD PTR this$[rbp]
  0011d	e8 00 00 00 00	 call	 ?max_size@?$basic_string@DU?$char_traits@D@std@@V?$allocator@D@2@@std@@QEBA_KXZ ; std::basic_string<char,std::char_traits<char>,std::allocator<char> >::max_size
  00122	4c 8b c0	 mov	 r8, rax
  00125	ba 0f 00 00 00	 mov	 edx, 15
  0012a	48 8b 8d f0 01
	00 00		 mov	 rcx, QWORD PTR _Count$[rbp]
  00131	e8 00 00 00 00	 call	 ?_Calculate_growth@?$basic_string@DU?$char_traits@D@std@@V?$allocator@D@2@@std@@CA_K_K00@Z ; std::basic_string<char,std::char_traits<char>,std::allocator<char> >::_Calculate_growth
  00136	48 89 85 b8 00
	00 00		 mov	 QWORD PTR _New_capacity$[rbp], rax

; 893  :         const pointer _New_ptr  = _Allocate_for_capacity(_Al, _New_capacity); // throws

  0013d	48 8d 95 b8 00
	00 00		 lea	 rdx, QWORD PTR _New_capacity$[rbp]
  00144	48 8b 4d 28	 mov	 rcx, QWORD PTR _Al$[rbp]
  00148	e8 00 00 00 00	 call	 ??$_Allocate_for_capacity@$0A@@?$basic_string@DU?$char_traits@D@std@@V?$allocator@D@2@@std@@CAPEADAEAV?$allocator@D@1@AEA_K@Z ; std::basic_string<char,std::char_traits<char>,std::allocator<char> >::_Allocate_for_capacity<0>
  0014d	48 89 85 d8 00
	00 00		 mov	 QWORD PTR _New_ptr$[rbp], rax

; 894  :         _Construct_in_place(_My_data._Bx._Ptr, _New_ptr);

  00154	48 8b 45 08	 mov	 rax, QWORD PTR _My_data$[rbp]
  00158	48 83 c0 08	 add	 rax, 8
  0015c	48 8d 95 d8 00
	00 00		 lea	 rdx, QWORD PTR _New_ptr$[rbp]
  00163	48 8b c8	 mov	 rcx, rax
  00166	e8 00 00 00 00	 call	 ??$_Construct_in_place@PEADAEBQEAD@std@@YAXAEAPEADAEBQEAD@Z ; std::_Construct_in_place<char *,char * const &>
  0016b	90		 npad	 1

; 895  : 
; 896  :         _My_data._Mysize = _Count;

  0016c	48 8b 45 08	 mov	 rax, QWORD PTR _My_data$[rbp]
  00170	48 8b 8d f0 01
	00 00		 mov	 rcx, QWORD PTR _Count$[rbp]
  00177	48 89 48 18	 mov	 QWORD PTR [rax+24], rcx

; 897  :         _My_data._Myres  = _New_capacity;

  0017b	48 8b 45 08	 mov	 rax, QWORD PTR _My_data$[rbp]
  0017f	48 8b 8d b8 00
	00 00		 mov	 rcx, QWORD PTR _New_capacity$[rbp]
  00186	48 89 48 20	 mov	 QWORD PTR [rax+32], rcx

; 898  :         if constexpr (_Strat == _Construct_strategy::_From_char) {
; 899  :             _Traits::assign(_Unfancy(_New_ptr), _Count, _Arg);
; 900  :             _Traits::assign(_Unfancy(_New_ptr)[_Count], _Elem());
; 901  :         } else if constexpr (_Strat == _Construct_strategy::_From_ptr) {
; 902  :             _Traits::copy(_Unfancy(_New_ptr), _Arg, _Count);
; 903  :             _Traits::assign(_Unfancy(_New_ptr)[_Count], _Elem());
; 904  :         } else { // _Strat == _Construct_strategy::_From_string
; 905  :             _Traits::copy(_Unfancy(_New_ptr), _Arg, _Count + 1);

  0018a	48 8b 85 f0 01
	00 00		 mov	 rax, QWORD PTR _Count$[rbp]
  00191	48 ff c0	 inc	 rax
  00194	48 89 85 a8 01
	00 00		 mov	 QWORD PTR tv143[rbp], rax
  0019b	48 8b 8d d8 00
	00 00		 mov	 rcx, QWORD PTR _New_ptr$[rbp]
  001a2	e8 00 00 00 00	 call	 ??$_Unfancy@D@std@@YAPEADPEAD@Z ; std::_Unfancy<char>
  001a7	48 8b 8d a8 01
	00 00		 mov	 rcx, QWORD PTR tv143[rbp]
  001ae	4c 8b c1	 mov	 r8, rcx
  001b1	48 8b 95 e8 01
	00 00		 mov	 rdx, QWORD PTR _Arg$[rbp]
  001b8	48 8b c8	 mov	 rcx, rax
  001bb	e8 00 00 00 00	 call	 ?copy@?$_Char_traits@DH@std@@SAPEADQEADQEBD_K@Z ; std::_Char_traits<char,int>::copy
  001c0	90		 npad	 1

; 906  :         }
; 907  : 
; 908  :         _ASAN_STRING_CREATE(*this);
; 909  :         _Proxy._Release();

  001c1	48 8d 8d 88 00
	00 00		 lea	 rcx, QWORD PTR _Proxy$[rbp]
  001c8	e8 00 00 00 00	 call	 ?_Release@_Basic_container_proxy_ptr12@std@@QEAAXXZ ; std::_Basic_container_proxy_ptr12::_Release
  001cd	90		 npad	 1

; 910  :     }

  001ce	48 8d 8d 88 00
	00 00		 lea	 rcx, QWORD PTR _Proxy$[rbp]
  001d5	e8 00 00 00 00	 call	 ??1?$_Container_proxy_ptr12@V?$allocator@U_Container_proxy@std@@@std@@@std@@QEAA@XZ ; std::_Container_proxy_ptr12<std::allocator<std::_Container_proxy> >::~_Container_proxy_ptr12<std::allocator<std::_Container_proxy> >
  001da	90		 npad	 1
$LN4@Construct:
  001db	48 8d 4d e0	 lea	 rcx, QWORD PTR [rbp-32]
  001df	48 8d 15 00 00
	00 00		 lea	 rdx, OFFSET FLAT:??$_Construct@$01PEBD@?$basic_string@DU?$char_traits@D@std@@V?$allocator@D@2@@std@@AEAAXQEBD_K@Z$rtcFrameData
  001e6	e8 00 00 00 00	 call	 _RTC_CheckStackVars
  001eb	48 8b 8d b0 01
	00 00		 mov	 rcx, QWORD PTR __$ArrayPad$[rbp]
  001f2	48 33 cd	 xor	 rcx, rbp
  001f5	e8 00 00 00 00	 call	 __security_check_cookie
  001fa	48 8d a5 c8 01
	00 00		 lea	 rsp, QWORD PTR [rbp+456]
  00201	5f		 pop	 rdi
  00202	5d		 pop	 rbp
  00203	c3		 ret	 0
$LN6@Construct:
??$_Construct@$01PEBD@?$basic_string@DU?$char_traits@D@std@@V?$allocator@D@2@@std@@AEAAXQEBD_K@Z ENDP ; std::basic_string<char,std::char_traits<char>,std::allocator<char> >::_Construct<2,char const *>
_TEXT	ENDS
; Function compile flags: /Odtp /RTCsu /ZI
;	COMDAT text$x
text$x	SEGMENT
_My_data$ = 8
_Al$ = 40
_Alproxy$ = 72
$S11$ = 100
_Proxy$ = 136
_New_capacity$ = 184
_New_ptr$ = 216
tv143 = 424
__$ArrayPad$ = 432
this$ = 480
_Arg$ = 488
_Count$ = 496
?dtor$0@?0???$_Construct@$01PEBD@?$basic_string@DU?$char_traits@D@std@@V?$allocator@D@2@@std@@AEAAXQEBD_K@Z@4HA PROC ; `std::basic_string<char,std::char_traits<char>,std::allocator<char> >::_Construct<2,char const *>'::`1'::dtor$0
  00000	48 89 4c 24 08	 mov	 QWORD PTR [rsp+8], rcx
  00005	48 89 54 24 10	 mov	 QWORD PTR [rsp+16], rdx
  0000a	55		 push	 rbp
  0000b	57		 push	 rdi
  0000c	48 83 ec 28	 sub	 rsp, 40			; 00000028H
  00010	48 8d 6a 20	 lea	 rbp, QWORD PTR [rdx+32]
  00014	48 8d 8d 88 00
	00 00		 lea	 rcx, QWORD PTR _Proxy$[rbp]
  0001b	e8 00 00 00 00	 call	 ??1?$_Container_proxy_ptr12@V?$allocator@U_Container_proxy@std@@@std@@@std@@QEAA@XZ ; std::_Container_proxy_ptr12<std::allocator<std::_Container_proxy> >::~_Container_proxy_ptr12<std::allocator<std::_Container_proxy> >
  00020	48 83 c4 28	 add	 rsp, 40			; 00000028H
  00024	5f		 pop	 rdi
  00025	5d		 pop	 rbp
  00026	c3		 ret	 0
?dtor$0@?0???$_Construct@$01PEBD@?$basic_string@DU?$char_traits@D@std@@V?$allocator@D@2@@std@@AEAAXQEBD_K@Z@4HA ENDP ; `std::basic_string<char,std::char_traits<char>,std::allocator<char> >::_Construct<2,char const *>'::`1'::dtor$0
text$x	ENDS
; Function compile flags: /Odtp /RTCsu /ZI
; File C:\Program Files\Microsoft Visual Studio\2022\Community\VC\Tools\MSVC\14.42.34433\include\xstring
;	COMDAT ??$_Construct@$00PEBD@?$basic_string@DU?$char_traits@D@std@@V?$allocator@D@2@@std@@AEAAXQEBD_K@Z
_TEXT	SEGMENT
_My_data$ = 8
_Al$ = 40
_Alproxy$ = 72
$S10$ = 100
_Proxy$ = 136
_New_capacity$ = 184
_New_ptr$ = 216
$T7 = 436
$T8 = 468
__$ArrayPad$ = 488
this$ = 528
_Arg$ = 536
_Count$ = 544
??$_Construct@$00PEBD@?$basic_string@DU?$char_traits@D@std@@V?$allocator@D@2@@std@@AEAAXQEBD_K@Z PROC ; std::basic_string<char,std::char_traits<char>,std::allocator<char> >::_Construct<1,char const *>, COMDAT

; 852  :     _CONSTEXPR20 void _Construct(const _Char_or_ptr _Arg, _CRT_GUARDOVERFLOW const size_type _Count) {

$LN7:
  00000	4c 89 44 24 18	 mov	 QWORD PTR [rsp+24], r8
  00005	48 89 54 24 10	 mov	 QWORD PTR [rsp+16], rdx
  0000a	48 89 4c 24 08	 mov	 QWORD PTR [rsp+8], rcx
  0000f	55		 push	 rbp
  00010	57		 push	 rdi
  00011	48 81 ec 18 02
	00 00		 sub	 rsp, 536		; 00000218H
  00018	48 8d 6c 24 20	 lea	 rbp, QWORD PTR [rsp+32]
  0001d	48 8d 7c 24 20	 lea	 rdi, QWORD PTR [rsp+32]
  00022	b9 4e 00 00 00	 mov	 ecx, 78			; 0000004eH
  00027	b8 cc cc cc cc	 mov	 eax, -858993460		; ccccccccH
  0002c	f3 ab		 rep stosd
  0002e	48 8b 8c 24 38
	02 00 00	 mov	 rcx, QWORD PTR [rsp+568]
  00036	48 8b 05 00 00
	00 00		 mov	 rax, QWORD PTR __security_cookie
  0003d	48 33 c5	 xor	 rax, rbp
  00040	48 89 85 e8 01
	00 00		 mov	 QWORD PTR __$ArrayPad$[rbp], rax
  00047	48 8d 0d 00 00
	00 00		 lea	 rcx, OFFSET FLAT:__776EB5C9_xstring
  0004e	e8 00 00 00 00	 call	 __CheckForDebuggerJustMyCode
  00053	90		 npad	 1

; 853  :         auto& _My_data = _Mypair._Myval2;

  00054	48 8b 85 10 02
	00 00		 mov	 rax, QWORD PTR this$[rbp]
  0005b	48 89 45 08	 mov	 QWORD PTR _My_data$[rbp], rax

; 854  :         _STL_INTERNAL_CHECK(!_My_data._Large_mode_engaged());
; 855  : 
; 856  :         if constexpr (_Strat == _Construct_strategy::_From_char) {
; 857  :             _STL_INTERNAL_STATIC_ASSERT(is_same_v<_Char_or_ptr, _Elem>);
; 858  :         } else {
; 859  :             _STL_INTERNAL_STATIC_ASSERT(_Is_elem_cptr<_Char_or_ptr>::value);
; 860  :         }
; 861  : 
; 862  :         if (_Count > max_size()) {

  0005f	48 8b 8d 10 02
	00 00		 mov	 rcx, QWORD PTR this$[rbp]
  00066	e8 00 00 00 00	 call	 ?max_size@?$basic_string@DU?$char_traits@D@std@@V?$allocator@D@2@@std@@QEBA_KXZ ; std::basic_string<char,std::char_traits<char>,std::allocator<char> >::max_size
  0006b	48 39 85 20 02
	00 00		 cmp	 QWORD PTR _Count$[rbp], rax
  00072	76 06		 jbe	 SHORT $LN2@Construct

; 863  :             _Xlen_string(); // result too long

  00074	e8 00 00 00 00	 call	 ?_Xlen_string@std@@YAXXZ ; std::_Xlen_string
  00079	90		 npad	 1
$LN2@Construct:

; 864  :         }
; 865  : 
; 866  :         auto& _Al       = _Getal();

  0007a	48 8b 8d 10 02
	00 00		 mov	 rcx, QWORD PTR this$[rbp]
  00081	e8 00 00 00 00	 call	 ?_Getal@?$basic_string@DU?$char_traits@D@std@@V?$allocator@D@2@@std@@AEAAAEAV?$allocator@D@2@XZ ; std::basic_string<char,std::char_traits<char>,std::allocator<char> >::_Getal
  00086	48 89 45 28	 mov	 QWORD PTR _Al$[rbp], rax

; 867  :         auto&& _Alproxy = _GET_PROXY_ALLOCATOR(_Alty, _Al);

  0008a	48 8b 55 28	 mov	 rdx, QWORD PTR _Al$[rbp]
  0008e	48 8d 4d 64	 lea	 rcx, QWORD PTR $S10$[rbp]
  00092	e8 00 00 00 00	 call	 ??$?0D@?$allocator@U_Container_proxy@std@@@std@@QEAA@AEBV?$allocator@D@1@@Z ; std::allocator<std::_Container_proxy>::allocator<std::_Container_proxy><char>
  00097	48 8d 45 64	 lea	 rax, QWORD PTR $S10$[rbp]
  0009b	48 89 45 48	 mov	 QWORD PTR _Alproxy$[rbp], rax

; 868  :         _Container_proxy_ptr<_Alty> _Proxy(_Alproxy, _My_data);

  0009f	4c 8b 45 08	 mov	 r8, QWORD PTR _My_data$[rbp]
  000a3	48 8b 55 48	 mov	 rdx, QWORD PTR _Alproxy$[rbp]
  000a7	48 8d 8d 88 00
	00 00		 lea	 rcx, QWORD PTR _Proxy$[rbp]
  000ae	e8 00 00 00 00	 call	 ??0?$_Container_proxy_ptr12@V?$allocator@U_Container_proxy@std@@@std@@@std@@QEAA@AEAV?$allocator@U_Container_proxy@std@@@1@AEAU_Container_base12@1@@Z ; std::_Container_proxy_ptr12<std::allocator<std::_Container_proxy> >::_Container_proxy_ptr12<std::allocator<std::_Container_proxy> >
  000b3	90		 npad	 1

; 869  : 
; 870  :         if (_Count <= _Small_string_capacity) {

  000b4	48 83 bd 20 02
	00 00 0f	 cmp	 QWORD PTR _Count$[rbp], 15
  000bc	0f 87 80 00 00
	00		 ja	 $LN3@Construct

; 871  :             _My_data._Mysize = _Count;

  000c2	48 8b 45 08	 mov	 rax, QWORD PTR _My_data$[rbp]
  000c6	48 8b 8d 20 02
	00 00		 mov	 rcx, QWORD PTR _Count$[rbp]
  000cd	48 89 48 18	 mov	 QWORD PTR [rax+24], rcx

; 872  :             _My_data._Myres  = _Small_string_capacity;

  000d1	48 8b 45 08	 mov	 rax, QWORD PTR _My_data$[rbp]
  000d5	48 c7 40 20 0f
	00 00 00	 mov	 QWORD PTR [rax+32], 15

; 873  : 
; 874  :             if constexpr (_Strat == _Construct_strategy::_From_char) {
; 875  :                 _Traits::assign(_My_data._Bx._Buf, _Count, _Arg);
; 876  :                 _Traits::assign(_My_data._Bx._Buf[_Count], _Elem());
; 877  :             } else if constexpr (_Strat == _Construct_strategy::_From_ptr) {
; 878  :                 _Traits::copy(_My_data._Bx._Buf, _Arg, _Count);

  000dd	48 8b 45 08	 mov	 rax, QWORD PTR _My_data$[rbp]
  000e1	48 83 c0 08	 add	 rax, 8
  000e5	4c 8b 85 20 02
	00 00		 mov	 r8, QWORD PTR _Count$[rbp]
  000ec	48 8b 95 18 02
	00 00		 mov	 rdx, QWORD PTR _Arg$[rbp]
  000f3	48 8b c8	 mov	 rcx, rax
  000f6	e8 00 00 00 00	 call	 ?copy@?$_Char_traits@DH@std@@SAPEADQEADQEBD_K@Z ; std::_Char_traits<char,int>::copy
  000fb	90		 npad	 1

; 879  :                 _Traits::assign(_My_data._Bx._Buf[_Count], _Elem());

  000fc	c6 85 b4 01 00
	00 00		 mov	 BYTE PTR $T7[rbp], 0
  00103	48 8b 45 08	 mov	 rax, QWORD PTR _My_data$[rbp]
  00107	48 8b 8d 20 02
	00 00		 mov	 rcx, QWORD PTR _Count$[rbp]
  0010e	48 8d 44 08 08	 lea	 rax, QWORD PTR [rax+rcx+8]
  00113	48 8d 95 b4 01
	00 00		 lea	 rdx, QWORD PTR $T7[rbp]
  0011a	48 8b c8	 mov	 rcx, rax
  0011d	e8 00 00 00 00	 call	 ?assign@?$_Narrow_char_traits@DH@std@@SAXAEADAEBD@Z ; std::_Narrow_char_traits<char,int>::assign
  00122	90		 npad	 1

; 880  :             } else { // _Strat == _Construct_strategy::_From_string
; 881  : #ifdef _INSERT_STRING_ANNOTATION
; 882  :                 _Traits::copy(_My_data._Bx._Buf, _Arg, _Count + 1);
; 883  : #else // ^^^ _INSERT_STRING_ANNOTATION / !_INSERT_STRING_ANNOTATION vvv
; 884  :                 _Traits::copy(_My_data._Bx._Buf, _Arg, _BUF_SIZE);
; 885  : #endif // ^^^ !_INSERT_STRING_ANNOTATION ^^^
; 886  :             }
; 887  : 
; 888  :             _Proxy._Release();

  00123	48 8d 8d 88 00
	00 00		 lea	 rcx, QWORD PTR _Proxy$[rbp]
  0012a	e8 00 00 00 00	 call	 ?_Release@_Basic_container_proxy_ptr12@std@@QEAAXXZ ; std::_Basic_container_proxy_ptr12::_Release
  0012f	90		 npad	 1

; 889  :             return;

  00130	48 8d 8d 88 00
	00 00		 lea	 rcx, QWORD PTR _Proxy$[rbp]
  00137	e8 00 00 00 00	 call	 ??1?$_Container_proxy_ptr12@V?$allocator@U_Container_proxy@std@@@std@@@std@@QEAA@XZ ; std::_Container_proxy_ptr12<std::allocator<std::_Container_proxy> >::~_Container_proxy_ptr12<std::allocator<std::_Container_proxy> >
  0013c	90		 npad	 1
  0013d	e9 db 00 00 00	 jmp	 $LN4@Construct
$LN3@Construct:

; 890  :         }
; 891  : 
; 892  :         size_type _New_capacity = _Calculate_growth(_Count, _Small_string_capacity, max_size());

  00142	48 8b 8d 10 02
	00 00		 mov	 rcx, QWORD PTR this$[rbp]
  00149	e8 00 00 00 00	 call	 ?max_size@?$basic_string@DU?$char_traits@D@std@@V?$allocator@D@2@@std@@QEBA_KXZ ; std::basic_string<char,std::char_traits<char>,std::allocator<char> >::max_size
  0014e	4c 8b c0	 mov	 r8, rax
  00151	ba 0f 00 00 00	 mov	 edx, 15
  00156	48 8b 8d 20 02
	00 00		 mov	 rcx, QWORD PTR _Count$[rbp]
  0015d	e8 00 00 00 00	 call	 ?_Calculate_growth@?$basic_string@DU?$char_traits@D@std@@V?$allocator@D@2@@std@@CA_K_K00@Z ; std::basic_string<char,std::char_traits<char>,std::allocator<char> >::_Calculate_growth
  00162	48 89 85 b8 00
	00 00		 mov	 QWORD PTR _New_capacity$[rbp], rax

; 893  :         const pointer _New_ptr  = _Allocate_for_capacity(_Al, _New_capacity); // throws

  00169	48 8d 95 b8 00
	00 00		 lea	 rdx, QWORD PTR _New_capacity$[rbp]
  00170	48 8b 4d 28	 mov	 rcx, QWORD PTR _Al$[rbp]
  00174	e8 00 00 00 00	 call	 ??$_Allocate_for_capacity@$0A@@?$basic_string@DU?$char_traits@D@std@@V?$allocator@D@2@@std@@CAPEADAEAV?$allocator@D@1@AEA_K@Z ; std::basic_string<char,std::char_traits<char>,std::allocator<char> >::_Allocate_for_capacity<0>
  00179	48 89 85 d8 00
	00 00		 mov	 QWORD PTR _New_ptr$[rbp], rax

; 894  :         _Construct_in_place(_My_data._Bx._Ptr, _New_ptr);

  00180	48 8b 45 08	 mov	 rax, QWORD PTR _My_data$[rbp]
  00184	48 83 c0 08	 add	 rax, 8
  00188	48 8d 95 d8 00
	00 00		 lea	 rdx, QWORD PTR _New_ptr$[rbp]
  0018f	48 8b c8	 mov	 rcx, rax
  00192	e8 00 00 00 00	 call	 ??$_Construct_in_place@PEADAEBQEAD@std@@YAXAEAPEADAEBQEAD@Z ; std::_Construct_in_place<char *,char * const &>
  00197	90		 npad	 1

; 895  : 
; 896  :         _My_data._Mysize = _Count;

  00198	48 8b 45 08	 mov	 rax, QWORD PTR _My_data$[rbp]
  0019c	48 8b 8d 20 02
	00 00		 mov	 rcx, QWORD PTR _Count$[rbp]
  001a3	48 89 48 18	 mov	 QWORD PTR [rax+24], rcx

; 897  :         _My_data._Myres  = _New_capacity;

  001a7	48 8b 45 08	 mov	 rax, QWORD PTR _My_data$[rbp]
  001ab	48 8b 8d b8 00
	00 00		 mov	 rcx, QWORD PTR _New_capacity$[rbp]
  001b2	48 89 48 20	 mov	 QWORD PTR [rax+32], rcx

; 898  :         if constexpr (_Strat == _Construct_strategy::_From_char) {
; 899  :             _Traits::assign(_Unfancy(_New_ptr), _Count, _Arg);
; 900  :             _Traits::assign(_Unfancy(_New_ptr)[_Count], _Elem());
; 901  :         } else if constexpr (_Strat == _Construct_strategy::_From_ptr) {
; 902  :             _Traits::copy(_Unfancy(_New_ptr), _Arg, _Count);

  001b6	48 8b 8d d8 00
	00 00		 mov	 rcx, QWORD PTR _New_ptr$[rbp]
  001bd	e8 00 00 00 00	 call	 ??$_Unfancy@D@std@@YAPEADPEAD@Z ; std::_Unfancy<char>
  001c2	4c 8b 85 20 02
	00 00		 mov	 r8, QWORD PTR _Count$[rbp]
  001c9	48 8b 95 18 02
	00 00		 mov	 rdx, QWORD PTR _Arg$[rbp]
  001d0	48 8b c8	 mov	 rcx, rax
  001d3	e8 00 00 00 00	 call	 ?copy@?$_Char_traits@DH@std@@SAPEADQEADQEBD_K@Z ; std::_Char_traits<char,int>::copy
  001d8	90		 npad	 1

; 903  :             _Traits::assign(_Unfancy(_New_ptr)[_Count], _Elem());

  001d9	c6 85 d4 01 00
	00 00		 mov	 BYTE PTR $T8[rbp], 0
  001e0	48 8b 8d d8 00
	00 00		 mov	 rcx, QWORD PTR _New_ptr$[rbp]
  001e7	e8 00 00 00 00	 call	 ??$_Unfancy@D@std@@YAPEADPEAD@Z ; std::_Unfancy<char>
  001ec	48 03 85 20 02
	00 00		 add	 rax, QWORD PTR _Count$[rbp]
  001f3	48 8d 95 d4 01
	00 00		 lea	 rdx, QWORD PTR $T8[rbp]
  001fa	48 8b c8	 mov	 rcx, rax
  001fd	e8 00 00 00 00	 call	 ?assign@?$_Narrow_char_traits@DH@std@@SAXAEADAEBD@Z ; std::_Narrow_char_traits<char,int>::assign
  00202	90		 npad	 1

; 904  :         } else { // _Strat == _Construct_strategy::_From_string
; 905  :             _Traits::copy(_Unfancy(_New_ptr), _Arg, _Count + 1);
; 906  :         }
; 907  : 
; 908  :         _ASAN_STRING_CREATE(*this);
; 909  :         _Proxy._Release();

  00203	48 8d 8d 88 00
	00 00		 lea	 rcx, QWORD PTR _Proxy$[rbp]
  0020a	e8 00 00 00 00	 call	 ?_Release@_Basic_container_proxy_ptr12@std@@QEAAXXZ ; std::_Basic_container_proxy_ptr12::_Release
  0020f	90		 npad	 1

; 910  :     }

  00210	48 8d 8d 88 00
	00 00		 lea	 rcx, QWORD PTR _Proxy$[rbp]
  00217	e8 00 00 00 00	 call	 ??1?$_Container_proxy_ptr12@V?$allocator@U_Container_proxy@std@@@std@@@std@@QEAA@XZ ; std::_Container_proxy_ptr12<std::allocator<std::_Container_proxy> >::~_Container_proxy_ptr12<std::allocator<std::_Container_proxy> >
  0021c	90		 npad	 1
$LN4@Construct:
  0021d	48 8d 4d e0	 lea	 rcx, QWORD PTR [rbp-32]
  00221	48 8d 15 00 00
	00 00		 lea	 rdx, OFFSET FLAT:??$_Construct@$00PEBD@?$basic_string@DU?$char_traits@D@std@@V?$allocator@D@2@@std@@AEAAXQEBD_K@Z$rtcFrameData
  00228	e8 00 00 00 00	 call	 _RTC_CheckStackVars
  0022d	48 8b 8d e8 01
	00 00		 mov	 rcx, QWORD PTR __$ArrayPad$[rbp]
  00234	48 33 cd	 xor	 rcx, rbp
  00237	e8 00 00 00 00	 call	 __security_check_cookie
  0023c	48 8d a5 f8 01
	00 00		 lea	 rsp, QWORD PTR [rbp+504]
  00243	5f		 pop	 rdi
  00244	5d		 pop	 rbp
  00245	c3		 ret	 0
$LN6@Construct:
??$_Construct@$00PEBD@?$basic_string@DU?$char_traits@D@std@@V?$allocator@D@2@@std@@AEAAXQEBD_K@Z ENDP ; std::basic_string<char,std::char_traits<char>,std::allocator<char> >::_Construct<1,char const *>
_TEXT	ENDS
; Function compile flags: /Odtp /RTCsu /ZI
;	COMDAT text$x
text$x	SEGMENT
_My_data$ = 8
_Al$ = 40
_Alproxy$ = 72
$S10$ = 100
_Proxy$ = 136
_New_capacity$ = 184
_New_ptr$ = 216
$T7 = 436
$T8 = 468
__$ArrayPad$ = 488
this$ = 528
_Arg$ = 536
_Count$ = 544
?dtor$0@?0???$_Construct@$00PEBD@?$basic_string@DU?$char_traits@D@std@@V?$allocator@D@2@@std@@AEAAXQEBD_K@Z@4HA PROC ; `std::basic_string<char,std::char_traits<char>,std::allocator<char> >::_Construct<1,char const *>'::`1'::dtor$0
  00000	48 89 4c 24 08	 mov	 QWORD PTR [rsp+8], rcx
  00005	48 89 54 24 10	 mov	 QWORD PTR [rsp+16], rdx
  0000a	55		 push	 rbp
  0000b	57		 push	 rdi
  0000c	48 83 ec 28	 sub	 rsp, 40			; 00000028H
  00010	48 8d 6a 20	 lea	 rbp, QWORD PTR [rdx+32]
  00014	48 8d 8d 88 00
	00 00		 lea	 rcx, QWORD PTR _Proxy$[rbp]
  0001b	e8 00 00 00 00	 call	 ??1?$_Container_proxy_ptr12@V?$allocator@U_Container_proxy@std@@@std@@@std@@QEAA@XZ ; std::_Container_proxy_ptr12<std::allocator<std::_Container_proxy> >::~_Container_proxy_ptr12<std::allocator<std::_Container_proxy> >
  00020	48 83 c4 28	 add	 rsp, 40			; 00000028H
  00024	5f		 pop	 rdi
  00025	5d		 pop	 rbp
  00026	c3		 ret	 0
?dtor$0@?0???$_Construct@$00PEBD@?$basic_string@DU?$char_traits@D@std@@V?$allocator@D@2@@std@@AEAAXQEBD_K@Z@4HA ENDP ; `std::basic_string<char,std::char_traits<char>,std::allocator<char> >::_Construct<1,char const *>'::`1'::dtor$0
text$x	ENDS
; Function compile flags: /Odtp /RTCsu /ZI
; File C:\Program Files\Microsoft Visual Studio\2022\Community\VC\Tools\MSVC\14.42.34433\include\xmemory
;	COMDAT ??$?0$$V@?$_Compressed_pair@V?$allocator@D@std@@V?$_String_val@U?$_Simple_types@D@std@@@2@$00@std@@QEAA@U_Zero_then_variadic_args_t@1@@Z
_TEXT	SEGMENT
this$ = 224
__formal$ = 232
??$?0$$V@?$_Compressed_pair@V?$allocator@D@std@@V?$_String_val@U?$_Simple_types@D@std@@@2@$00@std@@QEAA@U_Zero_then_variadic_args_t@1@@Z PROC ; std::_Compressed_pair<std::allocator<char>,std::_String_val<std::_Simple_types<char> >,1>::_Compressed_pair<std::allocator<char>,std::_String_val<std::_Simple_types<char> >,1><>, COMDAT

; 1495 :         : _Ty1(), _Myval2(_STD forward<_Other2>(_Val2)...) {}

$LN4:
  00000	88 54 24 10	 mov	 BYTE PTR [rsp+16], dl
  00004	48 89 4c 24 08	 mov	 QWORD PTR [rsp+8], rcx
  00009	55		 push	 rbp
  0000a	57		 push	 rdi
  0000b	48 81 ec e8 00
	00 00		 sub	 rsp, 232		; 000000e8H
  00012	48 8d 6c 24 20	 lea	 rbp, QWORD PTR [rsp+32]
  00017	48 8d 0d 00 00
	00 00		 lea	 rcx, OFFSET FLAT:__03BD3355_xmemory
  0001e	e8 00 00 00 00	 call	 __CheckForDebuggerJustMyCode
  00023	90		 npad	 1
  00024	48 8b 8d e0 00
	00 00		 mov	 rcx, QWORD PTR this$[rbp]
  0002b	e8 00 00 00 00	 call	 ??0?$allocator@D@std@@QEAA@XZ ; std::allocator<char>::allocator<char>
  00030	90		 npad	 1
  00031	48 8b 85 e0 00
	00 00		 mov	 rax, QWORD PTR this$[rbp]
  00038	48 8b c8	 mov	 rcx, rax
  0003b	e8 00 00 00 00	 call	 ??0?$_String_val@U?$_Simple_types@D@std@@@std@@QEAA@XZ ; std::_String_val<std::_Simple_types<char> >::_String_val<std::_Simple_types<char> >
  00040	90		 npad	 1
  00041	48 8b 85 e0 00
	00 00		 mov	 rax, QWORD PTR this$[rbp]
  00048	48 8d a5 c8 00
	00 00		 lea	 rsp, QWORD PTR [rbp+200]
  0004f	5f		 pop	 rdi
  00050	5d		 pop	 rbp
  00051	c3		 ret	 0
??$?0$$V@?$_Compressed_pair@V?$allocator@D@std@@V?$_String_val@U?$_Simple_types@D@std@@@2@$00@std@@QEAA@U_Zero_then_variadic_args_t@1@@Z ENDP ; std::_Compressed_pair<std::allocator<char>,std::_String_val<std::_Simple_types<char> >,1>::_Compressed_pair<std::allocator<char>,std::_String_val<std::_Simple_types<char> >,1><>
_TEXT	ENDS
; Function compile flags: /Odtp /RTCsu /ZI
; File C:\Program Files\Microsoft Visual Studio\2022\Community\VC\Tools\MSVC\14.42.34433\include\xmemory
;	COMDAT ??$?0V?$allocator@D@std@@$$V@?$_Compressed_pair@V?$allocator@D@std@@V?$_String_val@U?$_Simple_types@D@std@@@2@$00@std@@QEAA@U_One_then_variadic_args_t@1@$$QEAV?$allocator@D@1@@Z
_TEXT	SEGMENT
this$ = 224
__formal$ = 232
_Val1$ = 240
??$?0V?$allocator@D@std@@$$V@?$_Compressed_pair@V?$allocator@D@std@@V?$_String_val@U?$_Simple_types@D@std@@@2@$00@std@@QEAA@U_One_then_variadic_args_t@1@$$QEAV?$allocator@D@1@@Z PROC ; std::_Compressed_pair<std::allocator<char>,std::_String_val<std::_Simple_types<char> >,1>::_Compressed_pair<std::allocator<char>,std::_String_val<std::_Simple_types<char> >,1><std::allocator<char> >, COMDAT

; 1500 :         : _Ty1(_STD forward<_Other1>(_Val1)), _Myval2(_STD forward<_Other2>(_Val2)...) {}

$LN4:
  00000	4c 89 44 24 18	 mov	 QWORD PTR [rsp+24], r8
  00005	88 54 24 10	 mov	 BYTE PTR [rsp+16], dl
  00009	48 89 4c 24 08	 mov	 QWORD PTR [rsp+8], rcx
  0000e	55		 push	 rbp
  0000f	57		 push	 rdi
  00010	48 81 ec e8 00
	00 00		 sub	 rsp, 232		; 000000e8H
  00017	48 8d 6c 24 20	 lea	 rbp, QWORD PTR [rsp+32]
  0001c	48 8d 0d 00 00
	00 00		 lea	 rcx, OFFSET FLAT:__03BD3355_xmemory
  00023	e8 00 00 00 00	 call	 __CheckForDebuggerJustMyCode
  00028	90		 npad	 1
  00029	48 8b 85 e0 00
	00 00		 mov	 rax, QWORD PTR this$[rbp]
  00030	48 8b c8	 mov	 rcx, rax
  00033	e8 00 00 00 00	 call	 ??0?$_String_val@U?$_Simple_types@D@std@@@std@@QEAA@XZ ; std::_String_val<std::_Simple_types<char> >::_String_val<std::_Simple_types<char> >
  00038	90		 npad	 1
  00039	48 8b 85 e0 00
	00 00		 mov	 rax, QWORD PTR this$[rbp]
  00040	48 8d a5 c8 00
	00 00		 lea	 rsp, QWORD PTR [rbp+200]
  00047	5f		 pop	 rdi
  00048	5d		 pop	 rbp
  00049	c3		 ret	 0
??$?0V?$allocator@D@std@@$$V@?$_Compressed_pair@V?$allocator@D@std@@V?$_String_val@U?$_Simple_types@D@std@@@2@$00@std@@QEAA@U_One_then_variadic_args_t@1@$$QEAV?$allocator@D@1@@Z ENDP ; std::_Compressed_pair<std::allocator<char>,std::_String_val<std::_Simple_types<char> >,1>::_Compressed_pair<std::allocator<char>,std::_String_val<std::_Simple_types<char> >,1><std::allocator<char> >
_TEXT	ENDS
; Function compile flags: /Odtp /RTCsu /ZI
; File C:\Program Files\Microsoft Visual Studio\2022\Community\VC\Tools\MSVC\14.42.34433\include\xmemory
;	COMDAT ??$?0D@?$allocator@U_Container_proxy@std@@@std@@QEAA@AEBV?$allocator@D@1@@Z
_TEXT	SEGMENT
this$ = 224
__formal$ = 232
??$?0D@?$allocator@U_Container_proxy@std@@@std@@QEAA@AEBV?$allocator@D@1@@Z PROC ; std::allocator<std::_Container_proxy>::allocator<std::_Container_proxy><char>, COMDAT

; 942  :     constexpr allocator(const allocator<_Other>&) noexcept {}

$LN4:
  00000	48 89 54 24 10	 mov	 QWORD PTR [rsp+16], rdx
  00005	48 89 4c 24 08	 mov	 QWORD PTR [rsp+8], rcx
  0000a	55		 push	 rbp
  0000b	57		 push	 rdi
  0000c	48 81 ec e8 00
	00 00		 sub	 rsp, 232		; 000000e8H
  00013	48 8d 6c 24 20	 lea	 rbp, QWORD PTR [rsp+32]
  00018	48 8d 0d 00 00
	00 00		 lea	 rcx, OFFSET FLAT:__03BD3355_xmemory
  0001f	e8 00 00 00 00	 call	 __CheckForDebuggerJustMyCode
  00024	90		 npad	 1
  00025	48 8b 85 e0 00
	00 00		 mov	 rax, QWORD PTR this$[rbp]
  0002c	48 8d a5 c8 00
	00 00		 lea	 rsp, QWORD PTR [rbp+200]
  00033	5f		 pop	 rdi
  00034	5d		 pop	 rbp
  00035	c3		 ret	 0
??$?0D@?$allocator@U_Container_proxy@std@@@std@@QEAA@AEBV?$allocator@D@1@@Z ENDP ; std::allocator<std::_Container_proxy>::allocator<std::_Container_proxy><char>
_TEXT	ENDS
; Function compile flags: /Odtp /RTCsu /ZI
; File C:\Program Files\Microsoft Visual Studio\2022\Community\VC\Tools\MSVC\14.42.34433\include\xmemory
;	COMDAT ??$_Convert_size@_K_K@std@@YA_K_K@Z
_TEXT	SEGMENT
_Len$ = 224
??$_Convert_size@_K_K@std@@YA_K_K@Z PROC		; std::_Convert_size<unsigned __int64,unsigned __int64>, COMDAT

; 1084 :     sizeof(_Unsigned_type) <= sizeof(_Size_type)) {

$LN4:
  00000	48 89 4c 24 08	 mov	 QWORD PTR [rsp+8], rcx
  00005	55		 push	 rbp
  00006	57		 push	 rdi
  00007	48 81 ec e8 00
	00 00		 sub	 rsp, 232		; 000000e8H
  0000e	48 8d 6c 24 20	 lea	 rbp, QWORD PTR [rsp+32]
  00013	48 8d 0d 00 00
	00 00		 lea	 rcx, OFFSET FLAT:__03BD3355_xmemory
  0001a	e8 00 00 00 00	 call	 __CheckForDebuggerJustMyCode
  0001f	90		 npad	 1

; 1085 :     // convert _Unsigned_type to _Size_type, avoiding truncation
; 1086 :     _STL_INTERNAL_STATIC_ASSERT(_Unsigned_type(-1) > 0);
; 1087 :     _STL_INTERNAL_STATIC_ASSERT(_Size_type(-1) > 0);
; 1088 : 
; 1089 :     if constexpr (sizeof(_Unsigned_type) > sizeof(_Size_type)) {
; 1090 :         if (_Len > _STD _Max_limit<_Size_type>()) {
; 1091 :             _Xlength_error("size is too long for _Size_type");
; 1092 :         }
; 1093 :     }
; 1094 : 
; 1095 :     return static_cast<_Size_type>(_Len);

  00020	48 8b 85 e0 00
	00 00		 mov	 rax, QWORD PTR _Len$[rbp]

; 1096 : }

  00027	48 8d a5 c8 00
	00 00		 lea	 rsp, QWORD PTR [rbp+200]
  0002e	5f		 pop	 rdi
  0002f	5d		 pop	 rbp
  00030	c3		 ret	 0
??$_Convert_size@_K_K@std@@YA_K_K@Z ENDP		; std::_Convert_size<unsigned __int64,unsigned __int64>
_TEXT	ENDS
; Function compile flags: /Odtp /RTCsu /ZI
; File C:\Program Files\Microsoft Visual Studio\2022\Community\VC\Tools\MSVC\14.42.34433\include\xmemory
;	COMDAT ??$_Delete_plain_internal@V?$allocator@U_Container_proxy@std@@@std@@@std@@YAXAEAV?$allocator@U_Container_proxy@std@@@0@QEAU_Container_proxy@0@@Z
_TEXT	SEGMENT
_Al$ = 224
_Ptr$ = 232
??$_Delete_plain_internal@V?$allocator@U_Container_proxy@std@@@std@@@std@@YAXAEAV?$allocator@U_Container_proxy@std@@@0@QEAU_Container_proxy@0@@Z PROC ; std::_Delete_plain_internal<std::allocator<std::_Container_proxy> >, COMDAT

; 1111 : _CONSTEXPR20 void _Delete_plain_internal(_Alloc& _Al, typename _Alloc::value_type* const _Ptr) noexcept {

$LN4:
  00000	48 89 54 24 10	 mov	 QWORD PTR [rsp+16], rdx
  00005	48 89 4c 24 08	 mov	 QWORD PTR [rsp+8], rcx
  0000a	55		 push	 rbp
  0000b	57		 push	 rdi
  0000c	48 81 ec e8 00
	00 00		 sub	 rsp, 232		; 000000e8H
  00013	48 8d 6c 24 20	 lea	 rbp, QWORD PTR [rsp+32]
  00018	48 8d 0d 00 00
	00 00		 lea	 rcx, OFFSET FLAT:__03BD3355_xmemory
  0001f	e8 00 00 00 00	 call	 __CheckForDebuggerJustMyCode
  00024	90		 npad	 1

; 1112 :     // destroy *_Ptr in place, then deallocate _Ptr using _Al; used for internal container types the user didn't name
; 1113 :     using _Ty = typename _Alloc::value_type;
; 1114 :     _Ptr->~_Ty();
; 1115 :     _STD _Deallocate_plain(_Al, _Ptr);

  00025	48 8b 95 e8 00
	00 00		 mov	 rdx, QWORD PTR _Ptr$[rbp]
  0002c	48 8b 8d e0 00
	00 00		 mov	 rcx, QWORD PTR _Al$[rbp]
  00033	e8 00 00 00 00	 call	 ??$_Deallocate_plain@V?$allocator@U_Container_proxy@std@@@std@@@std@@YAXAEAV?$allocator@U_Container_proxy@std@@@0@QEAU_Container_proxy@0@@Z ; std::_Deallocate_plain<std::allocator<std::_Container_proxy> >
  00038	90		 npad	 1

; 1116 : }

  00039	48 8d a5 c8 00
	00 00		 lea	 rsp, QWORD PTR [rbp+200]
  00040	5f		 pop	 rdi
  00041	5d		 pop	 rbp
  00042	c3		 ret	 0
??$_Delete_plain_internal@V?$allocator@U_Container_proxy@std@@@std@@@std@@YAXAEAV?$allocator@U_Container_proxy@std@@@0@QEAU_Container_proxy@0@@Z ENDP ; std::_Delete_plain_internal<std::allocator<std::_Container_proxy> >
_TEXT	ENDS
; Function compile flags: /Odtp /RTCsu /ZI
; File C:\Program Files\Microsoft Visual Studio\2022\Community\VC\Tools\MSVC\14.42.34433\include\xmemory
;	COMDAT ?allocate@?$allocator@U_Container_proxy@std@@@std@@QEAAPEAU_Container_proxy@2@_K@Z
_TEXT	SEGMENT
this$ = 224
_Count$ = 232
?allocate@?$allocator@U_Container_proxy@std@@@std@@QEAAPEAU_Container_proxy@2@_K@Z PROC ; std::allocator<std::_Container_proxy>::allocate, COMDAT

; 952  :     _NODISCARD_RAW_PTR_ALLOC _CONSTEXPR20 __declspec(allocator) _Ty* allocate(_CRT_GUARDOVERFLOW const size_t _Count) {

$LN3:
  00000	48 89 54 24 10	 mov	 QWORD PTR [rsp+16], rdx
  00005	48 89 4c 24 08	 mov	 QWORD PTR [rsp+8], rcx
  0000a	55		 push	 rbp
  0000b	57		 push	 rdi
  0000c	48 81 ec e8 00
	00 00		 sub	 rsp, 232		; 000000e8H
  00013	48 8d 6c 24 20	 lea	 rbp, QWORD PTR [rsp+32]
  00018	48 8d 0d 00 00
	00 00		 lea	 rcx, OFFSET FLAT:__03BD3355_xmemory
  0001f	e8 00 00 00 00	 call	 __CheckForDebuggerJustMyCode
  00024	90		 npad	 1

; 953  :         static_assert(sizeof(value_type) > 0, "value_type must be complete before calling allocate.");
; 954  :         return static_cast<_Ty*>(_STD _Allocate<_New_alignof<_Ty>>(_Get_size_of_n<sizeof(_Ty)>(_Count)));

  00025	48 8b 8d e8 00
	00 00		 mov	 rcx, QWORD PTR _Count$[rbp]
  0002c	e8 00 00 00 00	 call	 ??$_Get_size_of_n@$0BA@@std@@YA_K_K@Z ; std::_Get_size_of_n<16>
  00031	48 8b c8	 mov	 rcx, rax
  00034	e8 00 00 00 00	 call	 ??$_Allocate@$0BA@U_Default_allocate_traits@std@@@std@@YAPEAX_K@Z ; std::_Allocate<16,std::_Default_allocate_traits>

; 955  :     }

  00039	48 8d a5 c8 00
	00 00		 lea	 rsp, QWORD PTR [rbp+200]
  00040	5f		 pop	 rdi
  00041	5d		 pop	 rbp
  00042	c3		 ret	 0
?allocate@?$allocator@U_Container_proxy@std@@@std@@QEAAPEAU_Container_proxy@2@_K@Z ENDP ; std::allocator<std::_Container_proxy>::allocate
_TEXT	ENDS
; Function compile flags: /Odtp /RTCsu /ZI
; File C:\Program Files\Microsoft Visual Studio\2022\Community\VC\Tools\MSVC\14.42.34433\include\utility
;	COMDAT ??$min@_K@std@@YAAEB_KAEB_K0@Z
_TEXT	SEGMENT
$T1 = 200
tv65 = 216
_Left$ = 256
_Right$ = 264
??$min@_K@std@@YAAEB_KAEB_K0@Z PROC			; std::min<unsigned __int64>, COMDAT

; 99   :         noexcept(_Right < _Left)) /* strengthened */ {

$LN6:
  00000	48 89 54 24 10	 mov	 QWORD PTR [rsp+16], rdx
  00005	48 89 4c 24 08	 mov	 QWORD PTR [rsp+8], rcx
  0000a	55		 push	 rbp
  0000b	57		 push	 rdi
  0000c	48 81 ec 08 01
	00 00		 sub	 rsp, 264		; 00000108H
  00013	48 8d 6c 24 20	 lea	 rbp, QWORD PTR [rsp+32]
  00018	48 8d 0d 00 00
	00 00		 lea	 rcx, OFFSET FLAT:__69285096_utility
  0001f	e8 00 00 00 00	 call	 __CheckForDebuggerJustMyCode
  00024	90		 npad	 1

; 100  :     // return smaller of _Left and _Right
; 101  :     return _Right < _Left ? _Right : _Left;

  00025	48 8b 85 08 01
	00 00		 mov	 rax, QWORD PTR _Right$[rbp]
  0002c	48 8b 8d 00 01
	00 00		 mov	 rcx, QWORD PTR _Left$[rbp]
  00033	48 8b 09	 mov	 rcx, QWORD PTR [rcx]
  00036	48 39 08	 cmp	 QWORD PTR [rax], rcx
  00039	73 10		 jae	 SHORT $LN3@min
  0003b	48 8b 85 08 01
	00 00		 mov	 rax, QWORD PTR _Right$[rbp]
  00042	48 89 85 d8 00
	00 00		 mov	 QWORD PTR tv65[rbp], rax
  00049	eb 0e		 jmp	 SHORT $LN4@min
$LN3@min:
  0004b	48 8b 85 00 01
	00 00		 mov	 rax, QWORD PTR _Left$[rbp]
  00052	48 89 85 d8 00
	00 00		 mov	 QWORD PTR tv65[rbp], rax
$LN4@min:
  00059	48 8b 85 d8 00
	00 00		 mov	 rax, QWORD PTR tv65[rbp]
  00060	48 89 85 c8 00
	00 00		 mov	 QWORD PTR $T1[rbp], rax
  00067	48 8b 85 c8 00
	00 00		 mov	 rax, QWORD PTR $T1[rbp]

; 102  : }

  0006e	48 8d a5 e8 00
	00 00		 lea	 rsp, QWORD PTR [rbp+232]
  00075	5f		 pop	 rdi
  00076	5d		 pop	 rbp
  00077	c3		 ret	 0
??$min@_K@std@@YAAEB_KAEB_K0@Z ENDP			; std::min<unsigned __int64>
_TEXT	ENDS
; Function compile flags: /Odtp /RTCsu /ZI
; File C:\Program Files\Microsoft Visual Studio\2022\Community\VC\Tools\MSVC\14.42.34433\include\ostream
;	COMDAT ??Bsentry@?$basic_ostream@DU?$char_traits@D@std@@@std@@QEBA_NXZ
_TEXT	SEGMENT
this$ = 224
??Bsentry@?$basic_ostream@DU?$char_traits@D@std@@@std@@QEBA_NXZ PROC ; std::basic_ostream<char,std::char_traits<char> >::sentry::operator bool, COMDAT

; 128  :         explicit __CLR_OR_THIS_CALL operator bool() const {

$LN3:
  00000	48 89 4c 24 08	 mov	 QWORD PTR [rsp+8], rcx
  00005	55		 push	 rbp
  00006	57		 push	 rdi
  00007	48 81 ec e8 00
	00 00		 sub	 rsp, 232		; 000000e8H
  0000e	48 8d 6c 24 20	 lea	 rbp, QWORD PTR [rsp+32]
  00013	48 8d 0d 00 00
	00 00		 lea	 rcx, OFFSET FLAT:__BB401B3C_ostream
  0001a	e8 00 00 00 00	 call	 __CheckForDebuggerJustMyCode
  0001f	90		 npad	 1

; 129  :             return _Ok;

  00020	48 8b 85 e0 00
	00 00		 mov	 rax, QWORD PTR this$[rbp]
  00027	0f b6 40 08	 movzx	 eax, BYTE PTR [rax+8]

; 130  :         }

  0002b	48 8d a5 c8 00
	00 00		 lea	 rsp, QWORD PTR [rbp+200]
  00032	5f		 pop	 rdi
  00033	5d		 pop	 rbp
  00034	c3		 ret	 0
??Bsentry@?$basic_ostream@DU?$char_traits@D@std@@@std@@QEBA_NXZ ENDP ; std::basic_ostream<char,std::char_traits<char> >::sentry::operator bool
_TEXT	ENDS
; Function compile flags: /Odtp /RTCsu /ZI
; File C:\Program Files\Microsoft Visual Studio\2022\Community\VC\Tools\MSVC\14.42.34433\include\ostream
;	COMDAT ??1sentry@?$basic_ostream@DU?$char_traits@D@std@@@std@@QEAA@XZ
_TEXT	SEGMENT
_Zero_uncaught_exceptions$ = 4
tv72 = 212
this$ = 256
??1sentry@?$basic_ostream@DU?$char_traits@D@std@@@std@@QEAA@XZ PROC ; std::basic_ostream<char,std::char_traits<char> >::sentry::~sentry, COMDAT

; 113  :         __CLR_OR_THIS_CALL ~sentry() noexcept {

$LN7:
  00000	48 89 4c 24 08	 mov	 QWORD PTR [rsp+8], rcx
  00005	55		 push	 rbp
  00006	57		 push	 rdi
  00007	48 81 ec 08 01
	00 00		 sub	 rsp, 264		; 00000108H
  0000e	48 8d 6c 24 20	 lea	 rbp, QWORD PTR [rsp+32]
  00013	48 8d 0d 00 00
	00 00		 lea	 rcx, OFFSET FLAT:__BB401B3C_ostream
  0001a	e8 00 00 00 00	 call	 __CheckForDebuggerJustMyCode
  0001f	90		 npad	 1

; 114  : #if !_HAS_EXCEPTIONS
; 115  :             const bool _Zero_uncaught_exceptions = true;
; 116  : #elif _HAS_DEPRECATED_UNCAUGHT_EXCEPTION
; 117  :             const bool _Zero_uncaught_exceptions = !_STD uncaught_exception(); // TRANSITION, ArchivedOS-12000909

  00020	e8 00 00 00 00	 call	 ?uncaught_exception@std@@YA_NXZ ; std::uncaught_exception
  00025	0f b6 c0	 movzx	 eax, al
  00028	85 c0		 test	 eax, eax
  0002a	75 09		 jne	 SHORT $LN4@sentry
  0002c	c6 85 d4 00 00
	00 01		 mov	 BYTE PTR tv72[rbp], 1
  00033	eb 07		 jmp	 SHORT $LN5@sentry
$LN4@sentry:
  00035	c6 85 d4 00 00
	00 00		 mov	 BYTE PTR tv72[rbp], 0
$LN5@sentry:
  0003c	0f b6 85 d4 00
	00 00		 movzx	 eax, BYTE PTR tv72[rbp]
  00043	88 45 04	 mov	 BYTE PTR _Zero_uncaught_exceptions$[rbp], al

; 118  : #else // ^^^ _HAS_DEPRECATED_UNCAUGHT_EXCEPTION / !_HAS_DEPRECATED_UNCAUGHT_EXCEPTION vvv
; 119  :             const bool _Zero_uncaught_exceptions = _STD uncaught_exceptions() == 0;
; 120  : #endif // ^^^ !_HAS_DEPRECATED_UNCAUGHT_EXCEPTION ^^^
; 121  : 
; 122  :             if (_Zero_uncaught_exceptions) {

  00046	0f b6 45 04	 movzx	 eax, BYTE PTR _Zero_uncaught_exceptions$[rbp]
  0004a	85 c0		 test	 eax, eax
  0004c	74 11		 je	 SHORT $LN2@sentry

; 123  :                 this->_Myostr._Osfx();

  0004e	48 8b 85 00 01
	00 00		 mov	 rax, QWORD PTR this$[rbp]
  00055	48 8b 08	 mov	 rcx, QWORD PTR [rax]
  00058	ff 15 00 00 00
	00		 call	 QWORD PTR __imp_?_Osfx@?$basic_ostream@DU?$char_traits@D@std@@@std@@QEAAXXZ
  0005e	90		 npad	 1
$LN2@sentry:

; 124  :             }
; 125  :         }

  0005f	48 8b 8d 00 01
	00 00		 mov	 rcx, QWORD PTR this$[rbp]
  00066	e8 00 00 00 00	 call	 ??1_Sentry_base@?$basic_ostream@DU?$char_traits@D@std@@@std@@QEAA@XZ ; std::basic_ostream<char,std::char_traits<char> >::_Sentry_base::~_Sentry_base
  0006b	90		 npad	 1
  0006c	48 8d a5 e8 00
	00 00		 lea	 rsp, QWORD PTR [rbp+232]
  00073	5f		 pop	 rdi
  00074	5d		 pop	 rbp
  00075	c3		 ret	 0
??1sentry@?$basic_ostream@DU?$char_traits@D@std@@@std@@QEAA@XZ ENDP ; std::basic_ostream<char,std::char_traits<char> >::sentry::~sentry
_TEXT	ENDS
; Function compile flags: /Odtp /RTCsu /ZI
; File C:\Program Files\Microsoft Visual Studio\2022\Community\VC\Tools\MSVC\14.42.34433\include\ostream
;	COMDAT ??0sentry@?$basic_ostream@DU?$char_traits@D@std@@@std@@QEAA@AEAV12@@Z
_TEXT	SEGMENT
_Tied$ = 8
this$ = 256
_Ostr$ = 264
??0sentry@?$basic_ostream@DU?$char_traits@D@std@@@std@@QEAA@AEAV12@@Z PROC ; std::basic_ostream<char,std::char_traits<char> >::sentry::sentry, COMDAT

; 96   :         explicit __CLR_OR_THIS_CALL sentry(basic_ostream& _Ostr) : _Sentry_base(_Ostr) {

$LN7:
  00000	48 89 54 24 10	 mov	 QWORD PTR [rsp+16], rdx
  00005	48 89 4c 24 08	 mov	 QWORD PTR [rsp+8], rcx
  0000a	55		 push	 rbp
  0000b	57		 push	 rdi
  0000c	48 81 ec 08 01
	00 00		 sub	 rsp, 264		; 00000108H
  00013	48 8d 6c 24 20	 lea	 rbp, QWORD PTR [rsp+32]
  00018	48 8d 0d 00 00
	00 00		 lea	 rcx, OFFSET FLAT:__BB401B3C_ostream
  0001f	e8 00 00 00 00	 call	 __CheckForDebuggerJustMyCode
  00024	90		 npad	 1
  00025	48 8b 95 08 01
	00 00		 mov	 rdx, QWORD PTR _Ostr$[rbp]
  0002c	48 8b 8d 00 01
	00 00		 mov	 rcx, QWORD PTR this$[rbp]
  00033	e8 00 00 00 00	 call	 ??0_Sentry_base@?$basic_ostream@DU?$char_traits@D@std@@@std@@QEAA@AEAV12@@Z ; std::basic_ostream<char,std::char_traits<char> >::_Sentry_base::_Sentry_base
  00038	90		 npad	 1

; 97   :             if (!_Ostr.good()) {

  00039	48 8b 85 08 01
	00 00		 mov	 rax, QWORD PTR _Ostr$[rbp]
  00040	48 8b 00	 mov	 rax, QWORD PTR [rax]
  00043	48 63 40 04	 movsxd	 rax, DWORD PTR [rax+4]
  00047	48 8b 8d 08 01
	00 00		 mov	 rcx, QWORD PTR _Ostr$[rbp]
  0004e	48 03 c8	 add	 rcx, rax
  00051	48 8b c1	 mov	 rax, rcx
  00054	48 8b c8	 mov	 rcx, rax
  00057	ff 15 00 00 00
	00		 call	 QWORD PTR __imp_?good@ios_base@std@@QEBA_NXZ
  0005d	0f b6 c0	 movzx	 eax, al
  00060	85 c0		 test	 eax, eax
  00062	75 10		 jne	 SHORT $LN2@sentry

; 98   :                 _Ok = false;

  00064	48 8b 85 00 01
	00 00		 mov	 rax, QWORD PTR this$[rbp]
  0006b	c6 40 08 00	 mov	 BYTE PTR [rax+8], 0

; 99   :                 return;

  0006f	e9 87 00 00 00	 jmp	 $LN1@sentry
$LN2@sentry:

; 100  :             }
; 101  : 
; 102  :             const auto _Tied = _Ostr.tie();

  00074	48 8b 85 08 01
	00 00		 mov	 rax, QWORD PTR _Ostr$[rbp]
  0007b	48 8b 00	 mov	 rax, QWORD PTR [rax]
  0007e	48 63 40 04	 movsxd	 rax, DWORD PTR [rax+4]
  00082	48 8b 8d 08 01
	00 00		 mov	 rcx, QWORD PTR _Ostr$[rbp]
  00089	48 03 c8	 add	 rcx, rax
  0008c	48 8b c1	 mov	 rax, rcx
  0008f	48 8b c8	 mov	 rcx, rax
  00092	ff 15 00 00 00
	00		 call	 QWORD PTR __imp_?tie@?$basic_ios@DU?$char_traits@D@std@@@std@@QEBAPEAV?$basic_ostream@DU?$char_traits@D@std@@@2@XZ
  00098	48 89 45 08	 mov	 QWORD PTR _Tied$[rbp], rax

; 103  :             if (!_Tied || _Tied == _STD addressof(_Ostr)) {

  0009c	48 83 7d 08 00	 cmp	 QWORD PTR _Tied$[rbp], 0
  000a1	74 12		 je	 SHORT $LN4@sentry
  000a3	48 8b 8d 08 01
	00 00		 mov	 rcx, QWORD PTR _Ostr$[rbp]
  000aa	e8 00 00 00 00	 call	 ??$addressof@V?$basic_ostream@DU?$char_traits@D@std@@@std@@@std@@YAPEAV?$basic_ostream@DU?$char_traits@D@std@@@0@AEAV10@@Z ; std::addressof<std::basic_ostream<char,std::char_traits<char> > >
  000af	48 39 45 08	 cmp	 QWORD PTR _Tied$[rbp], rax
  000b3	75 0d		 jne	 SHORT $LN3@sentry
$LN4@sentry:

; 104  :                 _Ok = true;

  000b5	48 8b 85 00 01
	00 00		 mov	 rax, QWORD PTR this$[rbp]
  000bc	c6 40 08 01	 mov	 BYTE PTR [rax+8], 1

; 105  :                 return;

  000c0	eb 39		 jmp	 SHORT $LN1@sentry
$LN3@sentry:

; 106  :             }
; 107  : 
; 108  :             _Tied->flush();

  000c2	48 8b 4d 08	 mov	 rcx, QWORD PTR _Tied$[rbp]
  000c6	ff 15 00 00 00
	00		 call	 QWORD PTR __imp_?flush@?$basic_ostream@DU?$char_traits@D@std@@@std@@QEAAAEAV12@XZ
  000cc	90		 npad	 1

; 109  :             _Ok = _Ostr.good(); // store test only after flushing tie

  000cd	48 8b 85 08 01
	00 00		 mov	 rax, QWORD PTR _Ostr$[rbp]
  000d4	48 8b 00	 mov	 rax, QWORD PTR [rax]
  000d7	48 63 40 04	 movsxd	 rax, DWORD PTR [rax+4]
  000db	48 8b 8d 08 01
	00 00		 mov	 rcx, QWORD PTR _Ostr$[rbp]
  000e2	48 03 c8	 add	 rcx, rax
  000e5	48 8b c1	 mov	 rax, rcx
  000e8	48 8b c8	 mov	 rcx, rax
  000eb	ff 15 00 00 00
	00		 call	 QWORD PTR __imp_?good@ios_base@std@@QEBA_NXZ
  000f1	48 8b 8d 00 01
	00 00		 mov	 rcx, QWORD PTR this$[rbp]
  000f8	88 41 08	 mov	 BYTE PTR [rcx+8], al
$LN1@sentry:

; 110  :         }

  000fb	48 8b 85 00 01
	00 00		 mov	 rax, QWORD PTR this$[rbp]
  00102	48 8d a5 e8 00
	00 00		 lea	 rsp, QWORD PTR [rbp+232]
  00109	5f		 pop	 rdi
  0010a	5d		 pop	 rbp
  0010b	c3		 ret	 0
??0sentry@?$basic_ostream@DU?$char_traits@D@std@@@std@@QEAA@AEAV12@@Z ENDP ; std::basic_ostream<char,std::char_traits<char> >::sentry::sentry
_TEXT	ENDS
; Function compile flags: /Odtp /RTCsu /ZI
;	COMDAT text$x
text$x	SEGMENT
_Tied$ = 8
this$ = 256
_Ostr$ = 264
?dtor$0@?0???0sentry@?$basic_ostream@DU?$char_traits@D@std@@@std@@QEAA@AEAV12@@Z@4HA PROC ; `std::basic_ostream<char,std::char_traits<char> >::sentry::sentry'::`1'::dtor$0
  00000	48 89 4c 24 08	 mov	 QWORD PTR [rsp+8], rcx
  00005	48 89 54 24 10	 mov	 QWORD PTR [rsp+16], rdx
  0000a	55		 push	 rbp
  0000b	57		 push	 rdi
  0000c	48 83 ec 28	 sub	 rsp, 40			; 00000028H
  00010	48 8d 6a 20	 lea	 rbp, QWORD PTR [rdx+32]
  00014	48 8b 8d 00 01
	00 00		 mov	 rcx, QWORD PTR this$[rbp]
  0001b	e8 00 00 00 00	 call	 ??1_Sentry_base@?$basic_ostream@DU?$char_traits@D@std@@@std@@QEAA@XZ ; std::basic_ostream<char,std::char_traits<char> >::_Sentry_base::~_Sentry_base
  00020	48 83 c4 28	 add	 rsp, 40			; 00000028H
  00024	5f		 pop	 rdi
  00025	5d		 pop	 rbp
  00026	c3		 ret	 0
?dtor$0@?0???0sentry@?$basic_ostream@DU?$char_traits@D@std@@@std@@QEAA@AEAV12@@Z@4HA ENDP ; `std::basic_ostream<char,std::char_traits<char> >::sentry::sentry'::`1'::dtor$0
text$x	ENDS
; Function compile flags: /Odtp /RTCsu /ZI
; File C:\Program Files\Microsoft Visual Studio\2022\Community\VC\Tools\MSVC\14.42.34433\include\ostream
;	COMDAT ??1_Sentry_base@?$basic_ostream@DU?$char_traits@D@std@@@std@@QEAA@XZ
_TEXT	SEGMENT
_Rdbuf$ = 8
tv72 = 216
this$ = 256
??1_Sentry_base@?$basic_ostream@DU?$char_traits@D@std@@@std@@QEAA@XZ PROC ; std::basic_ostream<char,std::char_traits<char> >::_Sentry_base::~_Sentry_base, COMDAT

; 82   :         __CLR_OR_THIS_CALL ~_Sentry_base() noexcept { // destroy after unlocking

$LN5:
  00000	48 89 4c 24 08	 mov	 QWORD PTR [rsp+8], rcx
  00005	55		 push	 rbp
  00006	57		 push	 rdi
  00007	48 81 ec 08 01
	00 00		 sub	 rsp, 264		; 00000108H
  0000e	48 8d 6c 24 20	 lea	 rbp, QWORD PTR [rsp+32]
  00013	48 8d 0d 00 00
	00 00		 lea	 rcx, OFFSET FLAT:__BB401B3C_ostream
  0001a	e8 00 00 00 00	 call	 __CheckForDebuggerJustMyCode
  0001f	90		 npad	 1

; 83   :             const auto _Rdbuf = _Myostr.rdbuf();

  00020	48 8b 85 00 01
	00 00		 mov	 rax, QWORD PTR this$[rbp]
  00027	48 8b 00	 mov	 rax, QWORD PTR [rax]
  0002a	48 89 85 d8 00
	00 00		 mov	 QWORD PTR tv72[rbp], rax
  00031	48 8b 85 d8 00
	00 00		 mov	 rax, QWORD PTR tv72[rbp]
  00038	48 8b 00	 mov	 rax, QWORD PTR [rax]
  0003b	48 63 40 04	 movsxd	 rax, DWORD PTR [rax+4]
  0003f	48 8b 8d d8 00
	00 00		 mov	 rcx, QWORD PTR tv72[rbp]
  00046	48 03 c8	 add	 rcx, rax
  00049	48 8b c1	 mov	 rax, rcx
  0004c	48 8b c8	 mov	 rcx, rax
  0004f	ff 15 00 00 00
	00		 call	 QWORD PTR __imp_?rdbuf@?$basic_ios@DU?$char_traits@D@std@@@std@@QEBAPEAV?$basic_streambuf@DU?$char_traits@D@std@@@2@XZ
  00055	48 89 45 08	 mov	 QWORD PTR _Rdbuf$[rbp], rax

; 84   :             if (_Rdbuf) {

  00059	48 83 7d 08 00	 cmp	 QWORD PTR _Rdbuf$[rbp], 0
  0005e	74 0f		 je	 SHORT $LN2@Sentry_bas

; 85   :                 _Rdbuf->_Unlock();

  00060	48 8b 45 08	 mov	 rax, QWORD PTR _Rdbuf$[rbp]
  00064	48 8b 00	 mov	 rax, QWORD PTR [rax]
  00067	48 8b 4d 08	 mov	 rcx, QWORD PTR _Rdbuf$[rbp]
  0006b	ff 50 10	 call	 QWORD PTR [rax+16]
  0006e	90		 npad	 1
$LN2@Sentry_bas:

; 86   :             }
; 87   :         }

  0006f	48 8d a5 e8 00
	00 00		 lea	 rsp, QWORD PTR [rbp+232]
  00076	5f		 pop	 rdi
  00077	5d		 pop	 rbp
  00078	c3		 ret	 0
??1_Sentry_base@?$basic_ostream@DU?$char_traits@D@std@@@std@@QEAA@XZ ENDP ; std::basic_ostream<char,std::char_traits<char> >::_Sentry_base::~_Sentry_base
_TEXT	ENDS
; Function compile flags: /Odtp /RTCsu /ZI
; File C:\Program Files\Microsoft Visual Studio\2022\Community\VC\Tools\MSVC\14.42.34433\include\ostream
;	COMDAT ??0_Sentry_base@?$basic_ostream@DU?$char_traits@D@std@@@std@@QEAA@AEAV12@@Z
_TEXT	SEGMENT
_Rdbuf$ = 8
tv73 = 216
this$ = 256
_Ostr$ = 264
??0_Sentry_base@?$basic_ostream@DU?$char_traits@D@std@@@std@@QEAA@AEAV12@@Z PROC ; std::basic_ostream<char,std::char_traits<char> >::_Sentry_base::_Sentry_base, COMDAT

; 75   :         __CLR_OR_THIS_CALL _Sentry_base(basic_ostream& _Ostr) : _Myostr(_Ostr) { // lock the stream buffer, if there

$LN4:
  00000	48 89 54 24 10	 mov	 QWORD PTR [rsp+16], rdx
  00005	48 89 4c 24 08	 mov	 QWORD PTR [rsp+8], rcx
  0000a	55		 push	 rbp
  0000b	57		 push	 rdi
  0000c	48 81 ec 08 01
	00 00		 sub	 rsp, 264		; 00000108H
  00013	48 8d 6c 24 20	 lea	 rbp, QWORD PTR [rsp+32]
  00018	48 8d 0d 00 00
	00 00		 lea	 rcx, OFFSET FLAT:__BB401B3C_ostream
  0001f	e8 00 00 00 00	 call	 __CheckForDebuggerJustMyCode
  00024	90		 npad	 1
  00025	48 8b 85 00 01
	00 00		 mov	 rax, QWORD PTR this$[rbp]
  0002c	48 8b 8d 08 01
	00 00		 mov	 rcx, QWORD PTR _Ostr$[rbp]
  00033	48 89 08	 mov	 QWORD PTR [rax], rcx

; 76   :             const auto _Rdbuf = _Myostr.rdbuf();

  00036	48 8b 85 00 01
	00 00		 mov	 rax, QWORD PTR this$[rbp]
  0003d	48 8b 00	 mov	 rax, QWORD PTR [rax]
  00040	48 89 85 d8 00
	00 00		 mov	 QWORD PTR tv73[rbp], rax
  00047	48 8b 85 d8 00
	00 00		 mov	 rax, QWORD PTR tv73[rbp]
  0004e	48 8b 00	 mov	 rax, QWORD PTR [rax]
  00051	48 63 40 04	 movsxd	 rax, DWORD PTR [rax+4]
  00055	48 8b 8d d8 00
	00 00		 mov	 rcx, QWORD PTR tv73[rbp]
  0005c	48 03 c8	 add	 rcx, rax
  0005f	48 8b c1	 mov	 rax, rcx
  00062	48 8b c8	 mov	 rcx, rax
  00065	ff 15 00 00 00
	00		 call	 QWORD PTR __imp_?rdbuf@?$basic_ios@DU?$char_traits@D@std@@@std@@QEBAPEAV?$basic_streambuf@DU?$char_traits@D@std@@@2@XZ
  0006b	48 89 45 08	 mov	 QWORD PTR _Rdbuf$[rbp], rax

; 77   :             if (_Rdbuf) {

  0006f	48 83 7d 08 00	 cmp	 QWORD PTR _Rdbuf$[rbp], 0
  00074	74 0f		 je	 SHORT $LN2@Sentry_bas

; 78   :                 _Rdbuf->_Lock();

  00076	48 8b 45 08	 mov	 rax, QWORD PTR _Rdbuf$[rbp]
  0007a	48 8b 00	 mov	 rax, QWORD PTR [rax]
  0007d	48 8b 4d 08	 mov	 rcx, QWORD PTR _Rdbuf$[rbp]
  00081	ff 50 08	 call	 QWORD PTR [rax+8]
  00084	90		 npad	 1
$LN2@Sentry_bas:

; 79   :             }
; 80   :         }

  00085	48 8b 85 00 01
	00 00		 mov	 rax, QWORD PTR this$[rbp]
  0008c	48 8d a5 e8 00
	00 00		 lea	 rsp, QWORD PTR [rbp+232]
  00093	5f		 pop	 rdi
  00094	5d		 pop	 rbp
  00095	c3		 ret	 0
??0_Sentry_base@?$basic_ostream@DU?$char_traits@D@std@@@std@@QEAA@AEAV12@@Z ENDP ; std::basic_ostream<char,std::char_traits<char> >::_Sentry_base::_Sentry_base
_TEXT	ENDS
; Function compile flags: /Odtp /RTCsu /ZI
; File C:\Program Files\Microsoft Visual Studio\2022\Community\VC\Tools\MSVC\14.42.34433\include\xstring
;	COMDAT ??$?6DU?$char_traits@D@std@@V?$allocator@D@1@@std@@YAAEAV?$basic_ostream@DU?$char_traits@D@std@@@0@AEAV10@AEBV?$basic_string@DU?$char_traits@D@std@@V?$allocator@D@2@@0@@Z
_TEXT	SEGMENT
tv66 = 192
_Ostr$ = 240
_Str$ = 248
??$?6DU?$char_traits@D@std@@V?$allocator@D@1@@std@@YAAEAV?$basic_ostream@DU?$char_traits@D@std@@@0@AEAV10@AEBV?$basic_string@DU?$char_traits@D@std@@V?$allocator@D@2@@0@@Z PROC ; std::operator<<<char,std::char_traits<char>,std::allocator<char> >, COMDAT

; 3420 :     basic_ostream<_Elem, _Traits>& _Ostr, const basic_string<_Elem, _Traits, _Alloc>& _Str) {

$LN3:
  00000	48 89 54 24 10	 mov	 QWORD PTR [rsp+16], rdx
  00005	48 89 4c 24 08	 mov	 QWORD PTR [rsp+8], rcx
  0000a	55		 push	 rbp
  0000b	57		 push	 rdi
  0000c	48 81 ec f8 00
	00 00		 sub	 rsp, 248		; 000000f8H
  00013	48 8d 6c 24 20	 lea	 rbp, QWORD PTR [rsp+32]
  00018	48 8d 0d 00 00
	00 00		 lea	 rcx, OFFSET FLAT:__776EB5C9_xstring
  0001f	e8 00 00 00 00	 call	 __CheckForDebuggerJustMyCode
  00024	90		 npad	 1

; 3421 :     return _Insert_string(_Ostr, _Str.data(), _Str.size());

  00025	48 8b 8d f8 00
	00 00		 mov	 rcx, QWORD PTR _Str$[rbp]
  0002c	e8 00 00 00 00	 call	 ?size@?$basic_string@DU?$char_traits@D@std@@V?$allocator@D@2@@std@@QEBA_KXZ ; std::basic_string<char,std::char_traits<char>,std::allocator<char> >::size
  00031	48 89 85 c0 00
	00 00		 mov	 QWORD PTR tv66[rbp], rax
  00038	48 8b 8d f8 00
	00 00		 mov	 rcx, QWORD PTR _Str$[rbp]
  0003f	e8 00 00 00 00	 call	 ?data@?$basic_string@DU?$char_traits@D@std@@V?$allocator@D@2@@std@@QEBAPEBDXZ ; std::basic_string<char,std::char_traits<char>,std::allocator<char> >::data
  00044	48 8b 8d c0 00
	00 00		 mov	 rcx, QWORD PTR tv66[rbp]
  0004b	4c 8b c1	 mov	 r8, rcx
  0004e	48 8b d0	 mov	 rdx, rax
  00051	48 8b 8d f0 00
	00 00		 mov	 rcx, QWORD PTR _Ostr$[rbp]
  00058	e8 00 00 00 00	 call	 ??$_Insert_string@DU?$char_traits@D@std@@_K@std@@YAAEAV?$basic_ostream@DU?$char_traits@D@std@@@0@AEAV10@QEBD_K@Z ; std::_Insert_string<char,std::char_traits<char>,unsigned __int64>

; 3422 : }

  0005d	48 8d a5 d8 00
	00 00		 lea	 rsp, QWORD PTR [rbp+216]
  00064	5f		 pop	 rdi
  00065	5d		 pop	 rbp
  00066	c3		 ret	 0
??$?6DU?$char_traits@D@std@@V?$allocator@D@1@@std@@YAAEAV?$basic_ostream@DU?$char_traits@D@std@@@0@AEAV10@AEBV?$basic_string@DU?$char_traits@D@std@@V?$allocator@D@2@@0@@Z ENDP ; std::operator<<<char,std::char_traits<char>,std::allocator<char> >
_TEXT	ENDS
; Function compile flags: /Odtp /RTCsu /ZI
; File C:\Program Files\Microsoft Visual Studio\2022\Community\VC\Tools\MSVC\14.42.34433\include\ostream
;	COMDAT ??$endl@DU?$char_traits@D@std@@@std@@YAAEAV?$basic_ostream@DU?$char_traits@D@std@@@0@AEAV10@@Z
_TEXT	SEGMENT
_Ostr$ = 224
??$endl@DU?$char_traits@D@std@@@std@@YAAEAV?$basic_ostream@DU?$char_traits@D@std@@@0@AEAV10@@Z PROC ; std::endl<char,std::char_traits<char> >, COMDAT

; 1018 :     basic_ostream<_Elem, _Traits>& _Ostr) { // insert newline and flush stream

$LN3:
  00000	48 89 4c 24 08	 mov	 QWORD PTR [rsp+8], rcx
  00005	55		 push	 rbp
  00006	57		 push	 rdi
  00007	48 81 ec e8 00
	00 00		 sub	 rsp, 232		; 000000e8H
  0000e	48 8d 6c 24 20	 lea	 rbp, QWORD PTR [rsp+32]
  00013	48 8d 0d 00 00
	00 00		 lea	 rcx, OFFSET FLAT:__BB401B3C_ostream
  0001a	e8 00 00 00 00	 call	 __CheckForDebuggerJustMyCode
  0001f	90		 npad	 1

; 1019 :     _Ostr.put(_Ostr.widen('\n'));

  00020	48 8b 85 e0 00
	00 00		 mov	 rax, QWORD PTR _Ostr$[rbp]
  00027	48 8b 00	 mov	 rax, QWORD PTR [rax]
  0002a	48 63 40 04	 movsxd	 rax, DWORD PTR [rax+4]
  0002e	48 8b 8d e0 00
	00 00		 mov	 rcx, QWORD PTR _Ostr$[rbp]
  00035	48 03 c8	 add	 rcx, rax
  00038	48 8b c1	 mov	 rax, rcx
  0003b	b2 0a		 mov	 dl, 10
  0003d	48 8b c8	 mov	 rcx, rax
  00040	ff 15 00 00 00
	00		 call	 QWORD PTR __imp_?widen@?$basic_ios@DU?$char_traits@D@std@@@std@@QEBADD@Z
  00046	0f b6 d0	 movzx	 edx, al
  00049	48 8b 8d e0 00
	00 00		 mov	 rcx, QWORD PTR _Ostr$[rbp]
  00050	ff 15 00 00 00
	00		 call	 QWORD PTR __imp_?put@?$basic_ostream@DU?$char_traits@D@std@@@std@@QEAAAEAV12@D@Z
  00056	90		 npad	 1

; 1020 :     _Ostr.flush();

  00057	48 8b 8d e0 00
	00 00		 mov	 rcx, QWORD PTR _Ostr$[rbp]
  0005e	ff 15 00 00 00
	00		 call	 QWORD PTR __imp_?flush@?$basic_ostream@DU?$char_traits@D@std@@@std@@QEAAAEAV12@XZ
  00064	90		 npad	 1

; 1021 :     return _Ostr;

  00065	48 8b 85 e0 00
	00 00		 mov	 rax, QWORD PTR _Ostr$[rbp]

; 1022 : }

  0006c	48 8d a5 c8 00
	00 00		 lea	 rsp, QWORD PTR [rbp+200]
  00073	5f		 pop	 rdi
  00074	5d		 pop	 rbp
  00075	c3		 ret	 0
??$endl@DU?$char_traits@D@std@@@std@@YAAEAV?$basic_ostream@DU?$char_traits@D@std@@@0@AEAV10@@Z ENDP ; std::endl<char,std::char_traits<char> >
_TEXT	ENDS
; Function compile flags: /Odtp /RTCsu /ZI
; File C:\Program Files\Microsoft Visual Studio\2022\Community\VC\Tools\MSVC\14.42.34433\include\ostream
;	COMDAT ??$?6U?$char_traits@D@std@@@std@@YAAEAV?$basic_ostream@DU?$char_traits@D@std@@@0@AEAV10@PEBD@Z
_TEXT	SEGMENT
_State$ = 4
_Count$ = 40
_Pad$ = 72
_Ok$ = 104
$T4 = 344
tv283 = 356
tv285 = 356
tv137 = 360
tv139 = 360
tv295 = 360
tv296 = 360
__$ArrayPad$ = 368
_Ostr$ = 416
_Val$ = 424
??$?6U?$char_traits@D@std@@@std@@YAAEAV?$basic_ostream@DU?$char_traits@D@std@@@0@AEAV10@PEBD@Z PROC ; std::operator<<<std::char_traits<char> >, COMDAT

; 774  : basic_ostream<char, _Traits>& operator<<(basic_ostream<char, _Traits>& _Ostr, const char* _Val) {

$LN25:
  00000	48 89 54 24 10	 mov	 QWORD PTR [rsp+16], rdx
  00005	48 89 4c 24 08	 mov	 QWORD PTR [rsp+8], rcx
  0000a	55		 push	 rbp
  0000b	57		 push	 rdi
  0000c	48 81 ec a8 01
	00 00		 sub	 rsp, 424		; 000001a8H
  00013	48 8d 6c 24 20	 lea	 rbp, QWORD PTR [rsp+32]
  00018	48 8d 7c 24 20	 lea	 rdi, QWORD PTR [rsp+32]
  0001d	b9 32 00 00 00	 mov	 ecx, 50			; 00000032H
  00022	b8 cc cc cc cc	 mov	 eax, -858993460		; ccccccccH
  00027	f3 ab		 rep stosd
  00029	48 8b 8c 24 c8
	01 00 00	 mov	 rcx, QWORD PTR [rsp+456]
  00031	48 8b 05 00 00
	00 00		 mov	 rax, QWORD PTR __security_cookie
  00038	48 33 c5	 xor	 rax, rbp
  0003b	48 89 85 70 01
	00 00		 mov	 QWORD PTR __$ArrayPad$[rbp], rax
  00042	48 8d 0d 00 00
	00 00		 lea	 rcx, OFFSET FLAT:__BB401B3C_ostream
  00049	e8 00 00 00 00	 call	 __CheckForDebuggerJustMyCode
  0004e	90		 npad	 1

; 775  :     // insert NTBS into char stream
; 776  :     using _Elem = char;
; 777  :     using _Myos = basic_ostream<_Elem, _Traits>;
; 778  : 
; 779  :     ios_base::iostate _State = ios_base::goodbit;

  0004f	c7 45 04 00 00
	00 00		 mov	 DWORD PTR _State$[rbp], 0

; 780  :     streamsize _Count        = static_cast<streamsize>(_Traits::length(_Val));

  00056	48 8b 8d a8 01
	00 00		 mov	 rcx, QWORD PTR _Val$[rbp]
  0005d	e8 00 00 00 00	 call	 ?length@?$_Narrow_char_traits@DH@std@@SA_KQEBD@Z ; std::_Narrow_char_traits<char,int>::length
  00062	48 89 45 28	 mov	 QWORD PTR _Count$[rbp], rax

; 781  :     streamsize _Pad          = _Ostr.width() <= 0 || _Ostr.width() <= _Count ? 0 : _Ostr.width() - _Count;

  00066	48 8b 85 a0 01
	00 00		 mov	 rax, QWORD PTR _Ostr$[rbp]
  0006d	48 8b 00	 mov	 rax, QWORD PTR [rax]
  00070	48 63 40 04	 movsxd	 rax, DWORD PTR [rax+4]
  00074	48 8b 8d a0 01
	00 00		 mov	 rcx, QWORD PTR _Ostr$[rbp]
  0007b	48 03 c8	 add	 rcx, rax
  0007e	48 8b c1	 mov	 rax, rcx
  00081	48 8b c8	 mov	 rcx, rax
  00084	ff 15 00 00 00
	00		 call	 QWORD PTR __imp_?width@ios_base@std@@QEBA_JXZ
  0008a	48 85 c0	 test	 rax, rax
  0008d	7e 5b		 jle	 SHORT $LN17@operator
  0008f	48 8b 85 a0 01
	00 00		 mov	 rax, QWORD PTR _Ostr$[rbp]
  00096	48 8b 00	 mov	 rax, QWORD PTR [rax]
  00099	48 63 40 04	 movsxd	 rax, DWORD PTR [rax+4]
  0009d	48 8b 8d a0 01
	00 00		 mov	 rcx, QWORD PTR _Ostr$[rbp]
  000a4	48 03 c8	 add	 rcx, rax
  000a7	48 8b c1	 mov	 rax, rcx
  000aa	48 8b c8	 mov	 rcx, rax
  000ad	ff 15 00 00 00
	00		 call	 QWORD PTR __imp_?width@ios_base@std@@QEBA_JXZ
  000b3	48 3b 45 28	 cmp	 rax, QWORD PTR _Count$[rbp]
  000b7	7e 31		 jle	 SHORT $LN17@operator
  000b9	48 8b 85 a0 01
	00 00		 mov	 rax, QWORD PTR _Ostr$[rbp]
  000c0	48 8b 00	 mov	 rax, QWORD PTR [rax]
  000c3	48 63 40 04	 movsxd	 rax, DWORD PTR [rax+4]
  000c7	48 8b 8d a0 01
	00 00		 mov	 rcx, QWORD PTR _Ostr$[rbp]
  000ce	48 03 c8	 add	 rcx, rax
  000d1	48 8b c1	 mov	 rax, rcx
  000d4	48 8b c8	 mov	 rcx, rax
  000d7	ff 15 00 00 00
	00		 call	 QWORD PTR __imp_?width@ios_base@std@@QEBA_JXZ
  000dd	48 2b 45 28	 sub	 rax, QWORD PTR _Count$[rbp]
  000e1	48 89 85 68 01
	00 00		 mov	 QWORD PTR tv137[rbp], rax
  000e8	eb 0b		 jmp	 SHORT $LN18@operator
$LN17@operator:
  000ea	48 c7 85 68 01
	00 00 00 00 00
	00		 mov	 QWORD PTR tv137[rbp], 0
$LN18@operator:
  000f5	48 8b 85 68 01
	00 00		 mov	 rax, QWORD PTR tv137[rbp]
  000fc	48 89 45 48	 mov	 QWORD PTR _Pad$[rbp], rax

; 782  :     const typename _Myos::sentry _Ok(_Ostr);

  00100	48 8b 95 a0 01
	00 00		 mov	 rdx, QWORD PTR _Ostr$[rbp]
  00107	48 8d 4d 68	 lea	 rcx, QWORD PTR _Ok$[rbp]
  0010b	e8 00 00 00 00	 call	 ??0sentry@?$basic_ostream@DU?$char_traits@D@std@@@std@@QEAA@AEAV12@@Z ; std::basic_ostream<char,std::char_traits<char> >::sentry::sentry
  00110	90		 npad	 1

; 783  : 
; 784  :     if (!_Ok) {

  00111	48 8d 4d 68	 lea	 rcx, QWORD PTR _Ok$[rbp]
  00115	e8 00 00 00 00	 call	 ??Bsentry@?$basic_ostream@DU?$char_traits@D@std@@@std@@QEBA_NXZ ; std::basic_ostream<char,std::char_traits<char> >::sentry::operator bool
  0011a	0f b6 c0	 movzx	 eax, al
  0011d	85 c0		 test	 eax, eax
  0011f	75 0e		 jne	 SHORT $LN8@operator

; 785  :         _State |= ios_base::badbit;

  00121	8b 45 04	 mov	 eax, DWORD PTR _State$[rbp]
  00124	83 c8 04	 or	 eax, 4
  00127	89 45 04	 mov	 DWORD PTR _State$[rbp], eax

; 786  :     } else { // state okay, insert

  0012a	e9 0a 02 00 00	 jmp	 $LN9@operator
$LN8@operator:

; 787  :         _TRY_IO_BEGIN
; 788  :         if ((_Ostr.flags() & ios_base::adjustfield) != ios_base::left) {

  0012f	48 8b 85 a0 01
	00 00		 mov	 rax, QWORD PTR _Ostr$[rbp]
  00136	48 8b 00	 mov	 rax, QWORD PTR [rax]
  00139	48 63 40 04	 movsxd	 rax, DWORD PTR [rax+4]
  0013d	48 8b 8d a0 01
	00 00		 mov	 rcx, QWORD PTR _Ostr$[rbp]
  00144	48 03 c8	 add	 rcx, rax
  00147	48 8b c1	 mov	 rax, rcx
  0014a	48 8b c8	 mov	 rcx, rax
  0014d	ff 15 00 00 00
	00		 call	 QWORD PTR __imp_?flags@ios_base@std@@QEBAHXZ
  00153	25 c0 01 00 00	 and	 eax, 448		; 000001c0H
  00158	83 f8 40	 cmp	 eax, 64			; 00000040H
  0015b	0f 84 a5 00 00
	00		 je	 $LN11@operator

; 789  :             for (; 0 < _Pad; --_Pad) { // pad on left

  00161	eb 0b		 jmp	 SHORT $LN4@operator
$LN2@operator:
  00163	48 8b 45 48	 mov	 rax, QWORD PTR _Pad$[rbp]
  00167	48 ff c8	 dec	 rax
  0016a	48 89 45 48	 mov	 QWORD PTR _Pad$[rbp], rax
$LN4@operator:
  0016e	48 83 7d 48 00	 cmp	 QWORD PTR _Pad$[rbp], 0
  00173	0f 8e 8d 00 00
	00		 jle	 $LN11@operator

; 790  :                 if (_Traits::eq_int_type(_Traits::eof(), _Ostr.rdbuf()->sputc(_Ostr.fill()))) {

  00179	48 8b 85 a0 01
	00 00		 mov	 rax, QWORD PTR _Ostr$[rbp]
  00180	48 8b 00	 mov	 rax, QWORD PTR [rax]
  00183	48 63 40 04	 movsxd	 rax, DWORD PTR [rax+4]
  00187	48 8b 8d a0 01
	00 00		 mov	 rcx, QWORD PTR _Ostr$[rbp]
  0018e	48 03 c8	 add	 rcx, rax
  00191	48 8b c1	 mov	 rax, rcx
  00194	48 8b c8	 mov	 rcx, rax
  00197	ff 15 00 00 00
	00		 call	 QWORD PTR __imp_?fill@?$basic_ios@DU?$char_traits@D@std@@@std@@QEBADXZ
  0019d	88 85 64 01 00
	00		 mov	 BYTE PTR tv285[rbp], al
  001a3	48 8b 8d a0 01
	00 00		 mov	 rcx, QWORD PTR _Ostr$[rbp]
  001aa	48 8b 09	 mov	 rcx, QWORD PTR [rcx]
  001ad	48 63 49 04	 movsxd	 rcx, DWORD PTR [rcx+4]
  001b1	48 8b 95 a0 01
	00 00		 mov	 rdx, QWORD PTR _Ostr$[rbp]
  001b8	48 03 d1	 add	 rdx, rcx
  001bb	48 8b ca	 mov	 rcx, rdx
  001be	ff 15 00 00 00
	00		 call	 QWORD PTR __imp_?rdbuf@?$basic_ios@DU?$char_traits@D@std@@@std@@QEBAPEAV?$basic_streambuf@DU?$char_traits@D@std@@@2@XZ
  001c4	0f b6 8d 64 01
	00 00		 movzx	 ecx, BYTE PTR tv285[rbp]
  001cb	0f b6 d1	 movzx	 edx, cl
  001ce	48 8b c8	 mov	 rcx, rax
  001d1	ff 15 00 00 00
	00		 call	 QWORD PTR __imp_?sputc@?$basic_streambuf@DU?$char_traits@D@std@@@std@@QEAAHD@Z
  001d7	89 85 68 01 00
	00		 mov	 DWORD PTR tv139[rbp], eax
  001dd	e8 00 00 00 00	 call	 ?eof@?$_Narrow_char_traits@DH@std@@SAHXZ ; std::_Narrow_char_traits<char,int>::eof
  001e2	8b 95 68 01 00
	00		 mov	 edx, DWORD PTR tv139[rbp]
  001e8	8b c8		 mov	 ecx, eax
  001ea	e8 00 00 00 00	 call	 ?eq_int_type@?$_Narrow_char_traits@DH@std@@SA_NHH@Z ; std::_Narrow_char_traits<char,int>::eq_int_type
  001ef	0f b6 c0	 movzx	 eax, al
  001f2	85 c0		 test	 eax, eax
  001f4	74 0b		 je	 SHORT $LN12@operator

; 791  :                     _State |= ios_base::badbit; // insertion failed, quit

  001f6	8b 45 04	 mov	 eax, DWORD PTR _State$[rbp]
  001f9	83 c8 04	 or	 eax, 4
  001fc	89 45 04	 mov	 DWORD PTR _State$[rbp], eax

; 792  :                     break;

  001ff	eb 05		 jmp	 SHORT $LN11@operator
$LN12@operator:

; 793  :                 }
; 794  :             }

  00201	e9 5d ff ff ff	 jmp	 $LN2@operator
$LN11@operator:

; 795  :         }
; 796  : 
; 797  :         if (_State == ios_base::goodbit && _Ostr.rdbuf()->sputn(_Val, _Count) != _Count) {

  00206	83 7d 04 00	 cmp	 DWORD PTR _State$[rbp], 0
  0020a	75 55		 jne	 SHORT $LN13@operator
  0020c	48 8b 85 a0 01
	00 00		 mov	 rax, QWORD PTR _Ostr$[rbp]
  00213	48 8b 00	 mov	 rax, QWORD PTR [rax]
  00216	48 63 40 04	 movsxd	 rax, DWORD PTR [rax+4]
  0021a	48 8b 8d a0 01
	00 00		 mov	 rcx, QWORD PTR _Ostr$[rbp]
  00221	48 03 c8	 add	 rcx, rax
  00224	48 8b c1	 mov	 rax, rcx
  00227	48 8b c8	 mov	 rcx, rax
  0022a	ff 15 00 00 00
	00		 call	 QWORD PTR __imp_?rdbuf@?$basic_ios@DU?$char_traits@D@std@@@std@@QEBAPEAV?$basic_streambuf@DU?$char_traits@D@std@@@2@XZ
  00230	4c 8b 45 28	 mov	 r8, QWORD PTR _Count$[rbp]
  00234	48 8b 95 a8 01
	00 00		 mov	 rdx, QWORD PTR _Val$[rbp]
  0023b	48 8b c8	 mov	 rcx, rax
  0023e	ff 15 00 00 00
	00		 call	 QWORD PTR __imp_?sputn@?$basic_streambuf@DU?$char_traits@D@std@@@std@@QEAA_JPEBD_J@Z
  00244	48 89 85 68 01
	00 00		 mov	 QWORD PTR tv295[rbp], rax
  0024b	48 8b 45 28	 mov	 rax, QWORD PTR _Count$[rbp]
  0024f	48 39 85 68 01
	00 00		 cmp	 QWORD PTR tv295[rbp], rax
  00256	74 09		 je	 SHORT $LN13@operator

; 798  :             _State |= ios_base::badbit;

  00258	8b 45 04	 mov	 eax, DWORD PTR _State$[rbp]
  0025b	83 c8 04	 or	 eax, 4
  0025e	89 45 04	 mov	 DWORD PTR _State$[rbp], eax
$LN13@operator:

; 799  :         }
; 800  : 
; 801  :         if (_State == ios_base::goodbit) {

  00261	83 7d 04 00	 cmp	 DWORD PTR _State$[rbp], 0
  00265	0f 85 a5 00 00
	00		 jne	 $LN14@operator

; 802  :             for (; 0 < _Pad; --_Pad) { // pad on right

  0026b	eb 0b		 jmp	 SHORT $LN7@operator
$LN5@operator:
  0026d	48 8b 45 48	 mov	 rax, QWORD PTR _Pad$[rbp]
  00271	48 ff c8	 dec	 rax
  00274	48 89 45 48	 mov	 QWORD PTR _Pad$[rbp], rax
$LN7@operator:
  00278	48 83 7d 48 00	 cmp	 QWORD PTR _Pad$[rbp], 0
  0027d	0f 8e 8d 00 00
	00		 jle	 $LN14@operator

; 803  :                 if (_Traits::eq_int_type(_Traits::eof(), _Ostr.rdbuf()->sputc(_Ostr.fill()))) {

  00283	48 8b 85 a0 01
	00 00		 mov	 rax, QWORD PTR _Ostr$[rbp]
  0028a	48 8b 00	 mov	 rax, QWORD PTR [rax]
  0028d	48 63 40 04	 movsxd	 rax, DWORD PTR [rax+4]
  00291	48 8b 8d a0 01
	00 00		 mov	 rcx, QWORD PTR _Ostr$[rbp]
  00298	48 03 c8	 add	 rcx, rax
  0029b	48 8b c1	 mov	 rax, rcx
  0029e	48 8b c8	 mov	 rcx, rax
  002a1	ff 15 00 00 00
	00		 call	 QWORD PTR __imp_?fill@?$basic_ios@DU?$char_traits@D@std@@@std@@QEBADXZ
  002a7	88 85 64 01 00
	00		 mov	 BYTE PTR tv283[rbp], al
  002ad	48 8b 8d a0 01
	00 00		 mov	 rcx, QWORD PTR _Ostr$[rbp]
  002b4	48 8b 09	 mov	 rcx, QWORD PTR [rcx]
  002b7	48 63 49 04	 movsxd	 rcx, DWORD PTR [rcx+4]
  002bb	48 8b 95 a0 01
	00 00		 mov	 rdx, QWORD PTR _Ostr$[rbp]
  002c2	48 03 d1	 add	 rdx, rcx
  002c5	48 8b ca	 mov	 rcx, rdx
  002c8	ff 15 00 00 00
	00		 call	 QWORD PTR __imp_?rdbuf@?$basic_ios@DU?$char_traits@D@std@@@std@@QEBAPEAV?$basic_streambuf@DU?$char_traits@D@std@@@2@XZ
  002ce	0f b6 8d 64 01
	00 00		 movzx	 ecx, BYTE PTR tv283[rbp]
  002d5	0f b6 d1	 movzx	 edx, cl
  002d8	48 8b c8	 mov	 rcx, rax
  002db	ff 15 00 00 00
	00		 call	 QWORD PTR __imp_?sputc@?$basic_streambuf@DU?$char_traits@D@std@@@std@@QEAAHD@Z
  002e1	89 85 68 01 00
	00		 mov	 DWORD PTR tv296[rbp], eax
  002e7	e8 00 00 00 00	 call	 ?eof@?$_Narrow_char_traits@DH@std@@SAHXZ ; std::_Narrow_char_traits<char,int>::eof
  002ec	8b 95 68 01 00
	00		 mov	 edx, DWORD PTR tv296[rbp]
  002f2	8b c8		 mov	 ecx, eax
  002f4	e8 00 00 00 00	 call	 ?eq_int_type@?$_Narrow_char_traits@DH@std@@SA_NHH@Z ; std::_Narrow_char_traits<char,int>::eq_int_type
  002f9	0f b6 c0	 movzx	 eax, al
  002fc	85 c0		 test	 eax, eax
  002fe	74 0b		 je	 SHORT $LN15@operator

; 804  :                     _State |= ios_base::badbit; // insertion failed, quit

  00300	8b 45 04	 mov	 eax, DWORD PTR _State$[rbp]
  00303	83 c8 04	 or	 eax, 4
  00306	89 45 04	 mov	 DWORD PTR _State$[rbp], eax

; 805  :                     break;

  00309	eb 05		 jmp	 SHORT $LN14@operator
$LN15@operator:

; 806  :                 }
; 807  :             }

  0030b	e9 5d ff ff ff	 jmp	 $LN5@operator
$LN14@operator:

; 808  :         }
; 809  : 
; 810  :         _Ostr.width(0);

  00310	48 8b 85 a0 01
	00 00		 mov	 rax, QWORD PTR _Ostr$[rbp]
  00317	48 8b 00	 mov	 rax, QWORD PTR [rax]
  0031a	48 63 40 04	 movsxd	 rax, DWORD PTR [rax+4]
  0031e	48 8b 8d a0 01
	00 00		 mov	 rcx, QWORD PTR _Ostr$[rbp]
  00325	48 03 c8	 add	 rcx, rax
  00328	48 8b c1	 mov	 rax, rcx
  0032b	33 d2		 xor	 edx, edx
  0032d	48 8b c8	 mov	 rcx, rax
  00330	ff 15 00 00 00
	00		 call	 QWORD PTR __imp_?width@ios_base@std@@QEAA_J_J@Z
  00336	90		 npad	 1
  00337	eb 00		 jmp	 SHORT $LN9@operator
$LN23@operator:
$LN9@operator:

; 811  :         _CATCH_IO_(ios_base, _Ostr)
; 812  :     }
; 813  : 
; 814  :     _Ostr.setstate(_State);

  00339	48 8b 85 a0 01
	00 00		 mov	 rax, QWORD PTR _Ostr$[rbp]
  00340	48 8b 00	 mov	 rax, QWORD PTR [rax]
  00343	48 63 40 04	 movsxd	 rax, DWORD PTR [rax+4]
  00347	48 8b 8d a0 01
	00 00		 mov	 rcx, QWORD PTR _Ostr$[rbp]
  0034e	48 03 c8	 add	 rcx, rax
  00351	48 8b c1	 mov	 rax, rcx
  00354	45 33 c0	 xor	 r8d, r8d
  00357	8b 55 04	 mov	 edx, DWORD PTR _State$[rbp]
  0035a	48 8b c8	 mov	 rcx, rax
  0035d	ff 15 00 00 00
	00		 call	 QWORD PTR __imp_?setstate@?$basic_ios@DU?$char_traits@D@std@@@std@@QEAAXH_N@Z
  00363	90		 npad	 1

; 815  :     return _Ostr;

  00364	48 8b 85 a0 01
	00 00		 mov	 rax, QWORD PTR _Ostr$[rbp]
  0036b	48 89 85 58 01
	00 00		 mov	 QWORD PTR $T4[rbp], rax
  00372	48 8d 4d 68	 lea	 rcx, QWORD PTR _Ok$[rbp]
  00376	e8 00 00 00 00	 call	 ??1sentry@?$basic_ostream@DU?$char_traits@D@std@@@std@@QEAA@XZ ; std::basic_ostream<char,std::char_traits<char> >::sentry::~sentry
  0037b	48 8b 85 58 01
	00 00		 mov	 rax, QWORD PTR $T4[rbp]

; 816  : }

  00382	48 8b f8	 mov	 rdi, rax
  00385	48 8d 4d e0	 lea	 rcx, QWORD PTR [rbp-32]
  00389	48 8d 15 00 00
	00 00		 lea	 rdx, OFFSET FLAT:??$?6U?$char_traits@D@std@@@std@@YAAEAV?$basic_ostream@DU?$char_traits@D@std@@@0@AEAV10@PEBD@Z$rtcFrameData
  00390	e8 00 00 00 00	 call	 _RTC_CheckStackVars
  00395	48 8b c7	 mov	 rax, rdi
  00398	48 8b 8d 70 01
	00 00		 mov	 rcx, QWORD PTR __$ArrayPad$[rbp]
  0039f	48 33 cd	 xor	 rcx, rbp
  003a2	e8 00 00 00 00	 call	 __security_check_cookie
  003a7	48 8d a5 88 01
	00 00		 lea	 rsp, QWORD PTR [rbp+392]
  003ae	5f		 pop	 rdi
  003af	5d		 pop	 rbp
  003b0	c3		 ret	 0
??$?6U?$char_traits@D@std@@@std@@YAAEAV?$basic_ostream@DU?$char_traits@D@std@@@0@AEAV10@PEBD@Z ENDP ; std::operator<<<std::char_traits<char> >
_TEXT	ENDS
; Function compile flags: /Odtp /RTCsu /ZI
;	COMDAT text$x
text$x	SEGMENT
_State$ = 4
_Count$ = 40
_Pad$ = 72
_Ok$ = 104
$T4 = 344
tv283 = 356
tv285 = 356
tv137 = 360
tv139 = 360
tv295 = 360
tv296 = 360
__$ArrayPad$ = 368
_Ostr$ = 416
_Val$ = 424
?dtor$0@?0???$?6U?$char_traits@D@std@@@std@@YAAEAV?$basic_ostream@DU?$char_traits@D@std@@@0@AEAV10@PEBD@Z@4HA PROC ; `std::operator<<<std::char_traits<char> >'::`1'::dtor$0
  00000	48 89 4c 24 08	 mov	 QWORD PTR [rsp+8], rcx
  00005	48 89 54 24 10	 mov	 QWORD PTR [rsp+16], rdx
  0000a	55		 push	 rbp
  0000b	57		 push	 rdi
  0000c	48 83 ec 28	 sub	 rsp, 40			; 00000028H
  00010	48 8d 6a 20	 lea	 rbp, QWORD PTR [rdx+32]
  00014	48 8d 4d 68	 lea	 rcx, QWORD PTR _Ok$[rbp]
  00018	e8 00 00 00 00	 call	 ??1sentry@?$basic_ostream@DU?$char_traits@D@std@@@std@@QEAA@XZ ; std::basic_ostream<char,std::char_traits<char> >::sentry::~sentry
  0001d	48 83 c4 28	 add	 rsp, 40			; 00000028H
  00021	5f		 pop	 rdi
  00022	5d		 pop	 rbp
  00023	c3		 ret	 0
?dtor$0@?0???$?6U?$char_traits@D@std@@@std@@YAAEAV?$basic_ostream@DU?$char_traits@D@std@@@0@AEAV10@PEBD@Z@4HA ENDP ; `std::operator<<<std::char_traits<char> >'::`1'::dtor$0
text$x	ENDS
; Function compile flags: /Odtp /RTCsu /ZI
;	COMDAT text$x
text$x	SEGMENT
_State$ = 4
_Count$ = 40
_Pad$ = 72
_Ok$ = 104
$T4 = 344
tv283 = 356
tv285 = 356
tv137 = 360
tv139 = 360
tv295 = 360
tv296 = 360
__$ArrayPad$ = 368
_Ostr$ = 416
_Val$ = 424
?catch$1@?0???$?6U?$char_traits@D@std@@@std@@YAAEAV?$basic_ostream@DU?$char_traits@D@std@@@0@AEAV10@PEBD@Z@4HA PROC ; `std::operator<<<std::char_traits<char> >'::`1'::catch$1

; 811  :         _CATCH_IO_(ios_base, _Ostr)

  00000	48 89 4c 24 08	 mov	 QWORD PTR [rsp+8], rcx
  00005	48 89 54 24 10	 mov	 QWORD PTR [rsp+16], rdx
  0000a	55		 push	 rbp
  0000b	57		 push	 rdi
  0000c	48 83 ec 28	 sub	 rsp, 40			; 00000028H
  00010	48 8d 6a 20	 lea	 rbp, QWORD PTR [rdx+32]
__catch$??$?6U?$char_traits@D@std@@@std@@YAAEAV?$basic_ostream@DU?$char_traits@D@std@@@0@AEAV10@PEBD@Z$0:
  00014	48 8b 85 a0 01
	00 00		 mov	 rax, QWORD PTR _Ostr$[rbp]
  0001b	48 8b 00	 mov	 rax, QWORD PTR [rax]
  0001e	48 63 40 04	 movsxd	 rax, DWORD PTR [rax+4]
  00022	48 8b 8d a0 01
	00 00		 mov	 rcx, QWORD PTR _Ostr$[rbp]
  00029	48 03 c8	 add	 rcx, rax
  0002c	48 8b c1	 mov	 rax, rcx
  0002f	41 b0 01	 mov	 r8b, 1
  00032	ba 04 00 00 00	 mov	 edx, 4
  00037	48 8b c8	 mov	 rcx, rax
  0003a	ff 15 00 00 00
	00		 call	 QWORD PTR __imp_?setstate@?$basic_ios@DU?$char_traits@D@std@@@std@@QEAAXH_N@Z
  00040	90		 npad	 1
  00041	48 8d 05 00 00
	00 00		 lea	 rax, $LN23@catch$1
  00048	48 83 c4 28	 add	 rsp, 40			; 00000028H
  0004c	5f		 pop	 rdi
  0004d	5d		 pop	 rbp
  0004e	c3		 ret	 0
  0004f	cc		 int	 3
?catch$1@?0???$?6U?$char_traits@D@std@@@std@@YAAEAV?$basic_ostream@DU?$char_traits@D@std@@@0@AEAV10@PEBD@Z@4HA ENDP ; `std::operator<<<std::char_traits<char> >'::`1'::catch$1
text$x	ENDS
; Function compile flags: /Odtp /RTCsu /ZI
; File C:\\KPO\Calendar\laba01\laba01.cpp
;	COMDAT main
_TEXT	SEGMENT
day$ = 4
month$ = 36
year$ = 68
date$ = 100
birthdate$ = 132
birthDay$ = 164
birthdayMonth$ = 196
daysRemaining$ = 228
count$ = 260
year1$ = 292
i$8 = 324
dayOfYearInput$ = 356
resultDay$ = 388
resultMonth$ = 420
$T9 = 840
$T10 = 904
tv81 = 948
tv147 = 948
tv215 = 948
tv227 = 948
tv84 = 952
tv387 = 952
tv388 = 952
tv80 = 956
tv384 = 960
tv386 = 960
__$ArrayPad$ = 968
main	PROC						; COMDAT

; 29   : int main() {

$LN50:
  00000	40 55		 push	 rbp
  00002	57		 push	 rdi
  00003	48 81 ec f8 03
	00 00		 sub	 rsp, 1016		; 000003f8H
  0000a	48 8d 6c 24 20	 lea	 rbp, QWORD PTR [rsp+32]
  0000f	48 8d 7c 24 20	 lea	 rdi, QWORD PTR [rsp+32]
  00014	b9 96 00 00 00	 mov	 ecx, 150		; 00000096H
  00019	b8 cc cc cc cc	 mov	 eax, -858993460		; ccccccccH
  0001e	f3 ab		 rep stosd
  00020	48 8b 05 00 00
	00 00		 mov	 rax, QWORD PTR __security_cookie
  00027	48 33 c5	 xor	 rax, rbp
  0002a	48 89 85 c8 03
	00 00		 mov	 QWORD PTR __$ArrayPad$[rbp], rax
  00031	48 8d 0d 00 00
	00 00		 lea	 rcx, OFFSET FLAT:__F068050D_laba01@cpp
  00038	e8 00 00 00 00	 call	 __CheckForDebuggerJustMyCode
  0003d	90		 npad	 1

; 30   :     setlocale(LC_ALL, "Russian");

  0003e	48 8d 15 00 00
	00 00		 lea	 rdx, OFFSET FLAT:??_C@_07PEAPJBGG@Russian@
  00045	33 c9		 xor	 ecx, ecx
  00047	ff 15 00 00 00
	00		 call	 QWORD PTR __imp_setlocale
  0004d	90		 npad	 1

; 31   : 
; 32   :     int day, month, year, date, birthdate, birthDay, birthdayMonth, daysRemaining = 0, count = 0, year1 = 0;

  0004e	c7 85 e4 00 00
	00 00 00 00 00	 mov	 DWORD PTR daysRemaining$[rbp], 0
  00058	c7 85 04 01 00
	00 00 00 00 00	 mov	 DWORD PTR count$[rbp], 0
  00062	c7 85 24 01 00
	00 00 00 00 00	 mov	 DWORD PTR year1$[rbp], 0

; 33   : 
; 34   :     cout << "  (): ";

  0006c	48 8d 15 00 00
	00 00		 lea	 rdx, OFFSET FLAT:??_C@_0BK@EKFAEONN@?B?b?e?d?h?r?e?5?d?$OA?r?s?5?$CI?D?D?L?L?C?C?C?C?$CJ?3?5@
  00073	48 8b 0d 00 00
	00 00		 mov	 rcx, QWORD PTR __imp_?cout@std@@3V?$basic_ostream@DU?$char_traits@D@std@@@1@A
  0007a	e8 00 00 00 00	 call	 ??$?6U?$char_traits@D@std@@@std@@YAAEAV?$basic_ostream@DU?$char_traits@D@std@@@0@AEAV10@PEBD@Z ; std::operator<<<std::char_traits<char> >
  0007f	90		 npad	 1

; 35   :     cin >> date;

  00080	48 8d 55 64	 lea	 rdx, QWORD PTR date$[rbp]
  00084	48 8b 0d 00 00
	00 00		 mov	 rcx, QWORD PTR __imp_?cin@std@@3V?$basic_istream@DU?$char_traits@D@std@@@1@A
  0008b	ff 15 00 00 00
	00		 call	 QWORD PTR __imp_??5?$basic_istream@DU?$char_traits@D@std@@@std@@QEAAAEAV01@AEAH@Z
  00091	90		 npad	 1

; 36   : 
; 37   :     day = date / 1000000;

  00092	8b 45 64	 mov	 eax, DWORD PTR date$[rbp]
  00095	99		 cdq
  00096	b9 40 42 0f 00	 mov	 ecx, 1000000		; 000f4240H
  0009b	f7 f9		 idiv	 ecx
  0009d	89 45 04	 mov	 DWORD PTR day$[rbp], eax

; 38   :     month = (date / 10000) % 100;

  000a0	8b 45 64	 mov	 eax, DWORD PTR date$[rbp]
  000a3	99		 cdq
  000a4	b9 10 27 00 00	 mov	 ecx, 10000		; 00002710H
  000a9	f7 f9		 idiv	 ecx
  000ab	99		 cdq
  000ac	b9 64 00 00 00	 mov	 ecx, 100		; 00000064H
  000b1	f7 f9		 idiv	 ecx
  000b3	8b c2		 mov	 eax, edx
  000b5	89 45 24	 mov	 DWORD PTR month$[rbp], eax

; 39   :     year = date % 10000;

  000b8	8b 45 64	 mov	 eax, DWORD PTR date$[rbp]
  000bb	99		 cdq
  000bc	b9 10 27 00 00	 mov	 ecx, 10000		; 00002710H
  000c1	f7 f9		 idiv	 ecx
  000c3	8b c2		 mov	 eax, edx
  000c5	89 45 44	 mov	 DWORD PTR year$[rbp], eax

; 40   :     year1 = date % 10000;

  000c8	8b 45 64	 mov	 eax, DWORD PTR date$[rbp]
  000cb	99		 cdq
  000cc	b9 10 27 00 00	 mov	 ecx, 10000		; 00002710H
  000d1	f7 f9		 idiv	 ecx
  000d3	8b c2		 mov	 eax, edx
  000d5	89 85 24 01 00
	00		 mov	 DWORD PTR year1$[rbp], eax

; 41   :     if (month == 2 && (isLeapYear(year) ? (day > 29) : (day > 28))) {

  000db	83 7d 24 02	 cmp	 DWORD PTR month$[rbp], 2
  000df	0f 85 9a 00 00
	00		 jne	 $LN5@main
  000e5	8b 4d 44	 mov	 ecx, DWORD PTR year$[rbp]
  000e8	e8 00 00 00 00	 call	 ?isLeapYear@@YA_NH@Z	; isLeapYear
  000ed	0f b6 c0	 movzx	 eax, al
  000f0	85 c0		 test	 eax, eax
  000f2	74 2a		 je	 SHORT $LN46@main
  000f4	83 7d 04 1d	 cmp	 DWORD PTR day$[rbp], 29
  000f8	7e 0c		 jle	 SHORT $LN44@main
  000fa	c7 85 b4 03 00
	00 01 00 00 00	 mov	 DWORD PTR tv81[rbp], 1
  00104	eb 0a		 jmp	 SHORT $LN45@main
$LN44@main:
  00106	c7 85 b4 03 00
	00 00 00 00 00	 mov	 DWORD PTR tv81[rbp], 0
$LN45@main:
  00110	8b 85 b4 03 00
	00		 mov	 eax, DWORD PTR tv81[rbp]
  00116	89 85 b8 03 00
	00		 mov	 DWORD PTR tv84[rbp], eax
  0011c	eb 28		 jmp	 SHORT $LN47@main
$LN46@main:
  0011e	83 7d 04 1c	 cmp	 DWORD PTR day$[rbp], 28
  00122	7e 0c		 jle	 SHORT $LN42@main
  00124	c7 85 bc 03 00
	00 01 00 00 00	 mov	 DWORD PTR tv80[rbp], 1
  0012e	eb 0a		 jmp	 SHORT $LN43@main
$LN42@main:
  00130	c7 85 bc 03 00
	00 00 00 00 00	 mov	 DWORD PTR tv80[rbp], 0
$LN43@main:
  0013a	8b 85 bc 03 00
	00		 mov	 eax, DWORD PTR tv80[rbp]
  00140	89 85 b8 03 00
	00		 mov	 DWORD PTR tv84[rbp], eax
$LN47@main:
  00146	83 bd b8 03 00
	00 00		 cmp	 DWORD PTR tv84[rbp], 0
  0014d	74 30		 je	 SHORT $LN5@main

; 42   :         cout << ":  ." << endl;

  0014f	48 8d 15 00 00
	00 00		 lea	 rdx, OFFSET FLAT:??_C@_0BL@DKDMJJAC@?N?x?h?a?j?$OA?3?5?m?e?j?n?p?p?e?j?r?m?$OA?$PP?5?d?$OA?r?$OA?4@
  00156	48 8b 0d 00 00
	00 00		 mov	 rcx, QWORD PTR __imp_?cout@std@@3V?$basic_ostream@DU?$char_traits@D@std@@@1@A
  0015d	e8 00 00 00 00	 call	 ??$?6U?$char_traits@D@std@@@std@@YAAEAV?$basic_ostream@DU?$char_traits@D@std@@@0@AEAV10@PEBD@Z ; std::operator<<<std::char_traits<char> >
  00162	48 8d 15 00 00
	00 00		 lea	 rdx, OFFSET FLAT:??$endl@DU?$char_traits@D@std@@@std@@YAAEAV?$basic_ostream@DU?$char_traits@D@std@@@0@AEAV10@@Z ; std::endl<char,std::char_traits<char> >
  00169	48 8b c8	 mov	 rcx, rax
  0016c	ff 15 00 00 00
	00		 call	 QWORD PTR __imp_??6?$basic_ostream@DU?$char_traits@D@std@@@std@@QEAAAEAV01@P6AAEAV01@AEAV01@@Z@Z
  00172	90		 npad	 1

; 43   :         return 0;

  00173	33 c0		 xor	 eax, eax
  00175	e9 61 07 00 00	 jmp	 $LN1@main

; 44   :     }

  0017a	e9 88 00 00 00	 jmp	 $LN6@main
$LN5@main:

; 45   :     else if ((month == 4 || month == 6 || month == 9 || month == 11) && day > 30) {

  0017f	83 7d 24 04	 cmp	 DWORD PTR month$[rbp], 4
  00183	74 12		 je	 SHORT $LN9@main
  00185	83 7d 24 06	 cmp	 DWORD PTR month$[rbp], 6
  00189	74 0c		 je	 SHORT $LN9@main
  0018b	83 7d 24 09	 cmp	 DWORD PTR month$[rbp], 9
  0018f	74 06		 je	 SHORT $LN9@main
  00191	83 7d 24 0b	 cmp	 DWORD PTR month$[rbp], 11
  00195	75 33		 jne	 SHORT $LN7@main
$LN9@main:
  00197	83 7d 04 1e	 cmp	 DWORD PTR day$[rbp], 30
  0019b	7e 2d		 jle	 SHORT $LN7@main

; 46   :         cout << ":  ." << endl;

  0019d	48 8d 15 00 00
	00 00		 lea	 rdx, OFFSET FLAT:??_C@_0BL@DKDMJJAC@?N?x?h?a?j?$OA?3?5?m?e?j?n?p?p?e?j?r?m?$OA?$PP?5?d?$OA?r?$OA?4@
  001a4	48 8b 0d 00 00
	00 00		 mov	 rcx, QWORD PTR __imp_?cout@std@@3V?$basic_ostream@DU?$char_traits@D@std@@@1@A
  001ab	e8 00 00 00 00	 call	 ??$?6U?$char_traits@D@std@@@std@@YAAEAV?$basic_ostream@DU?$char_traits@D@std@@@0@AEAV10@PEBD@Z ; std::operator<<<std::char_traits<char> >
  001b0	48 8d 15 00 00
	00 00		 lea	 rdx, OFFSET FLAT:??$endl@DU?$char_traits@D@std@@@std@@YAAEAV?$basic_ostream@DU?$char_traits@D@std@@@0@AEAV10@@Z ; std::endl<char,std::char_traits<char> >
  001b7	48 8b c8	 mov	 rcx, rax
  001ba	ff 15 00 00 00
	00		 call	 QWORD PTR __imp_??6?$basic_ostream@DU?$char_traits@D@std@@@std@@QEAAAEAV01@P6AAEAV01@AEAV01@@Z@Z
  001c0	90		 npad	 1

; 47   :         return 0;

  001c1	33 c0		 xor	 eax, eax
  001c3	e9 13 07 00 00	 jmp	 $LN1@main

; 48   :     }

  001c8	eb 3d		 jmp	 SHORT $LN6@main
$LN7@main:

; 49   :     else if (month < 1 || month > 12 || day < 1) {

  001ca	83 7d 24 01	 cmp	 DWORD PTR month$[rbp], 1
  001ce	7c 0c		 jl	 SHORT $LN11@main
  001d0	83 7d 24 0c	 cmp	 DWORD PTR month$[rbp], 12
  001d4	7f 06		 jg	 SHORT $LN11@main
  001d6	83 7d 04 01	 cmp	 DWORD PTR day$[rbp], 1
  001da	7d 2b		 jge	 SHORT $LN6@main
$LN11@main:

; 50   :         cout << ":  ." << endl;

  001dc	48 8d 15 00 00
	00 00		 lea	 rdx, OFFSET FLAT:??_C@_0BL@DKDMJJAC@?N?x?h?a?j?$OA?3?5?m?e?j?n?p?p?e?j?r?m?$OA?$PP?5?d?$OA?r?$OA?4@
  001e3	48 8b 0d 00 00
	00 00		 mov	 rcx, QWORD PTR __imp_?cout@std@@3V?$basic_ostream@DU?$char_traits@D@std@@@1@A
  001ea	e8 00 00 00 00	 call	 ??$?6U?$char_traits@D@std@@@std@@YAAEAV?$basic_ostream@DU?$char_traits@D@std@@@0@AEAV10@PEBD@Z ; std::operator<<<std::char_traits<char> >
  001ef	48 8d 15 00 00
	00 00		 lea	 rdx, OFFSET FLAT:??$endl@DU?$char_traits@D@std@@@std@@YAAEAV?$basic_ostream@DU?$char_traits@D@std@@@0@AEAV10@@Z ; std::endl<char,std::char_traits<char> >
  001f6	48 8b c8	 mov	 rcx, rax
  001f9	ff 15 00 00 00
	00		 call	 QWORD PTR __imp_??6?$basic_ostream@DU?$char_traits@D@std@@@std@@QEAAAEAV01@P6AAEAV01@AEAV01@@Z@Z
  001ff	90		 npad	 1

; 51   :         return 0;

  00200	33 c0		 xor	 eax, eax
  00202	e9 d4 06 00 00	 jmp	 $LN1@main
$LN6@main:

; 52   :     }
; 53   : 
; 54   :     cout << "   (): ";

  00207	48 8d 15 00 00
	00 00		 lea	 rdx, OFFSET FLAT:??_C@_0BP@BGJIAHHA@?B?b?e?d?h?r?e?5?d?$OA?r?s?5?p?n?f?d?e?m?h?$PP?5?$CI?D?D?L?L?$CJ?3?5@
  0020e	48 8b 0d 00 00
	00 00		 mov	 rcx, QWORD PTR __imp_?cout@std@@3V?$basic_ostream@DU?$char_traits@D@std@@@1@A
  00215	e8 00 00 00 00	 call	 ??$?6U?$char_traits@D@std@@@std@@YAAEAV?$basic_ostream@DU?$char_traits@D@std@@@0@AEAV10@PEBD@Z ; std::operator<<<std::char_traits<char> >
  0021a	90		 npad	 1

; 55   :     cin >> birthdate;

  0021b	48 8d 95 84 00
	00 00		 lea	 rdx, QWORD PTR birthdate$[rbp]
  00222	48 8b 0d 00 00
	00 00		 mov	 rcx, QWORD PTR __imp_?cin@std@@3V?$basic_istream@DU?$char_traits@D@std@@@1@A
  00229	ff 15 00 00 00
	00		 call	 QWORD PTR __imp_??5?$basic_istream@DU?$char_traits@D@std@@@std@@QEAAAEAV01@AEAH@Z
  0022f	90		 npad	 1

; 56   : 
; 57   :     birthDay = birthdate / 100;

  00230	8b 85 84 00 00
	00		 mov	 eax, DWORD PTR birthdate$[rbp]
  00236	99		 cdq
  00237	b9 64 00 00 00	 mov	 ecx, 100		; 00000064H
  0023c	f7 f9		 idiv	 ecx
  0023e	89 85 a4 00 00
	00		 mov	 DWORD PTR birthDay$[rbp], eax

; 58   :     birthdayMonth = birthdate % 100;

  00244	8b 85 84 00 00
	00		 mov	 eax, DWORD PTR birthdate$[rbp]
  0024a	99		 cdq
  0024b	b9 64 00 00 00	 mov	 ecx, 100		; 00000064H
  00250	f7 f9		 idiv	 ecx
  00252	8b c2		 mov	 eax, edx
  00254	89 85 c4 00 00
	00		 mov	 DWORD PTR birthdayMonth$[rbp], eax

; 59   : 
; 60   :     daysRemaining = dayOfYear(birthDay, birthdayMonth, year) - dayOfYear(day, month, year);

  0025a	44 8b 45 44	 mov	 r8d, DWORD PTR year$[rbp]
  0025e	8b 95 c4 00 00
	00		 mov	 edx, DWORD PTR birthdayMonth$[rbp]
  00264	8b 8d a4 00 00
	00		 mov	 ecx, DWORD PTR birthDay$[rbp]
  0026a	e8 00 00 00 00	 call	 ?dayOfYear@@YAHHHH@Z	; dayOfYear
  0026f	89 85 b4 03 00
	00		 mov	 DWORD PTR tv147[rbp], eax
  00275	44 8b 45 44	 mov	 r8d, DWORD PTR year$[rbp]
  00279	8b 55 24	 mov	 edx, DWORD PTR month$[rbp]
  0027c	8b 4d 04	 mov	 ecx, DWORD PTR day$[rbp]
  0027f	e8 00 00 00 00	 call	 ?dayOfYear@@YAHHHH@Z	; dayOfYear
  00284	8b 8d b4 03 00
	00		 mov	 ecx, DWORD PTR tv147[rbp]
  0028a	2b c8		 sub	 ecx, eax
  0028c	8b c1		 mov	 eax, ecx
  0028e	89 85 e4 00 00
	00		 mov	 DWORD PTR daysRemaining$[rbp], eax

; 61   : 
; 62   :     if ((birthdayMonth == 4 || birthdayMonth == 6 || birthdayMonth == 9 || birthdayMonth == 11) && birthDay > 30) {

  00294	83 bd c4 00 00
	00 04		 cmp	 DWORD PTR birthdayMonth$[rbp], 4
  0029b	74 1b		 je	 SHORT $LN13@main
  0029d	83 bd c4 00 00
	00 06		 cmp	 DWORD PTR birthdayMonth$[rbp], 6
  002a4	74 12		 je	 SHORT $LN13@main
  002a6	83 bd c4 00 00
	00 09		 cmp	 DWORD PTR birthdayMonth$[rbp], 9
  002ad	74 09		 je	 SHORT $LN13@main
  002af	83 bd c4 00 00
	00 0b		 cmp	 DWORD PTR birthdayMonth$[rbp], 11
  002b6	75 34		 jne	 SHORT $LN12@main
$LN13@main:
  002b8	83 bd a4 00 00
	00 1e		 cmp	 DWORD PTR birthDay$[rbp], 30
  002bf	7e 2b		 jle	 SHORT $LN12@main

; 63   :         cout << ":  ." << endl;

  002c1	48 8d 15 00 00
	00 00		 lea	 rdx, OFFSET FLAT:??_C@_0BL@DKDMJJAC@?N?x?h?a?j?$OA?3?5?m?e?j?n?p?p?e?j?r?m?$OA?$PP?5?d?$OA?r?$OA?4@
  002c8	48 8b 0d 00 00
	00 00		 mov	 rcx, QWORD PTR __imp_?cout@std@@3V?$basic_ostream@DU?$char_traits@D@std@@@1@A
  002cf	e8 00 00 00 00	 call	 ??$?6U?$char_traits@D@std@@@std@@YAAEAV?$basic_ostream@DU?$char_traits@D@std@@@0@AEAV10@PEBD@Z ; std::operator<<<std::char_traits<char> >
  002d4	48 8d 15 00 00
	00 00		 lea	 rdx, OFFSET FLAT:??$endl@DU?$char_traits@D@std@@@std@@YAAEAV?$basic_ostream@DU?$char_traits@D@std@@@0@AEAV10@@Z ; std::endl<char,std::char_traits<char> >
  002db	48 8b c8	 mov	 rcx, rax
  002de	ff 15 00 00 00
	00		 call	 QWORD PTR __imp_??6?$basic_ostream@DU?$char_traits@D@std@@@std@@QEAAAEAV01@P6AAEAV01@AEAV01@@Z@Z
  002e4	90		 npad	 1

; 64   :         return 0;

  002e5	33 c0		 xor	 eax, eax
  002e7	e9 ef 05 00 00	 jmp	 $LN1@main
$LN12@main:

; 65   :     }
; 66   : 
; 67   :     if (birthdayMonth < 1 || birthdayMonth > 12 || birthDay < 1) {

  002ec	83 bd c4 00 00
	00 01		 cmp	 DWORD PTR birthdayMonth$[rbp], 1
  002f3	7c 12		 jl	 SHORT $LN15@main
  002f5	83 bd c4 00 00
	00 0c		 cmp	 DWORD PTR birthdayMonth$[rbp], 12
  002fc	7f 09		 jg	 SHORT $LN15@main
  002fe	83 bd a4 00 00
	00 01		 cmp	 DWORD PTR birthDay$[rbp], 1
  00305	7d 2b		 jge	 SHORT $LN14@main
$LN15@main:

; 68   :         cout << ":  ." << endl;

  00307	48 8d 15 00 00
	00 00		 lea	 rdx, OFFSET FLAT:??_C@_0BL@DKDMJJAC@?N?x?h?a?j?$OA?3?5?m?e?j?n?p?p?e?j?r?m?$OA?$PP?5?d?$OA?r?$OA?4@
  0030e	48 8b 0d 00 00
	00 00		 mov	 rcx, QWORD PTR __imp_?cout@std@@3V?$basic_ostream@DU?$char_traits@D@std@@@1@A
  00315	e8 00 00 00 00	 call	 ??$?6U?$char_traits@D@std@@@std@@YAAEAV?$basic_ostream@DU?$char_traits@D@std@@@0@AEAV10@PEBD@Z ; std::operator<<<std::char_traits<char> >
  0031a	48 8d 15 00 00
	00 00		 lea	 rdx, OFFSET FLAT:??$endl@DU?$char_traits@D@std@@@std@@YAAEAV?$basic_ostream@DU?$char_traits@D@std@@@0@AEAV10@@Z ; std::endl<char,std::char_traits<char> >
  00321	48 8b c8	 mov	 rcx, rax
  00324	ff 15 00 00 00
	00		 call	 QWORD PTR __imp_??6?$basic_ostream@DU?$char_traits@D@std@@@std@@QEAAAEAV01@P6AAEAV01@AEAV01@@Z@Z
  0032a	90		 npad	 1

; 69   :         return 0;

  0032b	33 c0		 xor	 eax, eax
  0032d	e9 a9 05 00 00	 jmp	 $LN1@main
$LN14@main:

; 70   :     }
; 71   : 
; 72   :     if (isLeapYear(year)) {

  00332	8b 4d 44	 mov	 ecx, DWORD PTR year$[rbp]
  00335	e8 00 00 00 00	 call	 ?isLeapYear@@YA_NH@Z	; isLeapYear
  0033a	0f b6 c0	 movzx	 eax, al
  0033d	85 c0		 test	 eax, eax
  0033f	74 26		 je	 SHORT $LN16@main

; 73   :         cout << "  " << endl;

  00341	48 8d 15 00 00
	00 00		 lea	 rdx, OFFSET FLAT:??_C@_0BI@EKNKLPIB@?C?n?d?5?$PP?b?k?$PP?e?r?q?$PP?5?b?h?q?n?j?n?q?m?$PL?l@
  00348	48 8b 0d 00 00
	00 00		 mov	 rcx, QWORD PTR __imp_?cout@std@@3V?$basic_ostream@DU?$char_traits@D@std@@@1@A
  0034f	e8 00 00 00 00	 call	 ??$?6U?$char_traits@D@std@@@std@@YAAEAV?$basic_ostream@DU?$char_traits@D@std@@@0@AEAV10@PEBD@Z ; std::operator<<<std::char_traits<char> >
  00354	48 8d 15 00 00
	00 00		 lea	 rdx, OFFSET FLAT:??$endl@DU?$char_traits@D@std@@@std@@YAAEAV?$basic_ostream@DU?$char_traits@D@std@@@0@AEAV10@@Z ; std::endl<char,std::char_traits<char> >
  0035b	48 8b c8	 mov	 rcx, rax
  0035e	ff 15 00 00 00
	00		 call	 QWORD PTR __imp_??6?$basic_ostream@DU?$char_traits@D@std@@@std@@QEAAAEAV01@P6AAEAV01@AEAV01@@Z@Z
  00364	90		 npad	 1

; 74   :     }

  00365	eb 24		 jmp	 SHORT $LN17@main
$LN16@main:

; 75   :     else {
; 76   :         cout << "   " << endl;

  00367	48 8d 15 00 00
	00 00		 lea	 rdx, OFFSET FLAT:??_C@_0BL@POKJLFCK@?C?n?d?5?m?e?5?$PP?b?k?$PP?e?r?q?$PP?5?b?h?q?n?j?n?q?m?$PL?l@
  0036e	48 8b 0d 00 00
	00 00		 mov	 rcx, QWORD PTR __imp_?cout@std@@3V?$basic_ostream@DU?$char_traits@D@std@@@1@A
  00375	e8 00 00 00 00	 call	 ??$?6U?$char_traits@D@std@@@std@@YAAEAV?$basic_ostream@DU?$char_traits@D@std@@@0@AEAV10@PEBD@Z ; std::operator<<<std::char_traits<char> >
  0037a	48 8d 15 00 00
	00 00		 lea	 rdx, OFFSET FLAT:??$endl@DU?$char_traits@D@std@@@std@@YAAEAV?$basic_ostream@DU?$char_traits@D@std@@@0@AEAV10@@Z ; std::endl<char,std::char_traits<char> >
  00381	48 8b c8	 mov	 rcx, rax
  00384	ff 15 00 00 00
	00		 call	 QWORD PTR __imp_??6?$basic_ostream@DU?$char_traits@D@std@@@std@@QEAAAEAV01@P6AAEAV01@AEAV01@@Z@Z
  0038a	90		 npad	 1
$LN17@main:

; 77   :     }
; 78   : 
; 79   :     if (daysRemaining < 0 && isLeapYear(year))

  0038b	83 bd e4 00 00
	00 00		 cmp	 DWORD PTR daysRemaining$[rbp], 0
  00392	7d 22		 jge	 SHORT $LN18@main
  00394	8b 4d 44	 mov	 ecx, DWORD PTR year$[rbp]
  00397	e8 00 00 00 00	 call	 ?isLeapYear@@YA_NH@Z	; isLeapYear
  0039c	0f b6 c0	 movzx	 eax, al
  0039f	85 c0		 test	 eax, eax
  003a1	74 13		 je	 SHORT $LN18@main

; 80   :         daysRemaining = daysRemaining + 366;

  003a3	8b 85 e4 00 00
	00		 mov	 eax, DWORD PTR daysRemaining$[rbp]
  003a9	05 6e 01 00 00	 add	 eax, 366		; 0000016eH
  003ae	89 85 e4 00 00
	00		 mov	 DWORD PTR daysRemaining$[rbp], eax
  003b4	eb 1a		 jmp	 SHORT $LN19@main
$LN18@main:

; 81   :     else if (daysRemaining < 0)

  003b6	83 bd e4 00 00
	00 00		 cmp	 DWORD PTR daysRemaining$[rbp], 0
  003bd	7d 11		 jge	 SHORT $LN19@main

; 82   :         daysRemaining = daysRemaining + 365;

  003bf	8b 85 e4 00 00
	00		 mov	 eax, DWORD PTR daysRemaining$[rbp]
  003c5	05 6d 01 00 00	 add	 eax, 365		; 0000016dH
  003ca	89 85 e4 00 00
	00		 mov	 DWORD PTR daysRemaining$[rbp], eax
$LN19@main:

; 83   :     if (birthdayMonth == 2 && birthDay == 29) {

  003d0	83 bd c4 00 00
	00 02		 cmp	 DWORD PTR birthdayMonth$[rbp], 2
  003d7	0f 85 88 00 00
	00		 jne	 $LN21@main
  003dd	83 bd a4 00 00
	00 1d		 cmp	 DWORD PTR birthDay$[rbp], 29
  003e4	75 7f		 jne	 SHORT $LN21@main

; 84   :         if (birthdayMonth < month) {

  003e6	8b 45 24	 mov	 eax, DWORD PTR month$[rbp]
  003e9	39 85 c4 00 00
	00		 cmp	 DWORD PTR birthdayMonth$[rbp], eax
  003ef	7d 08		 jge	 SHORT $LN22@main

; 85   :             year++;

  003f1	8b 45 44	 mov	 eax, DWORD PTR year$[rbp]
  003f4	ff c0		 inc	 eax
  003f6	89 45 44	 mov	 DWORD PTR year$[rbp], eax
$LN22@main:

; 86   :         }
; 87   :         for (int i = 0; count >= i; i++, count++) {

  003f9	c7 85 44 01 00
	00 00 00 00 00	 mov	 DWORD PTR i$8[rbp], 0
  00403	eb 1c		 jmp	 SHORT $LN4@main
$LN2@main:
  00405	8b 85 44 01 00
	00		 mov	 eax, DWORD PTR i$8[rbp]
  0040b	ff c0		 inc	 eax
  0040d	89 85 44 01 00
	00		 mov	 DWORD PTR i$8[rbp], eax
  00413	8b 85 04 01 00
	00		 mov	 eax, DWORD PTR count$[rbp]
  00419	ff c0		 inc	 eax
  0041b	89 85 04 01 00
	00		 mov	 DWORD PTR count$[rbp], eax
$LN4@main:
  00421	8b 85 44 01 00
	00		 mov	 eax, DWORD PTR i$8[rbp]
  00427	39 85 04 01 00
	00		 cmp	 DWORD PTR count$[rbp], eax
  0042d	7c 36		 jl	 SHORT $LN21@main

; 88   :             if (isLeapYear(year))

  0042f	8b 4d 44	 mov	 ecx, DWORD PTR year$[rbp]
  00432	e8 00 00 00 00	 call	 ?isLeapYear@@YA_NH@Z	; isLeapYear
  00437	0f b6 c0	 movzx	 eax, al
  0043a	85 c0		 test	 eax, eax
  0043c	74 0c		 je	 SHORT $LN23@main

; 89   :                 count = 0;

  0043e	c7 85 04 01 00
	00 00 00 00 00	 mov	 DWORD PTR count$[rbp], 0
  00448	eb 19		 jmp	 SHORT $LN24@main
$LN23@main:

; 90   :             else {
; 91   :                 year = year + 1;

  0044a	8b 45 44	 mov	 eax, DWORD PTR year$[rbp]
  0044d	ff c0		 inc	 eax
  0044f	89 45 44	 mov	 DWORD PTR year$[rbp], eax

; 92   :                 daysRemaining = daysRemaining + 365;

  00452	8b 85 e4 00 00
	00		 mov	 eax, DWORD PTR daysRemaining$[rbp]
  00458	05 6d 01 00 00	 add	 eax, 365		; 0000016dH
  0045d	89 85 e4 00 00
	00		 mov	 DWORD PTR daysRemaining$[rbp], eax
$LN24@main:

; 93   :             }
; 94   :         }

  00463	eb a0		 jmp	 SHORT $LN2@main
$LN21@main:

; 95   :     }
; 96   :     if (month > 2)

  00465	83 7d 24 02	 cmp	 DWORD PTR month$[rbp], 2
  00469	7e 4c		 jle	 SHORT $LN25@main

; 97   :     cout << "   : " << dayOfYear(day, month, year)<< endl;

  0046b	44 8b 45 44	 mov	 r8d, DWORD PTR year$[rbp]
  0046f	8b 55 24	 mov	 edx, DWORD PTR month$[rbp]
  00472	8b 4d 04	 mov	 ecx, DWORD PTR day$[rbp]
  00475	e8 00 00 00 00	 call	 ?dayOfYear@@YAHHHH@Z	; dayOfYear
  0047a	89 85 b4 03 00
	00		 mov	 DWORD PTR tv215[rbp], eax
  00480	48 8d 15 00 00
	00 00		 lea	 rdx, OFFSET FLAT:??_C@_0BD@LIFACDMA@?M?n?l?e?p?5?d?m?$PP?5?b?5?c?n?d?s?3?5@
  00487	48 8b 0d 00 00
	00 00		 mov	 rcx, QWORD PTR __imp_?cout@std@@3V?$basic_ostream@DU?$char_traits@D@std@@@1@A
  0048e	e8 00 00 00 00	 call	 ??$?6U?$char_traits@D@std@@@std@@YAAEAV?$basic_ostream@DU?$char_traits@D@std@@@0@AEAV10@PEBD@Z ; std::operator<<<std::char_traits<char> >
  00493	8b 8d b4 03 00
	00		 mov	 ecx, DWORD PTR tv215[rbp]
  00499	8b d1		 mov	 edx, ecx
  0049b	48 8b c8	 mov	 rcx, rax
  0049e	ff 15 00 00 00
	00		 call	 QWORD PTR __imp_??6?$basic_ostream@DU?$char_traits@D@std@@@std@@QEAAAEAV01@H@Z
  004a4	48 8d 15 00 00
	00 00		 lea	 rdx, OFFSET FLAT:??$endl@DU?$char_traits@D@std@@@std@@YAAEAV?$basic_ostream@DU?$char_traits@D@std@@@0@AEAV10@@Z ; std::endl<char,std::char_traits<char> >
  004ab	48 8b c8	 mov	 rcx, rax
  004ae	ff 15 00 00 00
	00		 call	 QWORD PTR __imp_??6?$basic_ostream@DU?$char_traits@D@std@@@std@@QEAAAEAV01@P6AAEAV01@AEAV01@@Z@Z
  004b4	90		 npad	 1
  004b5	eb 4a		 jmp	 SHORT $LN26@main
$LN25@main:

; 98   :     else 
; 99   :     cout << "   : " << dayOfYear(day, month, year) << endl;

  004b7	44 8b 45 44	 mov	 r8d, DWORD PTR year$[rbp]
  004bb	8b 55 24	 mov	 edx, DWORD PTR month$[rbp]
  004be	8b 4d 04	 mov	 ecx, DWORD PTR day$[rbp]
  004c1	e8 00 00 00 00	 call	 ?dayOfYear@@YAHHHH@Z	; dayOfYear
  004c6	89 85 b4 03 00
	00		 mov	 DWORD PTR tv227[rbp], eax
  004cc	48 8d 15 00 00
	00 00		 lea	 rdx, OFFSET FLAT:??_C@_0BD@LIFACDMA@?M?n?l?e?p?5?d?m?$PP?5?b?5?c?n?d?s?3?5@
  004d3	48 8b 0d 00 00
	00 00		 mov	 rcx, QWORD PTR __imp_?cout@std@@3V?$basic_ostream@DU?$char_traits@D@std@@@1@A
  004da	e8 00 00 00 00	 call	 ??$?6U?$char_traits@D@std@@@std@@YAAEAV?$basic_ostream@DU?$char_traits@D@std@@@0@AEAV10@PEBD@Z ; std::operator<<<std::char_traits<char> >
  004df	8b 8d b4 03 00
	00		 mov	 ecx, DWORD PTR tv227[rbp]
  004e5	8b d1		 mov	 edx, ecx
  004e7	48 8b c8	 mov	 rcx, rax
  004ea	ff 15 00 00 00
	00		 call	 QWORD PTR __imp_??6?$basic_ostream@DU?$char_traits@D@std@@@std@@QEAAAEAV01@H@Z
  004f0	48 8d 15 00 00
	00 00		 lea	 rdx, OFFSET FLAT:??$endl@DU?$char_traits@D@std@@@std@@YAAEAV?$basic_ostream@DU?$char_traits@D@std@@@0@AEAV10@@Z ; std::endl<char,std::char_traits<char> >
  004f7	48 8b c8	 mov	 rcx, rax
  004fa	ff 15 00 00 00
	00		 call	 QWORD PTR __imp_??6?$basic_ostream@DU?$char_traits@D@std@@@std@@QEAAAEAV01@P6AAEAV01@AEAV01@@Z@Z
  00500	90		 npad	 1
$LN26@main:

; 100  :     cout << "   : " << daysRemaining << endl;

  00501	48 8d 15 00 00
	00 00		 lea	 rdx, OFFSET FLAT:??_C@_0BH@JDCOJOJB@?D?m?e?i?5?d?n?5?d?m?$PP?5?p?n?f?d?e?m?h?$PP?3?5@
  00508	48 8b 0d 00 00
	00 00		 mov	 rcx, QWORD PTR __imp_?cout@std@@3V?$basic_ostream@DU?$char_traits@D@std@@@1@A
  0050f	e8 00 00 00 00	 call	 ??$?6U?$char_traits@D@std@@@std@@YAAEAV?$basic_ostream@DU?$char_traits@D@std@@@0@AEAV10@PEBD@Z ; std::operator<<<std::char_traits<char> >
  00514	8b 95 e4 00 00
	00		 mov	 edx, DWORD PTR daysRemaining$[rbp]
  0051a	48 8b c8	 mov	 rcx, rax
  0051d	ff 15 00 00 00
	00		 call	 QWORD PTR __imp_??6?$basic_ostream@DU?$char_traits@D@std@@@std@@QEAAAEAV01@H@Z
  00523	48 8d 15 00 00
	00 00		 lea	 rdx, OFFSET FLAT:??$endl@DU?$char_traits@D@std@@@std@@YAAEAV?$basic_ostream@DU?$char_traits@D@std@@@0@AEAV10@@Z ; std::endl<char,std::char_traits<char> >
  0052a	48 8b c8	 mov	 rcx, rax
  0052d	ff 15 00 00 00
	00		 call	 QWORD PTR __imp_??6?$basic_ostream@DU?$char_traits@D@std@@@std@@QEAAAEAV01@P6AAEAV01@AEAV01@@Z@Z
  00533	90		 npad	 1

; 101  : 
; 102  :     cout << ": " << getMonthName(month) << " ( : " << month << ")" << endl;

  00534	8b 55 24	 mov	 edx, DWORD PTR month$[rbp]
  00537	48 8d 8d 48 03
	00 00		 lea	 rcx, QWORD PTR $T9[rbp]
  0053e	e8 00 00 00 00	 call	 ?getMonthName@@YA?AV?$basic_string@DU?$char_traits@D@std@@V?$allocator@D@2@@std@@H@Z ; getMonthName
  00543	48 89 85 b8 03
	00 00		 mov	 QWORD PTR tv387[rbp], rax
  0054a	48 8b 85 b8 03
	00 00		 mov	 rax, QWORD PTR tv387[rbp]
  00551	48 89 85 c0 03
	00 00		 mov	 QWORD PTR tv384[rbp], rax
  00558	48 8d 15 00 00
	00 00		 lea	 rdx, OFFSET FLAT:??_C@_07ONJDPLPB@?L?e?q?$PP?v?3?5@
  0055f	48 8b 0d 00 00
	00 00		 mov	 rcx, QWORD PTR __imp_?cout@std@@3V?$basic_ostream@DU?$char_traits@D@std@@@1@A
  00566	e8 00 00 00 00	 call	 ??$?6U?$char_traits@D@std@@@std@@YAAEAV?$basic_ostream@DU?$char_traits@D@std@@@0@AEAV10@PEBD@Z ; std::operator<<<std::char_traits<char> >
  0056b	48 8b 95 c0 03
	00 00		 mov	 rdx, QWORD PTR tv384[rbp]
  00572	48 8b c8	 mov	 rcx, rax
  00575	e8 00 00 00 00	 call	 ??$?6DU?$char_traits@D@std@@V?$allocator@D@1@@std@@YAAEAV?$basic_ostream@DU?$char_traits@D@std@@@0@AEAV10@AEBV?$basic_string@DU?$char_traits@D@std@@V?$allocator@D@2@@0@@Z ; std::operator<<<char,std::char_traits<char>,std::allocator<char> >
  0057a	48 8d 15 00 00
	00 00		 lea	 rdx, OFFSET FLAT:??_C@_0BF@CHFNCBJJ@?5?$CI?o?n?p?$PP?d?j?n?b?$PL?i?5?m?n?l?e?p?3?5@
  00581	48 8b c8	 mov	 rcx, rax
  00584	e8 00 00 00 00	 call	 ??$?6U?$char_traits@D@std@@@std@@YAAEAV?$basic_ostream@DU?$char_traits@D@std@@@0@AEAV10@PEBD@Z ; std::operator<<<std::char_traits<char> >
  00589	8b 55 24	 mov	 edx, DWORD PTR month$[rbp]
  0058c	48 8b c8	 mov	 rcx, rax
  0058f	ff 15 00 00 00
	00		 call	 QWORD PTR __imp_??6?$basic_ostream@DU?$char_traits@D@std@@@std@@QEAAAEAV01@H@Z
  00595	48 8d 15 00 00
	00 00		 lea	 rdx, OFFSET FLAT:??_C@_01PKGAHCOL@?$CJ@
  0059c	48 8b c8	 mov	 rcx, rax
  0059f	e8 00 00 00 00	 call	 ??$?6U?$char_traits@D@std@@@std@@YAAEAV?$basic_ostream@DU?$char_traits@D@std@@@0@AEAV10@PEBD@Z ; std::operator<<<std::char_traits<char> >
  005a4	48 8d 15 00 00
	00 00		 lea	 rdx, OFFSET FLAT:??$endl@DU?$char_traits@D@std@@@std@@YAAEAV?$basic_ostream@DU?$char_traits@D@std@@@0@AEAV10@@Z ; std::endl<char,std::char_traits<char> >
  005ab	48 8b c8	 mov	 rcx, rax
  005ae	ff 15 00 00 00
	00		 call	 QWORD PTR __imp_??6?$basic_ostream@DU?$char_traits@D@std@@@std@@QEAAAEAV01@P6AAEAV01@AEAV01@@Z@Z
  005b4	90		 npad	 1
  005b5	48 8d 8d 48 03
	00 00		 lea	 rcx, QWORD PTR $T9[rbp]
  005bc	e8 00 00 00 00	 call	 ??1?$basic_string@DU?$char_traits@D@std@@V?$allocator@D@2@@std@@QEAA@XZ ; std::basic_string<char,std::char_traits<char>,std::allocator<char> >::~basic_string<char,std::char_traits<char>,std::allocator<char> >
  005c1	90		 npad	 1

; 103  : 
; 104  :     int dayOfYearInput;
; 105  :     cout << "    : ";

  005c2	48 8d 15 00 00
	00 00		 lea	 rdx, OFFSET FLAT:??_C@_0CE@KLJEFNFF@?B?b?e?d?h?r?e?5?o?n?p?$PP?d?j?n?b?$PL?i?5?m?n?l?e?p?5?d?m?$PP?5?c?n@
  005c9	48 8b 0d 00 00
	00 00		 mov	 rcx, QWORD PTR __imp_?cout@std@@3V?$basic_ostream@DU?$char_traits@D@std@@@1@A
  005d0	e8 00 00 00 00	 call	 ??$?6U?$char_traits@D@std@@@std@@YAAEAV?$basic_ostream@DU?$char_traits@D@std@@@0@AEAV10@PEBD@Z ; std::operator<<<std::char_traits<char> >
  005d5	90		 npad	 1

; 106  :     cin >> dayOfYearInput;

  005d6	48 8d 95 64 01
	00 00		 lea	 rdx, QWORD PTR dayOfYearInput$[rbp]
  005dd	48 8b 0d 00 00
	00 00		 mov	 rcx, QWORD PTR __imp_?cin@std@@3V?$basic_istream@DU?$char_traits@D@std@@@1@A
  005e4	ff 15 00 00 00
	00		 call	 QWORD PTR __imp_??5?$basic_istream@DU?$char_traits@D@std@@@std@@QEAAAEAV01@AEAH@Z
  005ea	90		 npad	 1

; 107  :     if (dayOfYearInput > 366 && isLeapYear(year) && dayOfYearInput < 0) {

  005eb	81 bd 64 01 00
	00 6e 01 00 00	 cmp	 DWORD PTR dayOfYearInput$[rbp], 366 ; 0000016eH
  005f5	7e 2e		 jle	 SHORT $LN27@main
  005f7	8b 4d 44	 mov	 ecx, DWORD PTR year$[rbp]
  005fa	e8 00 00 00 00	 call	 ?isLeapYear@@YA_NH@Z	; isLeapYear
  005ff	0f b6 c0	 movzx	 eax, al
  00602	85 c0		 test	 eax, eax
  00604	74 1f		 je	 SHORT $LN27@main
  00606	83 bd 64 01 00
	00 00		 cmp	 DWORD PTR dayOfYearInput$[rbp], 0
  0060d	7d 16		 jge	 SHORT $LN27@main

; 108  :         cout << " ";

  0060f	48 8d 15 00 00
	00 00		 lea	 rdx, OFFSET FLAT:??_C@_0BC@LNFPJGKC@?M?e?o?p?$OA?b?h?k?$PM?m?$PL?i?5?d?e?m?$PM@
  00616	48 8b 0d 00 00
	00 00		 mov	 rcx, QWORD PTR __imp_?cout@std@@3V?$basic_ostream@DU?$char_traits@D@std@@@1@A
  0061d	e8 00 00 00 00	 call	 ??$?6U?$char_traits@D@std@@@std@@YAAEAV?$basic_ostream@DU?$char_traits@D@std@@@0@AEAV10@PEBD@Z ; std::operator<<<std::char_traits<char> >
  00622	90		 npad	 1

; 109  :     }

  00623	eb 29		 jmp	 SHORT $LN28@main
$LN27@main:

; 110  :     else if (dayOfYearInput > 365 && dayOfYearInput < 0) {

  00625	81 bd 64 01 00
	00 6d 01 00 00	 cmp	 DWORD PTR dayOfYearInput$[rbp], 365 ; 0000016dH
  0062f	7e 1d		 jle	 SHORT $LN28@main
  00631	83 bd 64 01 00
	00 00		 cmp	 DWORD PTR dayOfYearInput$[rbp], 0
  00638	7d 14		 jge	 SHORT $LN28@main

; 111  :         cout << " ";

  0063a	48 8d 15 00 00
	00 00		 lea	 rdx, OFFSET FLAT:??_C@_0BC@LNFPJGKC@?M?e?o?p?$OA?b?h?k?$PM?m?$PL?i?5?d?e?m?$PM@
  00641	48 8b 0d 00 00
	00 00		 mov	 rcx, QWORD PTR __imp_?cout@std@@3V?$basic_ostream@DU?$char_traits@D@std@@@1@A
  00648	e8 00 00 00 00	 call	 ??$?6U?$char_traits@D@std@@@std@@YAAEAV?$basic_ostream@DU?$char_traits@D@std@@@0@AEAV10@PEBD@Z ; std::operator<<<std::char_traits<char> >
  0064d	90		 npad	 1
$LN28@main:

; 112  :     }
; 113  : 
; 114  :     int resultDay, resultMonth;
; 115  :     getDateFromDayOfYear(dayOfYearInput, year1, resultDay, resultMonth);

  0064e	4c 8d 8d a4 01
	00 00		 lea	 r9, QWORD PTR resultMonth$[rbp]
  00655	4c 8d 85 84 01
	00 00		 lea	 r8, QWORD PTR resultDay$[rbp]
  0065c	8b 95 24 01 00
	00		 mov	 edx, DWORD PTR year1$[rbp]
  00662	8b 8d 64 01 00
	00		 mov	 ecx, DWORD PTR dayOfYearInput$[rbp]
  00668	e8 00 00 00 00	 call	 ?getDateFromDayOfYear@@YAXHHAEAH0@Z ; getDateFromDayOfYear
  0066d	90		 npad	 1

; 116  :     
; 117  :     cout << ",    " << dayOfYearInput << ": "

  0066e	8b 95 a4 01 00
	00		 mov	 edx, DWORD PTR resultMonth$[rbp]
  00674	48 8d 8d 88 03
	00 00		 lea	 rcx, QWORD PTR $T10[rbp]
  0067b	e8 00 00 00 00	 call	 ?getMonthName@@YA?AV?$basic_string@DU?$char_traits@D@std@@V?$allocator@D@2@@std@@H@Z ; getMonthName
  00680	48 89 85 b8 03
	00 00		 mov	 QWORD PTR tv388[rbp], rax
  00687	48 8b 85 b8 03
	00 00		 mov	 rax, QWORD PTR tv388[rbp]
  0068e	48 89 85 c0 03
	00 00		 mov	 QWORD PTR tv386[rbp], rax
  00695	48 8d 15 00 00
	00 00		 lea	 rdx, OFFSET FLAT:??_C@_0CK@PGDIOOLL@?D?$OA?r?$OA?0?5?q?n?n?r?b?e?r?q?r?b?s?$PO?y?$OA?$PP?5?o?n?p?$PP?d?j?n?b?n@
  0069c	48 8b 0d 00 00
	00 00		 mov	 rcx, QWORD PTR __imp_?cout@std@@3V?$basic_ostream@DU?$char_traits@D@std@@@1@A
  006a3	e8 00 00 00 00	 call	 ??$?6U?$char_traits@D@std@@@std@@YAAEAV?$basic_ostream@DU?$char_traits@D@std@@@0@AEAV10@PEBD@Z ; std::operator<<<std::char_traits<char> >
  006a8	8b 95 64 01 00
	00		 mov	 edx, DWORD PTR dayOfYearInput$[rbp]
  006ae	48 8b c8	 mov	 rcx, rax
  006b1	ff 15 00 00 00
	00		 call	 QWORD PTR __imp_??6?$basic_ostream@DU?$char_traits@D@std@@@std@@QEAAAEAV01@H@Z
  006b7	48 8d 15 00 00
	00 00		 lea	 rdx, OFFSET FLAT:??_C@_02LMMGGCAJ@?3?5@
  006be	48 8b c8	 mov	 rcx, rax
  006c1	e8 00 00 00 00	 call	 ??$?6U?$char_traits@D@std@@@std@@YAAEAV?$basic_ostream@DU?$char_traits@D@std@@@0@AEAV10@PEBD@Z ; std::operator<<<std::char_traits<char> >
  006c6	8b 95 84 01 00
	00		 mov	 edx, DWORD PTR resultDay$[rbp]
  006cc	48 8b c8	 mov	 rcx, rax
  006cf	ff 15 00 00 00
	00		 call	 QWORD PTR __imp_??6?$basic_ostream@DU?$char_traits@D@std@@@std@@QEAAAEAV01@H@Z
  006d5	48 8d 15 00 00
	00 00		 lea	 rdx, OFFSET FLAT:??_C@_01CLKCMJKC@?5@
  006dc	48 8b c8	 mov	 rcx, rax
  006df	e8 00 00 00 00	 call	 ??$?6U?$char_traits@D@std@@@std@@YAAEAV?$basic_ostream@DU?$char_traits@D@std@@@0@AEAV10@PEBD@Z ; std::operator<<<std::char_traits<char> >
  006e4	48 8b 95 c0 03
	00 00		 mov	 rdx, QWORD PTR tv386[rbp]
  006eb	48 8b c8	 mov	 rcx, rax
  006ee	e8 00 00 00 00	 call	 ??$?6DU?$char_traits@D@std@@V?$allocator@D@1@@std@@YAAEAV?$basic_ostream@DU?$char_traits@D@std@@@0@AEAV10@AEBV?$basic_string@DU?$char_traits@D@std@@V?$allocator@D@2@@0@@Z ; std::operator<<<char,std::char_traits<char>,std::allocator<char> >
  006f3	48 8d 15 00 00
	00 00		 lea	 rdx, OFFSET FLAT:??_C@_01CLKCMJKC@?5@
  006fa	48 8b c8	 mov	 rcx, rax
  006fd	e8 00 00 00 00	 call	 ??$?6U?$char_traits@D@std@@@std@@YAAEAV?$basic_ostream@DU?$char_traits@D@std@@@0@AEAV10@PEBD@Z ; std::operator<<<std::char_traits<char> >
  00702	8b 95 24 01 00
	00		 mov	 edx, DWORD PTR year1$[rbp]
  00708	48 8b c8	 mov	 rcx, rax
  0070b	ff 15 00 00 00
	00		 call	 QWORD PTR __imp_??6?$basic_ostream@DU?$char_traits@D@std@@@std@@QEAAAEAV01@H@Z
  00711	48 8d 15 00 00
	00 00		 lea	 rdx, OFFSET FLAT:??$endl@DU?$char_traits@D@std@@@std@@YAAEAV?$basic_ostream@DU?$char_traits@D@std@@@0@AEAV10@@Z ; std::endl<char,std::char_traits<char> >
  00718	48 8b c8	 mov	 rcx, rax
  0071b	ff 15 00 00 00
	00		 call	 QWORD PTR __imp_??6?$basic_ostream@DU?$char_traits@D@std@@@std@@QEAAAEAV01@P6AAEAV01@AEAV01@@Z@Z
  00721	90		 npad	 1
  00722	48 8d 8d 88 03
	00 00		 lea	 rcx, QWORD PTR $T10[rbp]
  00729	e8 00 00 00 00	 call	 ??1?$basic_string@DU?$char_traits@D@std@@V?$allocator@D@2@@std@@QEAA@XZ ; std::basic_string<char,std::char_traits<char>,std::allocator<char> >::~basic_string<char,std::char_traits<char>,std::allocator<char> >
  0072e	90		 npad	 1

; 118  :         << resultDay << " " << getMonthName(resultMonth) << " " << year1 << endl;
; 119  :     if ((isLeapYear(year) && dayOfYearInput == 68))

  0072f	8b 4d 44	 mov	 ecx, DWORD PTR year$[rbp]
  00732	e8 00 00 00 00	 call	 ?isLeapYear@@YA_NH@Z	; isLeapYear
  00737	0f b6 c0	 movzx	 eax, al
  0073a	85 c0		 test	 eax, eax
  0073c	74 2f		 je	 SHORT $LN30@main
  0073e	83 bd 64 01 00
	00 44		 cmp	 DWORD PTR dayOfYearInput$[rbp], 68 ; 00000044H
  00745	75 26		 jne	 SHORT $LN30@main

; 120  :         cout << "  " << endl;

  00747	48 8d 15 00 00
	00 00		 lea	 rdx, OFFSET FLAT:??_C@_0BE@NKIHDEP@?Q?e?c?n?d?m?$PP?5?D?e?m?$PM?5?f?e?m?y?h?m@
  0074e	48 8b 0d 00 00
	00 00		 mov	 rcx, QWORD PTR __imp_?cout@std@@3V?$basic_ostream@DU?$char_traits@D@std@@@1@A
  00755	e8 00 00 00 00	 call	 ??$?6U?$char_traits@D@std@@@std@@YAAEAV?$basic_ostream@DU?$char_traits@D@std@@@0@AEAV10@PEBD@Z ; std::operator<<<std::char_traits<char> >
  0075a	48 8d 15 00 00
	00 00		 lea	 rdx, OFFSET FLAT:??$endl@DU?$char_traits@D@std@@@std@@YAAEAV?$basic_ostream@DU?$char_traits@D@std@@@0@AEAV10@@Z ; std::endl<char,std::char_traits<char> >
  00761	48 8b c8	 mov	 rcx, rax
  00764	ff 15 00 00 00
	00		 call	 QWORD PTR __imp_??6?$basic_ostream@DU?$char_traits@D@std@@@std@@QEAAAEAV01@P6AAEAV01@AEAV01@@Z@Z
  0076a	90		 npad	 1
  0076b	eb 3c		 jmp	 SHORT $LN31@main
$LN30@main:

; 121  :     else if (dayOfYearInput == 67 && !isLeapYear(year))

  0076d	83 bd 64 01 00
	00 43		 cmp	 DWORD PTR dayOfYearInput$[rbp], 67 ; 00000043H
  00774	75 33		 jne	 SHORT $LN31@main
  00776	8b 4d 44	 mov	 ecx, DWORD PTR year$[rbp]
  00779	e8 00 00 00 00	 call	 ?isLeapYear@@YA_NH@Z	; isLeapYear
  0077e	0f b6 c0	 movzx	 eax, al
  00781	85 c0		 test	 eax, eax
  00783	75 24		 jne	 SHORT $LN31@main

; 122  :         cout << "  " << endl;

  00785	48 8d 15 00 00
	00 00		 lea	 rdx, OFFSET FLAT:??_C@_0BE@NKIHDEP@?Q?e?c?n?d?m?$PP?5?D?e?m?$PM?5?f?e?m?y?h?m@
  0078c	48 8b 0d 00 00
	00 00		 mov	 rcx, QWORD PTR __imp_?cout@std@@3V?$basic_ostream@DU?$char_traits@D@std@@@1@A
  00793	e8 00 00 00 00	 call	 ??$?6U?$char_traits@D@std@@@std@@YAAEAV?$basic_ostream@DU?$char_traits@D@std@@@0@AEAV10@PEBD@Z ; std::operator<<<std::char_traits<char> >
  00798	48 8d 15 00 00
	00 00		 lea	 rdx, OFFSET FLAT:??$endl@DU?$char_traits@D@std@@@std@@YAAEAV?$basic_ostream@DU?$char_traits@D@std@@@0@AEAV10@@Z ; std::endl<char,std::char_traits<char> >
  0079f	48 8b c8	 mov	 rcx, rax
  007a2	ff 15 00 00 00
	00		 call	 QWORD PTR __imp_??6?$basic_ostream@DU?$char_traits@D@std@@@std@@QEAAAEAV01@P6AAEAV01@AEAV01@@Z@Z
  007a8	90		 npad	 1
$LN31@main:

; 123  :     if (dayOfYearInput == 1 || dayOfYearInput == 2)

  007a9	83 bd 64 01 00
	00 01		 cmp	 DWORD PTR dayOfYearInput$[rbp], 1
  007b0	74 09		 je	 SHORT $LN34@main
  007b2	83 bd 64 01 00
	00 02		 cmp	 DWORD PTR dayOfYearInput$[rbp], 2
  007b9	75 24		 jne	 SHORT $LN33@main
$LN34@main:

; 124  :         cout << "  " << endl;

  007bb	48 8d 15 00 00
	00 00		 lea	 rdx, OFFSET FLAT:??_C@_0BC@OHKPBILE@?Q?e?c?n?d?m?$PP?5?M?n?b?$PL?i?5?c?n?d@
  007c2	48 8b 0d 00 00
	00 00		 mov	 rcx, QWORD PTR __imp_?cout@std@@3V?$basic_ostream@DU?$char_traits@D@std@@@1@A
  007c9	e8 00 00 00 00	 call	 ??$?6U?$char_traits@D@std@@@std@@YAAEAV?$basic_ostream@DU?$char_traits@D@std@@@0@AEAV10@PEBD@Z ; std::operator<<<std::char_traits<char> >
  007ce	48 8d 15 00 00
	00 00		 lea	 rdx, OFFSET FLAT:??$endl@DU?$char_traits@D@std@@@std@@YAAEAV?$basic_ostream@DU?$char_traits@D@std@@@0@AEAV10@@Z ; std::endl<char,std::char_traits<char> >
  007d5	48 8b c8	 mov	 rcx, rax
  007d8	ff 15 00 00 00
	00		 call	 QWORD PTR __imp_??6?$basic_ostream@DU?$char_traits@D@std@@@std@@QEAAAEAV01@P6AAEAV01@AEAV01@@Z@Z
  007de	90		 npad	 1
$LN33@main:

; 125  :     if ((isLeapYear(year) && dayOfYearInput == 122))

  007df	8b 4d 44	 mov	 ecx, DWORD PTR year$[rbp]
  007e2	e8 00 00 00 00	 call	 ?isLeapYear@@YA_NH@Z	; isLeapYear
  007e7	0f b6 c0	 movzx	 eax, al
  007ea	85 c0		 test	 eax, eax
  007ec	74 2f		 je	 SHORT $LN35@main
  007ee	83 bd 64 01 00
	00 7a		 cmp	 DWORD PTR dayOfYearInput$[rbp], 122 ; 0000007aH
  007f5	75 26		 jne	 SHORT $LN35@main

; 126  :         cout << "  " << endl;

  007f7	48 8d 15 00 00
	00 00		 lea	 rdx, OFFSET FLAT:??_C@_0BH@NDKAFKKG@?Q?e?c?n?d?m?$PP?5?O?p?$OA?g?d?m?h?j?5?r?p?s?d?$OA@
  007fe	48 8b 0d 00 00
	00 00		 mov	 rcx, QWORD PTR __imp_?cout@std@@3V?$basic_ostream@DU?$char_traits@D@std@@@1@A
  00805	e8 00 00 00 00	 call	 ??$?6U?$char_traits@D@std@@@std@@YAAEAV?$basic_ostream@DU?$char_traits@D@std@@@0@AEAV10@PEBD@Z ; std::operator<<<std::char_traits<char> >
  0080a	48 8d 15 00 00
	00 00		 lea	 rdx, OFFSET FLAT:??$endl@DU?$char_traits@D@std@@@std@@YAAEAV?$basic_ostream@DU?$char_traits@D@std@@@0@AEAV10@@Z ; std::endl<char,std::char_traits<char> >
  00811	48 8b c8	 mov	 rcx, rax
  00814	ff 15 00 00 00
	00		 call	 QWORD PTR __imp_??6?$basic_ostream@DU?$char_traits@D@std@@@std@@QEAAAEAV01@P6AAEAV01@AEAV01@@Z@Z
  0081a	90		 npad	 1
  0081b	eb 3c		 jmp	 SHORT $LN36@main
$LN35@main:

; 127  :     else if (dayOfYearInput == 121 && !isLeapYear(year))

  0081d	83 bd 64 01 00
	00 79		 cmp	 DWORD PTR dayOfYearInput$[rbp], 121 ; 00000079H
  00824	75 33		 jne	 SHORT $LN36@main
  00826	8b 4d 44	 mov	 ecx, DWORD PTR year$[rbp]
  00829	e8 00 00 00 00	 call	 ?isLeapYear@@YA_NH@Z	; isLeapYear
  0082e	0f b6 c0	 movzx	 eax, al
  00831	85 c0		 test	 eax, eax
  00833	75 24		 jne	 SHORT $LN36@main

; 128  :         cout << "  " << endl;

  00835	48 8d 15 00 00
	00 00		 lea	 rdx, OFFSET FLAT:??_C@_0BH@NDKAFKKG@?Q?e?c?n?d?m?$PP?5?O?p?$OA?g?d?m?h?j?5?r?p?s?d?$OA@
  0083c	48 8b 0d 00 00
	00 00		 mov	 rcx, QWORD PTR __imp_?cout@std@@3V?$basic_ostream@DU?$char_traits@D@std@@@1@A
  00843	e8 00 00 00 00	 call	 ??$?6U?$char_traits@D@std@@@std@@YAAEAV?$basic_ostream@DU?$char_traits@D@std@@@0@AEAV10@PEBD@Z ; std::operator<<<std::char_traits<char> >
  00848	48 8d 15 00 00
	00 00		 lea	 rdx, OFFSET FLAT:??$endl@DU?$char_traits@D@std@@@std@@YAAEAV?$basic_ostream@DU?$char_traits@D@std@@@0@AEAV10@@Z ; std::endl<char,std::char_traits<char> >
  0084f	48 8b c8	 mov	 rcx, rax
  00852	ff 15 00 00 00
	00		 call	 QWORD PTR __imp_??6?$basic_ostream@DU?$char_traits@D@std@@@std@@QEAAAEAV01@P6AAEAV01@AEAV01@@Z@Z
  00858	90		 npad	 1
$LN36@main:

; 129  :     if ((isLeapYear(year) && dayOfYearInput == 130))

  00859	8b 4d 44	 mov	 ecx, DWORD PTR year$[rbp]
  0085c	e8 00 00 00 00	 call	 ?isLeapYear@@YA_NH@Z	; isLeapYear
  00861	0f b6 c0	 movzx	 eax, al
  00864	85 c0		 test	 eax, eax
  00866	74 32		 je	 SHORT $LN38@main
  00868	81 bd 64 01 00
	00 82 00 00 00	 cmp	 DWORD PTR dayOfYearInput$[rbp], 130 ; 00000082H
  00872	75 26		 jne	 SHORT $LN38@main

; 130  :         cout << "  " << endl;

  00874	48 8d 15 00 00
	00 00		 lea	 rdx, OFFSET FLAT:??_C@_0BE@DIEKIPMK@?Q?e?c?n?d?m?$PP?5?D?e?m?$PM?5?o?n?a?e?d?$PL@
  0087b	48 8b 0d 00 00
	00 00		 mov	 rcx, QWORD PTR __imp_?cout@std@@3V?$basic_ostream@DU?$char_traits@D@std@@@1@A
  00882	e8 00 00 00 00	 call	 ??$?6U?$char_traits@D@std@@@std@@YAAEAV?$basic_ostream@DU?$char_traits@D@std@@@0@AEAV10@PEBD@Z ; std::operator<<<std::char_traits<char> >
  00887	48 8d 15 00 00
	00 00		 lea	 rdx, OFFSET FLAT:??$endl@DU?$char_traits@D@std@@@std@@YAAEAV?$basic_ostream@DU?$char_traits@D@std@@@0@AEAV10@@Z ; std::endl<char,std::char_traits<char> >
  0088e	48 8b c8	 mov	 rcx, rax
  00891	ff 15 00 00 00
	00		 call	 QWORD PTR __imp_??6?$basic_ostream@DU?$char_traits@D@std@@@std@@QEAAAEAV01@P6AAEAV01@AEAV01@@Z@Z
  00897	90		 npad	 1
  00898	eb 3f		 jmp	 SHORT $LN39@main
$LN38@main:

; 131  :     else if (dayOfYearInput == 129 && !isLeapYear(year))

  0089a	81 bd 64 01 00
	00 81 00 00 00	 cmp	 DWORD PTR dayOfYearInput$[rbp], 129 ; 00000081H
  008a4	75 33		 jne	 SHORT $LN39@main
  008a6	8b 4d 44	 mov	 ecx, DWORD PTR year$[rbp]
  008a9	e8 00 00 00 00	 call	 ?isLeapYear@@YA_NH@Z	; isLeapYear
  008ae	0f b6 c0	 movzx	 eax, al
  008b1	85 c0		 test	 eax, eax
  008b3	75 24		 jne	 SHORT $LN39@main

; 132  :         cout << "  " << endl;

  008b5	48 8d 15 00 00
	00 00		 lea	 rdx, OFFSET FLAT:??_C@_0BE@DIEKIPMK@?Q?e?c?n?d?m?$PP?5?D?e?m?$PM?5?o?n?a?e?d?$PL@
  008bc	48 8b 0d 00 00
	00 00		 mov	 rcx, QWORD PTR __imp_?cout@std@@3V?$basic_ostream@DU?$char_traits@D@std@@@1@A
  008c3	e8 00 00 00 00	 call	 ??$?6U?$char_traits@D@std@@@std@@YAAEAV?$basic_ostream@DU?$char_traits@D@std@@@0@AEAV10@PEBD@Z ; std::operator<<<std::char_traits<char> >
  008c8	48 8d 15 00 00
	00 00		 lea	 rdx, OFFSET FLAT:??$endl@DU?$char_traits@D@std@@@std@@YAAEAV?$basic_ostream@DU?$char_traits@D@std@@@0@AEAV10@@Z ; std::endl<char,std::char_traits<char> >
  008cf	48 8b c8	 mov	 rcx, rax
  008d2	ff 15 00 00 00
	00		 call	 QWORD PTR __imp_??6?$basic_ostream@DU?$char_traits@D@std@@@std@@QEAAAEAV01@P6AAEAV01@AEAV01@@Z@Z
  008d8	90		 npad	 1
$LN39@main:

; 133  :     return 0;

  008d9	33 c0		 xor	 eax, eax
$LN1@main:

; 134  : }

  008db	48 8b f8	 mov	 rdi, rax
  008de	48 8d 4d e0	 lea	 rcx, QWORD PTR [rbp-32]
  008e2	48 8d 15 00 00
	00 00		 lea	 rdx, OFFSET FLAT:main$rtcFrameData
  008e9	e8 00 00 00 00	 call	 _RTC_CheckStackVars
  008ee	48 8b c7	 mov	 rax, rdi
  008f1	48 8b 8d c8 03
	00 00		 mov	 rcx, QWORD PTR __$ArrayPad$[rbp]
  008f8	48 33 cd	 xor	 rcx, rbp
  008fb	e8 00 00 00 00	 call	 __security_check_cookie
  00900	48 8d a5 d8 03
	00 00		 lea	 rsp, QWORD PTR [rbp+984]
  00907	5f		 pop	 rdi
  00908	5d		 pop	 rbp
  00909	c3		 ret	 0
main	ENDP
_TEXT	ENDS
; Function compile flags: /Odtp /RTCsu /ZI
;	COMDAT text$x
text$x	SEGMENT
day$ = 4
month$ = 36
year$ = 68
date$ = 100
birthdate$ = 132
birthDay$ = 164
birthdayMonth$ = 196
daysRemaining$ = 228
count$ = 260
year1$ = 292
i$8 = 324
dayOfYearInput$ = 356
resultDay$ = 388
resultMonth$ = 420
$T9 = 840
$T10 = 904
tv81 = 948
tv147 = 948
tv215 = 948
tv227 = 948
tv84 = 952
tv387 = 952
tv388 = 952
tv80 = 956
tv384 = 960
tv386 = 960
__$ArrayPad$ = 968
main$dtor$0 PROC
  00000	48 89 4c 24 08	 mov	 QWORD PTR [rsp+8], rcx
  00005	48 89 54 24 10	 mov	 QWORD PTR [rsp+16], rdx
  0000a	55		 push	 rbp
  0000b	57		 push	 rdi
  0000c	48 83 ec 28	 sub	 rsp, 40			; 00000028H
  00010	48 8d 6a 20	 lea	 rbp, QWORD PTR [rdx+32]
  00014	48 8d 8d 48 03
	00 00		 lea	 rcx, QWORD PTR $T9[rbp]
  0001b	e8 00 00 00 00	 call	 ??1?$basic_string@DU?$char_traits@D@std@@V?$allocator@D@2@@std@@QEAA@XZ ; std::basic_string<char,std::char_traits<char>,std::allocator<char> >::~basic_string<char,std::char_traits<char>,std::allocator<char> >
  00020	48 83 c4 28	 add	 rsp, 40			; 00000028H
  00024	5f		 pop	 rdi
  00025	5d		 pop	 rbp
  00026	c3		 ret	 0
main$dtor$0 ENDP
text$x	ENDS
; Function compile flags: /Odtp /RTCsu /ZI
;	COMDAT text$x
text$x	SEGMENT
day$ = 4
month$ = 36
year$ = 68
date$ = 100
birthdate$ = 132
birthDay$ = 164
birthdayMonth$ = 196
daysRemaining$ = 228
count$ = 260
year1$ = 292
i$8 = 324
dayOfYearInput$ = 356
resultDay$ = 388
resultMonth$ = 420
$T9 = 840
$T10 = 904
tv81 = 948
tv147 = 948
tv215 = 948
tv227 = 948
tv84 = 952
tv387 = 952
tv388 = 952
tv80 = 956
tv384 = 960
tv386 = 960
__$ArrayPad$ = 968
main$dtor$1 PROC
  00000	48 89 4c 24 08	 mov	 QWORD PTR [rsp+8], rcx
  00005	48 89 54 24 10	 mov	 QWORD PTR [rsp+16], rdx
  0000a	55		 push	 rbp
  0000b	57		 push	 rdi
  0000c	48 83 ec 28	 sub	 rsp, 40			; 00000028H
  00010	48 8d 6a 20	 lea	 rbp, QWORD PTR [rdx+32]
  00014	48 8d 8d 88 03
	00 00		 lea	 rcx, QWORD PTR $T10[rbp]
  0001b	e8 00 00 00 00	 call	 ??1?$basic_string@DU?$char_traits@D@std@@V?$allocator@D@2@@std@@QEAA@XZ ; std::basic_string<char,std::char_traits<char>,std::allocator<char> >::~basic_string<char,std::char_traits<char>,std::allocator<char> >
  00020	48 83 c4 28	 add	 rsp, 40			; 00000028H
  00024	5f		 pop	 rdi
  00025	5d		 pop	 rbp
  00026	c3		 ret	 0
main$dtor$1 ENDP
text$x	ENDS
; Function compile flags: /Odtp /RTCsu /ZI
; File C:\\KPO\Calendar\laba01\laba01.cpp
;	COMDAT ?getDateFromDayOfYear@@YAXHHAEAH0@Z
_TEXT	SEGMENT
daysInMonth$ = 8
dayOfYear$ = 304
year$ = 312
day$ = 320
month$ = 328
?getDateFromDayOfYear@@YAXHHAEAH0@Z PROC		; getDateFromDayOfYear, COMDAT

; 16   : void getDateFromDayOfYear(int dayOfYear, int year, int& day, int& month) {

$LN6:
  00000	4c 89 4c 24 20	 mov	 QWORD PTR [rsp+32], r9
  00005	4c 89 44 24 18	 mov	 QWORD PTR [rsp+24], r8
  0000a	89 54 24 10	 mov	 DWORD PTR [rsp+16], edx
  0000e	89 4c 24 08	 mov	 DWORD PTR [rsp+8], ecx
  00012	55		 push	 rbp
  00013	57		 push	 rdi
  00014	48 81 ec 38 01
	00 00		 sub	 rsp, 312		; 00000138H
  0001b	48 8d 6c 24 20	 lea	 rbp, QWORD PTR [rsp+32]
  00020	48 8d 7c 24 20	 lea	 rdi, QWORD PTR [rsp+32]
  00025	b9 16 00 00 00	 mov	 ecx, 22
  0002a	b8 cc cc cc cc	 mov	 eax, -858993460		; ccccccccH
  0002f	f3 ab		 rep stosd
  00031	8b 8c 24 58 01
	00 00		 mov	 ecx, DWORD PTR [rsp+344]
  00038	48 8d 0d 00 00
	00 00		 lea	 rcx, OFFSET FLAT:__F068050D_laba01@cpp
  0003f	e8 00 00 00 00	 call	 __CheckForDebuggerJustMyCode
  00044	90		 npad	 1

; 17   :     int daysInMonth[] = { 31, 28, 31, 30, 31, 30, 31, 31, 30, 31, 30, 31 };

  00045	c7 45 08 1f 00
	00 00		 mov	 DWORD PTR daysInMonth$[rbp], 31
  0004c	c7 45 0c 1c 00
	00 00		 mov	 DWORD PTR daysInMonth$[rbp+4], 28
  00053	c7 45 10 1f 00
	00 00		 mov	 DWORD PTR daysInMonth$[rbp+8], 31
  0005a	c7 45 14 1e 00
	00 00		 mov	 DWORD PTR daysInMonth$[rbp+12], 30
  00061	c7 45 18 1f 00
	00 00		 mov	 DWORD PTR daysInMonth$[rbp+16], 31
  00068	c7 45 1c 1e 00
	00 00		 mov	 DWORD PTR daysInMonth$[rbp+20], 30
  0006f	c7 45 20 1f 00
	00 00		 mov	 DWORD PTR daysInMonth$[rbp+24], 31
  00076	c7 45 24 1f 00
	00 00		 mov	 DWORD PTR daysInMonth$[rbp+28], 31
  0007d	c7 45 28 1e 00
	00 00		 mov	 DWORD PTR daysInMonth$[rbp+32], 30
  00084	c7 45 2c 1f 00
	00 00		 mov	 DWORD PTR daysInMonth$[rbp+36], 31
  0008b	c7 45 30 1e 00
	00 00		 mov	 DWORD PTR daysInMonth$[rbp+40], 30
  00092	c7 45 34 1f 00
	00 00		 mov	 DWORD PTR daysInMonth$[rbp+44], 31

; 18   :     if (isLeapYear(year)) {

  00099	8b 8d 38 01 00
	00		 mov	 ecx, DWORD PTR year$[rbp]
  0009f	e8 00 00 00 00	 call	 ?isLeapYear@@YA_NH@Z	; isLeapYear
  000a4	0f b6 c0	 movzx	 eax, al
  000a7	85 c0		 test	 eax, eax
  000a9	74 11		 je	 SHORT $LN4@getDateFro

; 19   :         daysInMonth[1] = 29;

  000ab	b8 04 00 00 00	 mov	 eax, 4
  000b0	48 6b c0 01	 imul	 rax, rax, 1
  000b4	c7 44 05 08 1d
	00 00 00	 mov	 DWORD PTR daysInMonth$[rbp+rax], 29
$LN4@getDateFro:

; 20   :     }
; 21   :     month = 1;

  000bc	48 8b 85 48 01
	00 00		 mov	 rax, QWORD PTR month$[rbp]
  000c3	c7 00 01 00 00
	00		 mov	 DWORD PTR [rax], 1
$LN2@getDateFro:

; 22   :     while (dayOfYear > daysInMonth[month - 1]) {

  000c9	48 8b 85 48 01
	00 00		 mov	 rax, QWORD PTR month$[rbp]
  000d0	8b 00		 mov	 eax, DWORD PTR [rax]
  000d2	ff c8		 dec	 eax
  000d4	48 98		 cdqe
  000d6	8b 44 85 08	 mov	 eax, DWORD PTR daysInMonth$[rbp+rax*4]
  000da	39 85 30 01 00
	00		 cmp	 DWORD PTR dayOfYear$[rbp], eax
  000e0	7e 37		 jle	 SHORT $LN3@getDateFro

; 23   :         dayOfYear -= daysInMonth[month - 1];

  000e2	48 8b 85 48 01
	00 00		 mov	 rax, QWORD PTR month$[rbp]
  000e9	8b 00		 mov	 eax, DWORD PTR [rax]
  000eb	ff c8		 dec	 eax
  000ed	48 98		 cdqe
  000ef	8b 44 85 08	 mov	 eax, DWORD PTR daysInMonth$[rbp+rax*4]
  000f3	8b 8d 30 01 00
	00		 mov	 ecx, DWORD PTR dayOfYear$[rbp]
  000f9	2b c8		 sub	 ecx, eax
  000fb	8b c1		 mov	 eax, ecx
  000fd	89 85 30 01 00
	00		 mov	 DWORD PTR dayOfYear$[rbp], eax

; 24   :         month++;

  00103	48 8b 85 48 01
	00 00		 mov	 rax, QWORD PTR month$[rbp]
  0010a	8b 00		 mov	 eax, DWORD PTR [rax]
  0010c	ff c0		 inc	 eax
  0010e	48 8b 8d 48 01
	00 00		 mov	 rcx, QWORD PTR month$[rbp]
  00115	89 01		 mov	 DWORD PTR [rcx], eax

; 25   :     }

  00117	eb b0		 jmp	 SHORT $LN2@getDateFro
$LN3@getDateFro:

; 26   :     day = dayOfYear;

  00119	48 8b 85 40 01
	00 00		 mov	 rax, QWORD PTR day$[rbp]
  00120	8b 8d 30 01 00
	00		 mov	 ecx, DWORD PTR dayOfYear$[rbp]
  00126	89 08		 mov	 DWORD PTR [rax], ecx

; 27   : }

  00128	48 8d 4d e0	 lea	 rcx, QWORD PTR [rbp-32]
  0012c	48 8d 15 00 00
	00 00		 lea	 rdx, OFFSET FLAT:?getDateFromDayOfYear@@YAXHHAEAH0@Z$rtcFrameData
  00133	e8 00 00 00 00	 call	 _RTC_CheckStackVars
  00138	48 8d a5 18 01
	00 00		 lea	 rsp, QWORD PTR [rbp+280]
  0013f	5f		 pop	 rdi
  00140	5d		 pop	 rbp
  00141	c3		 ret	 0
?getDateFromDayOfYear@@YAXHHAEAH0@Z ENDP		; getDateFromDayOfYear
_TEXT	ENDS
; Function compile flags: /Odtp /RTCsu /ZI
; File C:\\KPO\Calendar\laba01\laba01.cpp
;	COMDAT ?getMonthName@@YA?AV?$basic_string@DU?$char_traits@D@std@@V?$allocator@D@2@@std@@H@Z
_TEXT	SEGMENT
months$ = 16
$T4 = 900
__$ArrayPad$ = 920
__$ReturnUdt$ = 960
month$ = 968
?getMonthName@@YA?AV?$basic_string@DU?$char_traits@D@std@@V?$allocator@D@2@@std@@H@Z PROC ; getMonthName, COMDAT

; 7    : string getMonthName(int month) {

$LN19:
  00000	89 54 24 10	 mov	 DWORD PTR [rsp+16], edx
  00004	48 89 4c 24 08	 mov	 QWORD PTR [rsp+8], rcx
  00009	55		 push	 rbp
  0000a	57		 push	 rdi
  0000b	48 81 ec c8 03
	00 00		 sub	 rsp, 968		; 000003c8H
  00012	48 8d 6c 24 20	 lea	 rbp, QWORD PTR [rsp+32]
  00017	48 8d 7c 24 20	 lea	 rdi, QWORD PTR [rsp+32]
  0001c	b9 8a 00 00 00	 mov	 ecx, 138		; 0000008aH
  00021	b8 cc cc cc cc	 mov	 eax, -858993460		; ccccccccH
  00026	f3 ab		 rep stosd
  00028	48 8b 8c 24 e8
	03 00 00	 mov	 rcx, QWORD PTR [rsp+1000]
  00030	48 8b 05 00 00
	00 00		 mov	 rax, QWORD PTR __security_cookie
  00037	48 33 c5	 xor	 rax, rbp
  0003a	48 89 85 98 03
	00 00		 mov	 QWORD PTR __$ArrayPad$[rbp], rax
  00041	c7 85 84 03 00
	00 00 00 00 00	 mov	 DWORD PTR $T4[rbp], 0
  0004b	48 8d 0d 00 00
	00 00		 lea	 rcx, OFFSET FLAT:__F068050D_laba01@cpp
  00052	e8 00 00 00 00	 call	 __CheckForDebuggerJustMyCode
  00057	90		 npad	 1

; 8    :     string months[] = { "", "", "", "", "", "",

  00058	48 8d 15 00 00
	00 00		 lea	 rdx, OFFSET FLAT:??_C@_06BMGEFDJH@?$NP?m?b?$OA?p?$PM@
  0005f	48 8d 4d 10	 lea	 rcx, QWORD PTR months$[rbp]
  00063	e8 00 00 00 00	 call	 ??0?$basic_string@DU?$char_traits@D@std@@V?$allocator@D@2@@std@@QEAA@QEBD@Z ; std::basic_string<char,std::char_traits<char>,std::allocator<char> >::basic_string<char,std::char_traits<char>,std::allocator<char> >
  00068	90		 npad	 1
  00069	48 8d 15 00 00
	00 00		 lea	 rdx, OFFSET FLAT:??_C@_07JBGLOLNM@?T?e?b?p?$OA?k?$PM@
  00070	48 8d 4d 38	 lea	 rcx, QWORD PTR months$[rbp+40]
  00074	e8 00 00 00 00	 call	 ??0?$basic_string@DU?$char_traits@D@std@@V?$allocator@D@2@@std@@QEAA@QEBD@Z ; std::basic_string<char,std::char_traits<char>,std::allocator<char> >::basic_string<char,std::char_traits<char>,std::allocator<char> >
  00079	90		 npad	 1
  0007a	48 8d 15 00 00
	00 00		 lea	 rdx, OFFSET FLAT:??_C@_04FAAJLMOP@?L?$OA?p?r@
  00081	48 8d 4d 60	 lea	 rcx, QWORD PTR months$[rbp+80]
  00085	e8 00 00 00 00	 call	 ??0?$basic_string@DU?$char_traits@D@std@@V?$allocator@D@2@@std@@QEAA@QEBD@Z ; std::basic_string<char,std::char_traits<char>,std::allocator<char> >::basic_string<char,std::char_traits<char>,std::allocator<char> >
  0008a	90		 npad	 1
  0008b	48 8d 15 00 00
	00 00		 lea	 rdx, OFFSET FLAT:??_C@_06PNLHGGPK@?$MA?o?p?e?k?$PM@
  00092	48 8d 8d 88 00
	00 00		 lea	 rcx, QWORD PTR months$[rbp+120]
  00099	e8 00 00 00 00	 call	 ??0?$basic_string@DU?$char_traits@D@std@@V?$allocator@D@2@@std@@QEAA@QEBD@Z ; std::basic_string<char,std::char_traits<char>,std::allocator<char> >::basic_string<char,std::char_traits<char>,std::allocator<char> >
  0009e	90		 npad	 1
  0009f	48 8d 15 00 00
	00 00		 lea	 rdx, OFFSET FLAT:??_C@_03MEHOOJFI@?L?$OA?i@
  000a6	48 8d 8d b0 00
	00 00		 lea	 rcx, QWORD PTR months$[rbp+160]
  000ad	e8 00 00 00 00	 call	 ??0?$basic_string@DU?$char_traits@D@std@@V?$allocator@D@2@@std@@QEAA@QEBD@Z ; std::basic_string<char,std::char_traits<char>,std::allocator<char> >::basic_string<char,std::char_traits<char>,std::allocator<char> >
  000b2	90		 npad	 1
  000b3	48 8d 15 00 00
	00 00		 lea	 rdx, OFFSET FLAT:??_C@_04JPDCCHCO@?H?$PO?m?$PM@
  000ba	48 8d 8d d8 00
	00 00		 lea	 rcx, QWORD PTR months$[rbp+200]
  000c1	e8 00 00 00 00	 call	 ??0?$basic_string@DU?$char_traits@D@std@@V?$allocator@D@2@@std@@QEAA@QEBD@Z ; std::basic_string<char,std::char_traits<char>,std::allocator<char> >::basic_string<char,std::char_traits<char>,std::allocator<char> >
  000c6	90		 npad	 1

; 9    :                        "", "", "", "", "", "" };

  000c7	48 8d 15 00 00
	00 00		 lea	 rdx, OFFSET FLAT:??_C@_04JLLPFLJM@?H?$PO?k?$PM@
  000ce	48 8d 8d 00 01
	00 00		 lea	 rcx, QWORD PTR months$[rbp+240]
  000d5	e8 00 00 00 00	 call	 ??0?$basic_string@DU?$char_traits@D@std@@V?$allocator@D@2@@std@@QEAA@QEBD@Z ; std::basic_string<char,std::char_traits<char>,std::allocator<char> >::basic_string<char,std::char_traits<char>,std::allocator<char> >
  000da	90		 npad	 1
  000db	48 8d 15 00 00
	00 00		 lea	 rdx, OFFSET FLAT:??_C@_06JMCJJLBN@?$MA?b?c?s?q?r@
  000e2	48 8d 8d 28 01
	00 00		 lea	 rcx, QWORD PTR months$[rbp+280]
  000e9	e8 00 00 00 00	 call	 ??0?$basic_string@DU?$char_traits@D@std@@V?$allocator@D@2@@std@@QEAA@QEBD@Z ; std::basic_string<char,std::char_traits<char>,std::allocator<char> >::basic_string<char,std::char_traits<char>,std::allocator<char> >
  000ee	90		 npad	 1
  000ef	48 8d 15 00 00
	00 00		 lea	 rdx, OFFSET FLAT:??_C@_08ECPNNGFL@?Q?e?m?r?$PP?a?p?$PM@
  000f6	48 8d 8d 50 01
	00 00		 lea	 rcx, QWORD PTR months$[rbp+320]
  000fd	e8 00 00 00 00	 call	 ??0?$basic_string@DU?$char_traits@D@std@@V?$allocator@D@2@@std@@QEAA@QEBD@Z ; std::basic_string<char,std::char_traits<char>,std::allocator<char> >::basic_string<char,std::char_traits<char>,std::allocator<char> >
  00102	90		 npad	 1
  00103	48 8d 15 00 00
	00 00		 lea	 rdx, OFFSET FLAT:??_C@_07KDBBAIGI@?N?j?r?$PP?a?p?$PM@
  0010a	48 8d 8d 78 01
	00 00		 lea	 rcx, QWORD PTR months$[rbp+360]
  00111	e8 00 00 00 00	 call	 ??0?$basic_string@DU?$char_traits@D@std@@V?$allocator@D@2@@std@@QEAA@QEBD@Z ; std::basic_string<char,std::char_traits<char>,std::allocator<char> >::basic_string<char,std::char_traits<char>,std::allocator<char> >
  00116	90		 npad	 1
  00117	48 8d 15 00 00
	00 00		 lea	 rdx, OFFSET FLAT:??_C@_06EKHNJIII@?M?n?$PP?a?p?$PM@
  0011e	48 8d 8d a0 01
	00 00		 lea	 rcx, QWORD PTR months$[rbp+400]
  00125	e8 00 00 00 00	 call	 ??0?$basic_string@DU?$char_traits@D@std@@V?$allocator@D@2@@std@@QEAA@QEBD@Z ; std::basic_string<char,std::char_traits<char>,std::allocator<char> >::basic_string<char,std::char_traits<char>,std::allocator<char> >
  0012a	90		 npad	 1
  0012b	48 8d 15 00 00
	00 00		 lea	 rdx, OFFSET FLAT:??_C@_07MJKMOEOM@?D?e?j?$OA?a?p?$PM@
  00132	48 8d 8d c8 01
	00 00		 lea	 rcx, QWORD PTR months$[rbp+440]
  00139	e8 00 00 00 00	 call	 ??0?$basic_string@DU?$char_traits@D@std@@V?$allocator@D@2@@std@@QEAA@QEBD@Z ; std::basic_string<char,std::char_traits<char>,std::allocator<char> >::basic_string<char,std::char_traits<char>,std::allocator<char> >
  0013e	90		 npad	 1

; 10   :     if (month >= 1 && month <= 12) {

  0013f	83 bd c8 03 00
	00 01		 cmp	 DWORD PTR month$[rbp], 1
  00146	7c 5f		 jl	 SHORT $LN2@getMonthNa
  00148	83 bd c8 03 00
	00 0c		 cmp	 DWORD PTR month$[rbp], 12
  0014f	7f 56		 jg	 SHORT $LN2@getMonthNa

; 11   :         return months[month - 1];

  00151	8b 85 c8 03 00
	00		 mov	 eax, DWORD PTR month$[rbp]
  00157	ff c8		 dec	 eax
  00159	48 98		 cdqe
  0015b	48 6b c0 28	 imul	 rax, rax, 40		; 00000028H
  0015f	48 8d 44 05 10	 lea	 rax, QWORD PTR months$[rbp+rax]
  00164	48 8b d0	 mov	 rdx, rax
  00167	48 8b 8d c0 03
	00 00		 mov	 rcx, QWORD PTR __$ReturnUdt$[rbp]
  0016e	e8 00 00 00 00	 call	 ??0?$basic_string@DU?$char_traits@D@std@@V?$allocator@D@2@@std@@QEAA@AEBV01@@Z ; std::basic_string<char,std::char_traits<char>,std::allocator<char> >::basic_string<char,std::char_traits<char>,std::allocator<char> >
  00173	8b 85 84 03 00
	00		 mov	 eax, DWORD PTR $T4[rbp]
  00179	83 c8 01	 or	 eax, 1
  0017c	89 85 84 03 00
	00		 mov	 DWORD PTR $T4[rbp], eax
  00182	4c 8d 0d 00 00
	00 00		 lea	 r9, OFFSET FLAT:??1?$basic_string@DU?$char_traits@D@std@@V?$allocator@D@2@@std@@QEAA@XZ ; std::basic_string<char,std::char_traits<char>,std::allocator<char> >::~basic_string<char,std::char_traits<char>,std::allocator<char> >
  00189	41 b8 0c 00 00
	00		 mov	 r8d, 12
  0018f	ba 28 00 00 00	 mov	 edx, 40			; 00000028H
  00194	48 8d 4d 10	 lea	 rcx, QWORD PTR months$[rbp]
  00198	e8 00 00 00 00	 call	 ??_M@YAXPEAX_K1P6AX0@Z@Z
  0019d	90		 npad	 1
  0019e	48 8b 85 c0 03
	00 00		 mov	 rax, QWORD PTR __$ReturnUdt$[rbp]
  001a5	eb 45		 jmp	 SHORT $LN1@getMonthNa
$LN2@getMonthNa:

; 12   :     }
; 13   :     return " ";

  001a7	48 8d 15 00 00
	00 00		 lea	 rdx, OFFSET FLAT:??_C@_0P@IKOIBOPA@?M?e?b?e?p?m?$PL?i?5?l?e?q?$PP?v@
  001ae	48 8b 8d c0 03
	00 00		 mov	 rcx, QWORD PTR __$ReturnUdt$[rbp]
  001b5	e8 00 00 00 00	 call	 ??0?$basic_string@DU?$char_traits@D@std@@V?$allocator@D@2@@std@@QEAA@QEBD@Z ; std::basic_string<char,std::char_traits<char>,std::allocator<char> >::basic_string<char,std::char_traits<char>,std::allocator<char> >
  001ba	8b 85 84 03 00
	00		 mov	 eax, DWORD PTR $T4[rbp]
  001c0	83 c8 01	 or	 eax, 1
  001c3	89 85 84 03 00
	00		 mov	 DWORD PTR $T4[rbp], eax
  001c9	4c 8d 0d 00 00
	00 00		 lea	 r9, OFFSET FLAT:??1?$basic_string@DU?$char_traits@D@std@@V?$allocator@D@2@@std@@QEAA@XZ ; std::basic_string<char,std::char_traits<char>,std::allocator<char> >::~basic_string<char,std::char_traits<char>,std::allocator<char> >
  001d0	41 b8 0c 00 00
	00		 mov	 r8d, 12
  001d6	ba 28 00 00 00	 mov	 edx, 40			; 00000028H
  001db	48 8d 4d 10	 lea	 rcx, QWORD PTR months$[rbp]
  001df	e8 00 00 00 00	 call	 ??_M@YAXPEAX_K1P6AX0@Z@Z
  001e4	90		 npad	 1
  001e5	48 8b 85 c0 03
	00 00		 mov	 rax, QWORD PTR __$ReturnUdt$[rbp]
$LN1@getMonthNa:

; 14   : }

  001ec	48 8b f8	 mov	 rdi, rax
  001ef	48 8d 4d e0	 lea	 rcx, QWORD PTR [rbp-32]
  001f3	48 8d 15 00 00
	00 00		 lea	 rdx, OFFSET FLAT:?getMonthName@@YA?AV?$basic_string@DU?$char_traits@D@std@@V?$allocator@D@2@@std@@H@Z$rtcFrameData
  001fa	e8 00 00 00 00	 call	 _RTC_CheckStackVars
  001ff	48 8b c7	 mov	 rax, rdi
  00202	48 8b 8d 98 03
	00 00		 mov	 rcx, QWORD PTR __$ArrayPad$[rbp]
  00209	48 33 cd	 xor	 rcx, rbp
  0020c	e8 00 00 00 00	 call	 __security_check_cookie
  00211	48 8d a5 a8 03
	00 00		 lea	 rsp, QWORD PTR [rbp+936]
  00218	5f		 pop	 rdi
  00219	5d		 pop	 rbp
  0021a	c3		 ret	 0
  0021b	cc		 int	 3
?getMonthName@@YA?AV?$basic_string@DU?$char_traits@D@std@@V?$allocator@D@2@@std@@H@Z ENDP ; getMonthName
_TEXT	ENDS
; Function compile flags: /Odtp /RTCsu /ZI
;	COMDAT text$x
text$x	SEGMENT
months$ = 16
$T4 = 900
__$ArrayPad$ = 920
__$ReturnUdt$ = 960
month$ = 968
?dtor$0@?0??getMonthName@@YA?AV?$basic_string@DU?$char_traits@D@std@@V?$allocator@D@2@@std@@H@Z@4HA PROC ; `getMonthName'::`1'::dtor$0
  00000	48 89 4c 24 08	 mov	 QWORD PTR [rsp+8], rcx
  00005	48 89 54 24 10	 mov	 QWORD PTR [rsp+16], rdx
  0000a	55		 push	 rbp
  0000b	57		 push	 rdi
  0000c	48 83 ec 28	 sub	 rsp, 40			; 00000028H
  00010	48 8d 6a 20	 lea	 rbp, QWORD PTR [rdx+32]
  00014	48 8d 4d 10	 lea	 rcx, QWORD PTR months$[rbp]
  00018	e8 00 00 00 00	 call	 ??1?$basic_string@DU?$char_traits@D@std@@V?$allocator@D@2@@std@@QEAA@XZ ; std::basic_string<char,std::char_traits<char>,std::allocator<char> >::~basic_string<char,std::char_traits<char>,std::allocator<char> >
  0001d	48 83 c4 28	 add	 rsp, 40			; 00000028H
  00021	5f		 pop	 rdi
  00022	5d		 pop	 rbp
  00023	c3		 ret	 0
?dtor$0@?0??getMonthName@@YA?AV?$basic_string@DU?$char_traits@D@std@@V?$allocator@D@2@@std@@H@Z@4HA ENDP ; `getMonthName'::`1'::dtor$0
text$x	ENDS
; Function compile flags: /Odtp /RTCsu /ZI
;	COMDAT text$x
text$x	SEGMENT
months$ = 16
$T4 = 900
__$ArrayPad$ = 920
__$ReturnUdt$ = 960
month$ = 968
?dtor$1@?0??getMonthName@@YA?AV?$basic_string@DU?$char_traits@D@std@@V?$allocator@D@2@@std@@H@Z@4HA PROC ; `getMonthName'::`1'::dtor$1
  00000	48 89 4c 24 08	 mov	 QWORD PTR [rsp+8], rcx
  00005	48 89 54 24 10	 mov	 QWORD PTR [rsp+16], rdx
  0000a	55		 push	 rbp
  0000b	57		 push	 rdi
  0000c	48 83 ec 28	 sub	 rsp, 40			; 00000028H
  00010	48 8d 6a 20	 lea	 rbp, QWORD PTR [rdx+32]
  00014	48 8d 4d 38	 lea	 rcx, QWORD PTR months$[rbp+40]
  00018	e8 00 00 00 00	 call	 ??1?$basic_string@DU?$char_traits@D@std@@V?$allocator@D@2@@std@@QEAA@XZ ; std::basic_string<char,std::char_traits<char>,std::allocator<char> >::~basic_string<char,std::char_traits<char>,std::allocator<char> >
  0001d	48 83 c4 28	 add	 rsp, 40			; 00000028H
  00021	5f		 pop	 rdi
  00022	5d		 pop	 rbp
  00023	c3		 ret	 0
?dtor$1@?0??getMonthName@@YA?AV?$basic_string@DU?$char_traits@D@std@@V?$allocator@D@2@@std@@H@Z@4HA ENDP ; `getMonthName'::`1'::dtor$1
text$x	ENDS
; Function compile flags: /Odtp /RTCsu /ZI
;	COMDAT text$x
text$x	SEGMENT
months$ = 16
$T4 = 900
__$ArrayPad$ = 920
__$ReturnUdt$ = 960
month$ = 968
?dtor$2@?0??getMonthName@@YA?AV?$basic_string@DU?$char_traits@D@std@@V?$allocator@D@2@@std@@H@Z@4HA PROC ; `getMonthName'::`1'::dtor$2
  00000	48 89 4c 24 08	 mov	 QWORD PTR [rsp+8], rcx
  00005	48 89 54 24 10	 mov	 QWORD PTR [rsp+16], rdx
  0000a	55		 push	 rbp
  0000b	57		 push	 rdi
  0000c	48 83 ec 28	 sub	 rsp, 40			; 00000028H
  00010	48 8d 6a 20	 lea	 rbp, QWORD PTR [rdx+32]
  00014	48 8d 4d 60	 lea	 rcx, QWORD PTR months$[rbp+80]
  00018	e8 00 00 00 00	 call	 ??1?$basic_string@DU?$char_traits@D@std@@V?$allocator@D@2@@std@@QEAA@XZ ; std::basic_string<char,std::char_traits<char>,std::allocator<char> >::~basic_string<char,std::char_traits<char>,std::allocator<char> >
  0001d	48 83 c4 28	 add	 rsp, 40			; 00000028H
  00021	5f		 pop	 rdi
  00022	5d		 pop	 rbp
  00023	c3		 ret	 0
?dtor$2@?0??getMonthName@@YA?AV?$basic_string@DU?$char_traits@D@std@@V?$allocator@D@2@@std@@H@Z@4HA ENDP ; `getMonthName'::`1'::dtor$2
text$x	ENDS
; Function compile flags: /Odtp /RTCsu /ZI
;	COMDAT text$x
text$x	SEGMENT
months$ = 16
$T4 = 900
__$ArrayPad$ = 920
__$ReturnUdt$ = 960
month$ = 968
?dtor$3@?0??getMonthName@@YA?AV?$basic_string@DU?$char_traits@D@std@@V?$allocator@D@2@@std@@H@Z@4HA PROC ; `getMonthName'::`1'::dtor$3
  00000	48 89 4c 24 08	 mov	 QWORD PTR [rsp+8], rcx
  00005	48 89 54 24 10	 mov	 QWORD PTR [rsp+16], rdx
  0000a	55		 push	 rbp
  0000b	57		 push	 rdi
  0000c	48 83 ec 28	 sub	 rsp, 40			; 00000028H
  00010	48 8d 6a 20	 lea	 rbp, QWORD PTR [rdx+32]
  00014	48 8d 8d 88 00
	00 00		 lea	 rcx, QWORD PTR months$[rbp+120]
  0001b	e8 00 00 00 00	 call	 ??1?$basic_string@DU?$char_traits@D@std@@V?$allocator@D@2@@std@@QEAA@XZ ; std::basic_string<char,std::char_traits<char>,std::allocator<char> >::~basic_string<char,std::char_traits<char>,std::allocator<char> >
  00020	48 83 c4 28	 add	 rsp, 40			; 00000028H
  00024	5f		 pop	 rdi
  00025	5d		 pop	 rbp
  00026	c3		 ret	 0
?dtor$3@?0??getMonthName@@YA?AV?$basic_string@DU?$char_traits@D@std@@V?$allocator@D@2@@std@@H@Z@4HA ENDP ; `getMonthName'::`1'::dtor$3
text$x	ENDS
; Function compile flags: /Odtp /RTCsu /ZI
;	COMDAT text$x
text$x	SEGMENT
months$ = 16
$T4 = 900
__$ArrayPad$ = 920
__$ReturnUdt$ = 960
month$ = 968
?dtor$4@?0??getMonthName@@YA?AV?$basic_string@DU?$char_traits@D@std@@V?$allocator@D@2@@std@@H@Z@4HA PROC ; `getMonthName'::`1'::dtor$4
  00000	48 89 4c 24 08	 mov	 QWORD PTR [rsp+8], rcx
  00005	48 89 54 24 10	 mov	 QWORD PTR [rsp+16], rdx
  0000a	55		 push	 rbp
  0000b	57		 push	 rdi
  0000c	48 83 ec 28	 sub	 rsp, 40			; 00000028H
  00010	48 8d 6a 20	 lea	 rbp, QWORD PTR [rdx+32]
  00014	48 8d 8d b0 00
	00 00		 lea	 rcx, QWORD PTR months$[rbp+160]
  0001b	e8 00 00 00 00	 call	 ??1?$basic_string@DU?$char_traits@D@std@@V?$allocator@D@2@@std@@QEAA@XZ ; std::basic_string<char,std::char_traits<char>,std::allocator<char> >::~basic_string<char,std::char_traits<char>,std::allocator<char> >
  00020	48 83 c4 28	 add	 rsp, 40			; 00000028H
  00024	5f		 pop	 rdi
  00025	5d		 pop	 rbp
  00026	c3		 ret	 0
?dtor$4@?0??getMonthName@@YA?AV?$basic_string@DU?$char_traits@D@std@@V?$allocator@D@2@@std@@H@Z@4HA ENDP ; `getMonthName'::`1'::dtor$4
text$x	ENDS
; Function compile flags: /Odtp /RTCsu /ZI
;	COMDAT text$x
text$x	SEGMENT
months$ = 16
$T4 = 900
__$ArrayPad$ = 920
__$ReturnUdt$ = 960
month$ = 968
?dtor$5@?0??getMonthName@@YA?AV?$basic_string@DU?$char_traits@D@std@@V?$allocator@D@2@@std@@H@Z@4HA PROC ; `getMonthName'::`1'::dtor$5
  00000	48 89 4c 24 08	 mov	 QWORD PTR [rsp+8], rcx
  00005	48 89 54 24 10	 mov	 QWORD PTR [rsp+16], rdx
  0000a	55		 push	 rbp
  0000b	57		 push	 rdi
  0000c	48 83 ec 28	 sub	 rsp, 40			; 00000028H
  00010	48 8d 6a 20	 lea	 rbp, QWORD PTR [rdx+32]
  00014	48 8d 8d d8 00
	00 00		 lea	 rcx, QWORD PTR months$[rbp+200]
  0001b	e8 00 00 00 00	 call	 ??1?$basic_string@DU?$char_traits@D@std@@V?$allocator@D@2@@std@@QEAA@XZ ; std::basic_string<char,std::char_traits<char>,std::allocator<char> >::~basic_string<char,std::char_traits<char>,std::allocator<char> >
  00020	48 83 c4 28	 add	 rsp, 40			; 00000028H
  00024	5f		 pop	 rdi
  00025	5d		 pop	 rbp
  00026	c3		 ret	 0
?dtor$5@?0??getMonthName@@YA?AV?$basic_string@DU?$char_traits@D@std@@V?$allocator@D@2@@std@@H@Z@4HA ENDP ; `getMonthName'::`1'::dtor$5
text$x	ENDS
; Function compile flags: /Odtp /RTCsu /ZI
;	COMDAT text$x
text$x	SEGMENT
months$ = 16
$T4 = 900
__$ArrayPad$ = 920
__$ReturnUdt$ = 960
month$ = 968
?dtor$6@?0??getMonthName@@YA?AV?$basic_string@DU?$char_traits@D@std@@V?$allocator@D@2@@std@@H@Z@4HA PROC ; `getMonthName'::`1'::dtor$6
  00000	48 89 4c 24 08	 mov	 QWORD PTR [rsp+8], rcx
  00005	48 89 54 24 10	 mov	 QWORD PTR [rsp+16], rdx
  0000a	55		 push	 rbp
  0000b	57		 push	 rdi
  0000c	48 83 ec 28	 sub	 rsp, 40			; 00000028H
  00010	48 8d 6a 20	 lea	 rbp, QWORD PTR [rdx+32]
  00014	48 8d 8d 00 01
	00 00		 lea	 rcx, QWORD PTR months$[rbp+240]
  0001b	e8 00 00 00 00	 call	 ??1?$basic_string@DU?$char_traits@D@std@@V?$allocator@D@2@@std@@QEAA@XZ ; std::basic_string<char,std::char_traits<char>,std::allocator<char> >::~basic_string<char,std::char_traits<char>,std::allocator<char> >
  00020	48 83 c4 28	 add	 rsp, 40			; 00000028H
  00024	5f		 pop	 rdi
  00025	5d		 pop	 rbp
  00026	c3		 ret	 0
?dtor$6@?0??getMonthName@@YA?AV?$basic_string@DU?$char_traits@D@std@@V?$allocator@D@2@@std@@H@Z@4HA ENDP ; `getMonthName'::`1'::dtor$6
text$x	ENDS
; Function compile flags: /Odtp /RTCsu /ZI
;	COMDAT text$x
text$x	SEGMENT
months$ = 16
$T4 = 900
__$ArrayPad$ = 920
__$ReturnUdt$ = 960
month$ = 968
?dtor$7@?0??getMonthName@@YA?AV?$basic_string@DU?$char_traits@D@std@@V?$allocator@D@2@@std@@H@Z@4HA PROC ; `getMonthName'::`1'::dtor$7
  00000	48 89 4c 24 08	 mov	 QWORD PTR [rsp+8], rcx
  00005	48 89 54 24 10	 mov	 QWORD PTR [rsp+16], rdx
  0000a	55		 push	 rbp
  0000b	57		 push	 rdi
  0000c	48 83 ec 28	 sub	 rsp, 40			; 00000028H
  00010	48 8d 6a 20	 lea	 rbp, QWORD PTR [rdx+32]
  00014	48 8d 8d 28 01
	00 00		 lea	 rcx, QWORD PTR months$[rbp+280]
  0001b	e8 00 00 00 00	 call	 ??1?$basic_string@DU?$char_traits@D@std@@V?$allocator@D@2@@std@@QEAA@XZ ; std::basic_string<char,std::char_traits<char>,std::allocator<char> >::~basic_string<char,std::char_traits<char>,std::allocator<char> >
  00020	48 83 c4 28	 add	 rsp, 40			; 00000028H
  00024	5f		 pop	 rdi
  00025	5d		 pop	 rbp
  00026	c3		 ret	 0
?dtor$7@?0??getMonthName@@YA?AV?$basic_string@DU?$char_traits@D@std@@V?$allocator@D@2@@std@@H@Z@4HA ENDP ; `getMonthName'::`1'::dtor$7
text$x	ENDS
; Function compile flags: /Odtp /RTCsu /ZI
;	COMDAT text$x
text$x	SEGMENT
months$ = 16
$T4 = 900
__$ArrayPad$ = 920
__$ReturnUdt$ = 960
month$ = 968
?dtor$8@?0??getMonthName@@YA?AV?$basic_string@DU?$char_traits@D@std@@V?$allocator@D@2@@std@@H@Z@4HA PROC ; `getMonthName'::`1'::dtor$8
  00000	48 89 4c 24 08	 mov	 QWORD PTR [rsp+8], rcx
  00005	48 89 54 24 10	 mov	 QWORD PTR [rsp+16], rdx
  0000a	55		 push	 rbp
  0000b	57		 push	 rdi
  0000c	48 83 ec 28	 sub	 rsp, 40			; 00000028H
  00010	48 8d 6a 20	 lea	 rbp, QWORD PTR [rdx+32]
  00014	48 8d 8d 50 01
	00 00		 lea	 rcx, QWORD PTR months$[rbp+320]
  0001b	e8 00 00 00 00	 call	 ??1?$basic_string@DU?$char_traits@D@std@@V?$allocator@D@2@@std@@QEAA@XZ ; std::basic_string<char,std::char_traits<char>,std::allocator<char> >::~basic_string<char,std::char_traits<char>,std::allocator<char> >
  00020	48 83 c4 28	 add	 rsp, 40			; 00000028H
  00024	5f		 pop	 rdi
  00025	5d		 pop	 rbp
  00026	c3		 ret	 0
?dtor$8@?0??getMonthName@@YA?AV?$basic_string@DU?$char_traits@D@std@@V?$allocator@D@2@@std@@H@Z@4HA ENDP ; `getMonthName'::`1'::dtor$8
text$x	ENDS
; Function compile flags: /Odtp /RTCsu /ZI
;	COMDAT text$x
text$x	SEGMENT
months$ = 16
$T4 = 900
__$ArrayPad$ = 920
__$ReturnUdt$ = 960
month$ = 968
?dtor$9@?0??getMonthName@@YA?AV?$basic_string@DU?$char_traits@D@std@@V?$allocator@D@2@@std@@H@Z@4HA PROC ; `getMonthName'::`1'::dtor$9
  00000	48 89 4c 24 08	 mov	 QWORD PTR [rsp+8], rcx
  00005	48 89 54 24 10	 mov	 QWORD PTR [rsp+16], rdx
  0000a	55		 push	 rbp
  0000b	57		 push	 rdi
  0000c	48 83 ec 28	 sub	 rsp, 40			; 00000028H
  00010	48 8d 6a 20	 lea	 rbp, QWORD PTR [rdx+32]
  00014	48 8d 8d 78 01
	00 00		 lea	 rcx, QWORD PTR months$[rbp+360]
  0001b	e8 00 00 00 00	 call	 ??1?$basic_string@DU?$char_traits@D@std@@V?$allocator@D@2@@std@@QEAA@XZ ; std::basic_string<char,std::char_traits<char>,std::allocator<char> >::~basic_string<char,std::char_traits<char>,std::allocator<char> >
  00020	48 83 c4 28	 add	 rsp, 40			; 00000028H
  00024	5f		 pop	 rdi
  00025	5d		 pop	 rbp
  00026	c3		 ret	 0
?dtor$9@?0??getMonthName@@YA?AV?$basic_string@DU?$char_traits@D@std@@V?$allocator@D@2@@std@@H@Z@4HA ENDP ; `getMonthName'::`1'::dtor$9
text$x	ENDS
; Function compile flags: /Odtp /RTCsu /ZI
;	COMDAT text$x
text$x	SEGMENT
months$ = 16
$T4 = 900
__$ArrayPad$ = 920
__$ReturnUdt$ = 960
month$ = 968
?dtor$10@?0??getMonthName@@YA?AV?$basic_string@DU?$char_traits@D@std@@V?$allocator@D@2@@std@@H@Z@4HA PROC ; `getMonthName'::`1'::dtor$10
  00000	48 89 4c 24 08	 mov	 QWORD PTR [rsp+8], rcx
  00005	48 89 54 24 10	 mov	 QWORD PTR [rsp+16], rdx
  0000a	55		 push	 rbp
  0000b	57		 push	 rdi
  0000c	48 83 ec 28	 sub	 rsp, 40			; 00000028H
  00010	48 8d 6a 20	 lea	 rbp, QWORD PTR [rdx+32]
  00014	48 8d 8d a0 01
	00 00		 lea	 rcx, QWORD PTR months$[rbp+400]
  0001b	e8 00 00 00 00	 call	 ??1?$basic_string@DU?$char_traits@D@std@@V?$allocator@D@2@@std@@QEAA@XZ ; std::basic_string<char,std::char_traits<char>,std::allocator<char> >::~basic_string<char,std::char_traits<char>,std::allocator<char> >
  00020	48 83 c4 28	 add	 rsp, 40			; 00000028H
  00024	5f		 pop	 rdi
  00025	5d		 pop	 rbp
  00026	c3		 ret	 0
?dtor$10@?0??getMonthName@@YA?AV?$basic_string@DU?$char_traits@D@std@@V?$allocator@D@2@@std@@H@Z@4HA ENDP ; `getMonthName'::`1'::dtor$10
text$x	ENDS
; Function compile flags: /Odtp /RTCsu /ZI
;	COMDAT text$x
text$x	SEGMENT
months$ = 16
$T4 = 900
__$ArrayPad$ = 920
__$ReturnUdt$ = 960
month$ = 968
?dtor$12@?0??getMonthName@@YA?AV?$basic_string@DU?$char_traits@D@std@@V?$allocator@D@2@@std@@H@Z@4HA PROC ; `getMonthName'::`1'::dtor$12
  00000	48 89 4c 24 08	 mov	 QWORD PTR [rsp+8], rcx
  00005	48 89 54 24 10	 mov	 QWORD PTR [rsp+16], rdx
  0000a	55		 push	 rbp
  0000b	57		 push	 rdi
  0000c	48 83 ec 28	 sub	 rsp, 40			; 00000028H
  00010	48 8d 6a 20	 lea	 rbp, QWORD PTR [rdx+32]
  00014	4c 8d 0d 00 00
	00 00		 lea	 r9, OFFSET FLAT:??1?$basic_string@DU?$char_traits@D@std@@V?$allocator@D@2@@std@@QEAA@XZ ; std::basic_string<char,std::char_traits<char>,std::allocator<char> >::~basic_string<char,std::char_traits<char>,std::allocator<char> >
  0001b	41 b8 0c 00 00
	00		 mov	 r8d, 12
  00021	ba 28 00 00 00	 mov	 edx, 40			; 00000028H
  00026	48 8d 4d 10	 lea	 rcx, QWORD PTR months$[rbp]
  0002a	e8 00 00 00 00	 call	 ??_M@YAXPEAX_K1P6AX0@Z@Z
  0002f	48 83 c4 28	 add	 rsp, 40			; 00000028H
  00033	5f		 pop	 rdi
  00034	5d		 pop	 rbp
  00035	c3		 ret	 0
?dtor$12@?0??getMonthName@@YA?AV?$basic_string@DU?$char_traits@D@std@@V?$allocator@D@2@@std@@H@Z@4HA ENDP ; `getMonthName'::`1'::dtor$12
text$x	ENDS
; Function compile flags: /Odtp /RTCsu /ZI
;	COMDAT text$x
text$x	SEGMENT
months$ = 16
$T4 = 900
__$ArrayPad$ = 920
__$ReturnUdt$ = 960
month$ = 968
?dtor$13@?0??getMonthName@@YA?AV?$basic_string@DU?$char_traits@D@std@@V?$allocator@D@2@@std@@H@Z@4HA PROC ; `getMonthName'::`1'::dtor$13
  00000	48 89 4c 24 08	 mov	 QWORD PTR [rsp+8], rcx
  00005	48 89 54 24 10	 mov	 QWORD PTR [rsp+16], rdx
  0000a	55		 push	 rbp
  0000b	57		 push	 rdi
  0000c	48 83 ec 28	 sub	 rsp, 40			; 00000028H
  00010	48 8d 6a 20	 lea	 rbp, QWORD PTR [rdx+32]
  00014	8b 85 84 03 00
	00		 mov	 eax, DWORD PTR $T4[rbp]
  0001a	83 e0 01	 and	 eax, 1
  0001d	85 c0		 test	 eax, eax
  0001f	74 13		 je	 SHORT $LN18@dtor$13
  00021	83 a5 84 03 00
	00 fe		 and	 DWORD PTR $T4[rbp], -2
  00028	48 8b 8d c0 03
	00 00		 mov	 rcx, QWORD PTR __$ReturnUdt$[rbp]
  0002f	e8 00 00 00 00	 call	 ??1?$basic_string@DU?$char_traits@D@std@@V?$allocator@D@2@@std@@QEAA@XZ ; std::basic_string<char,std::char_traits<char>,std::allocator<char> >::~basic_string<char,std::char_traits<char>,std::allocator<char> >
$LN18@dtor$13:
  00034	48 83 c4 28	 add	 rsp, 40			; 00000028H
  00038	5f		 pop	 rdi
  00039	5d		 pop	 rbp
  0003a	c3		 ret	 0
?dtor$13@?0??getMonthName@@YA?AV?$basic_string@DU?$char_traits@D@std@@V?$allocator@D@2@@std@@H@Z@4HA ENDP ; `getMonthName'::`1'::dtor$13
text$x	ENDS
; Function compile flags: /Odtp /RTCsu /ZI
; File C:\Program Files\Microsoft Visual Studio\2022\Community\VC\Tools\MSVC\14.42.34433\include\xloctime
;	COMDAT ??$_Getvals@_W@?$time_get@_WV?$istreambuf_iterator@_WU?$char_traits@_W@std@@@std@@@std@@IEAAX_WAEBV_Locinfo@1@@Z
_TEXT	SEGMENT
$T1 = 200
tv85 = 264
tv93 = 264
this$ = 304
__formal$ = 312
_Lobj$ = 320
??$_Getvals@_W@?$time_get@_WV?$istreambuf_iterator@_WU?$char_traits@_W@std@@@std@@@std@@IEAAX_WAEBV_Locinfo@1@@Z PROC ; std::time_get<wchar_t,std::istreambuf_iterator<wchar_t,std::char_traits<wchar_t> > >::_Getvals<wchar_t>, COMDAT

; 238  :     void __CLR_OR_THIS_CALL _Getvals(_Elem2, const _Locinfo& _Lobj) { // get values

$LN5:
  00000	4c 89 44 24 18	 mov	 QWORD PTR [rsp+24], r8
  00005	66 89 54 24 10	 mov	 WORD PTR [rsp+16], dx
  0000a	48 89 4c 24 08	 mov	 QWORD PTR [rsp+8], rcx
  0000f	55		 push	 rbp
  00010	56		 push	 rsi
  00011	57		 push	 rdi
  00012	48 81 ec 30 01
	00 00		 sub	 rsp, 304		; 00000130H
  00019	48 8d 6c 24 20	 lea	 rbp, QWORD PTR [rsp+32]
  0001e	48 8d 0d 00 00
	00 00		 lea	 rcx, OFFSET FLAT:__27C35076_xloctime
  00025	e8 00 00 00 00	 call	 __CheckForDebuggerJustMyCode
  0002a	90		 npad	 1

; 239  :         _Cvt = _Lobj._Getcvt();

  0002b	48 8d 95 c8 00
	00 00		 lea	 rdx, QWORD PTR $T1[rbp]
  00032	48 8b 8d 40 01
	00 00		 mov	 rcx, QWORD PTR _Lobj$[rbp]
  00039	ff 15 00 00 00
	00		 call	 QWORD PTR __imp_?_Getcvt@_Locinfo@std@@QEBA?AU_Cvtvec@@XZ
  0003f	48 8b 8d 30 01
	00 00		 mov	 rcx, QWORD PTR this$[rbp]
  00046	48 8d 79 2c	 lea	 rdi, QWORD PTR [rcx+44]
  0004a	48 8b f0	 mov	 rsi, rax
  0004d	b9 2c 00 00 00	 mov	 ecx, 44			; 0000002cH
  00052	f3 a4		 rep movsb

; 240  : 
; 241  :         if (is_same_v<_Elem2, wchar_t>) {

  00054	33 c0		 xor	 eax, eax
  00056	83 f8 01	 cmp	 eax, 1
  00059	74 5c		 je	 SHORT $LN2@Getvals

; 242  :             _Days = reinterpret_cast<const _Elem*>(_Maklocwcs(reinterpret_cast<const wchar_t*>(_Lobj._W_Getdays())));

  0005b	48 8b 8d 40 01
	00 00		 mov	 rcx, QWORD PTR _Lobj$[rbp]
  00062	ff 15 00 00 00
	00		 call	 QWORD PTR __imp_?_W_Getdays@_Locinfo@std@@QEBAPEBGXZ
  00068	48 8b c8	 mov	 rcx, rax
  0006b	e8 00 00 00 00	 call	 ?_Maklocwcs@std@@YAPEA_WPEB_W@Z ; std::_Maklocwcs
  00070	48 8b 8d 30 01
	00 00		 mov	 rcx, QWORD PTR this$[rbp]
  00077	48 89 41 10	 mov	 QWORD PTR [rcx+16], rax

; 243  :             _Months =

  0007b	48 8b 8d 40 01
	00 00		 mov	 rcx, QWORD PTR _Lobj$[rbp]
  00082	ff 15 00 00 00
	00		 call	 QWORD PTR __imp_?_W_Getmonths@_Locinfo@std@@QEBAPEBGXZ
  00088	48 8b c8	 mov	 rcx, rax
  0008b	e8 00 00 00 00	 call	 ?_Maklocwcs@std@@YAPEA_WPEB_W@Z ; std::_Maklocwcs
  00090	48 8b 8d 30 01
	00 00		 mov	 rcx, QWORD PTR this$[rbp]
  00097	48 89 41 18	 mov	 QWORD PTR [rcx+24], rax

; 244  :                 reinterpret_cast<const _Elem*>(_Maklocwcs(reinterpret_cast<const wchar_t*>(_Lobj._W_Getmonths())));
; 245  :             _Ampm = reinterpret_cast<const _Elem*>(_Maklocwcs(L":AM:am:PM:pm"));

  0009b	48 8d 0d 00 00
	00 00		 lea	 rcx, OFFSET FLAT:??_C@_1BK@MHIKGOKE@?$AA?3?$AAA?$AAM?$AA?3?$AAa?$AAm?$AA?3?$AAP?$AAM?$AA?3?$AAp?$AAm@
  000a2	e8 00 00 00 00	 call	 ?_Maklocwcs@std@@YAPEA_WPEB_W@Z ; std::_Maklocwcs
  000a7	48 8b 8d 30 01
	00 00		 mov	 rcx, QWORD PTR this$[rbp]
  000ae	48 89 41 20	 mov	 QWORD PTR [rcx+32], rax

; 246  :         } else {

  000b2	e9 a3 00 00 00	 jmp	 $LN3@Getvals
$LN2@Getvals:

; 247  :             _Days   = _Maklocstr(_Lobj._Getdays(), static_cast<_Elem*>(nullptr), _Cvt);

  000b7	48 8b 85 30 01
	00 00		 mov	 rax, QWORD PTR this$[rbp]
  000be	48 83 c0 2c	 add	 rax, 44			; 0000002cH
  000c2	48 89 85 08 01
	00 00		 mov	 QWORD PTR tv85[rbp], rax
  000c9	48 8b 8d 40 01
	00 00		 mov	 rcx, QWORD PTR _Lobj$[rbp]
  000d0	ff 15 00 00 00
	00		 call	 QWORD PTR __imp_?_Getdays@_Locinfo@std@@QEBAPEBDXZ
  000d6	48 8b 8d 08 01
	00 00		 mov	 rcx, QWORD PTR tv85[rbp]
  000dd	4c 8b c1	 mov	 r8, rcx
  000e0	33 d2		 xor	 edx, edx
  000e2	48 8b c8	 mov	 rcx, rax
  000e5	e8 00 00 00 00	 call	 ??$_Maklocstr@_W@std@@YAPEA_WPEBDPEA_WAEBU_Cvtvec@@@Z ; std::_Maklocstr<wchar_t>
  000ea	48 8b 8d 30 01
	00 00		 mov	 rcx, QWORD PTR this$[rbp]
  000f1	48 89 41 10	 mov	 QWORD PTR [rcx+16], rax

; 248  :             _Months = _Maklocstr(_Lobj._Getmonths(), static_cast<_Elem*>(nullptr), _Cvt);

  000f5	48 8b 85 30 01
	00 00		 mov	 rax, QWORD PTR this$[rbp]
  000fc	48 83 c0 2c	 add	 rax, 44			; 0000002cH
  00100	48 89 85 08 01
	00 00		 mov	 QWORD PTR tv93[rbp], rax
  00107	48 8b 8d 40 01
	00 00		 mov	 rcx, QWORD PTR _Lobj$[rbp]
  0010e	ff 15 00 00 00
	00		 call	 QWORD PTR __imp_?_Getmonths@_Locinfo@std@@QEBAPEBDXZ
  00114	48 8b 8d 08 01
	00 00		 mov	 rcx, QWORD PTR tv93[rbp]
  0011b	4c 8b c1	 mov	 r8, rcx
  0011e	33 d2		 xor	 edx, edx
  00120	48 8b c8	 mov	 rcx, rax
  00123	e8 00 00 00 00	 call	 ??$_Maklocstr@_W@std@@YAPEA_WPEBDPEA_WAEBU_Cvtvec@@@Z ; std::_Maklocstr<wchar_t>
  00128	48 8b 8d 30 01
	00 00		 mov	 rcx, QWORD PTR this$[rbp]
  0012f	48 89 41 18	 mov	 QWORD PTR [rcx+24], rax

; 249  :             _Ampm   = _Maklocstr(":AM:am:PM:pm", static_cast<_Elem*>(nullptr), _Cvt);

  00133	48 8b 85 30 01
	00 00		 mov	 rax, QWORD PTR this$[rbp]
  0013a	48 83 c0 2c	 add	 rax, 44			; 0000002cH
  0013e	4c 8b c0	 mov	 r8, rax
  00141	33 d2		 xor	 edx, edx
  00143	48 8d 0d 00 00
	00 00		 lea	 rcx, OFFSET FLAT:??_C@_0N@LPFKKEBD@?3AM?3am?3PM?3pm@
  0014a	e8 00 00 00 00	 call	 ??$_Maklocstr@_W@std@@YAPEA_WPEBDPEA_WAEBU_Cvtvec@@@Z ; std::_Maklocstr<wchar_t>
  0014f	48 8b 8d 30 01
	00 00		 mov	 rcx, QWORD PTR this$[rbp]
  00156	48 89 41 20	 mov	 QWORD PTR [rcx+32], rax
$LN3@Getvals:

; 250  :         }
; 251  :     }

  0015a	48 8d a5 10 01
	00 00		 lea	 rsp, QWORD PTR [rbp+272]
  00161	5f		 pop	 rdi
  00162	5e		 pop	 rsi
  00163	5d		 pop	 rbp
  00164	c3		 ret	 0
??$_Getvals@_W@?$time_get@_WV?$istreambuf_iterator@_WU?$char_traits@_W@std@@@std@@@std@@IEAAX_WAEBV_Locinfo@1@@Z ENDP ; std::time_get<wchar_t,std::istreambuf_iterator<wchar_t,std::char_traits<wchar_t> > >::_Getvals<wchar_t>
_TEXT	ENDS
; Function compile flags: /Odtp /RTCsu /ZI
; File C:\Program Files\Microsoft Visual Studio\2022\Community\VC\Tools\MSVC\14.42.34433\include\xloctime
;	COMDAT ??$_Getvals@_W@?$time_get@DV?$istreambuf_iterator@DU?$char_traits@D@std@@@std@@@std@@IEAAX_WAEBV_Locinfo@1@@Z
_TEXT	SEGMENT
$T1 = 200
tv85 = 264
tv93 = 264
this$ = 304
__formal$ = 312
_Lobj$ = 320
??$_Getvals@_W@?$time_get@DV?$istreambuf_iterator@DU?$char_traits@D@std@@@std@@@std@@IEAAX_WAEBV_Locinfo@1@@Z PROC ; std::time_get<char,std::istreambuf_iterator<char,std::char_traits<char> > >::_Getvals<wchar_t>, COMDAT

; 238  :     void __CLR_OR_THIS_CALL _Getvals(_Elem2, const _Locinfo& _Lobj) { // get values

$LN5:
  00000	4c 89 44 24 18	 mov	 QWORD PTR [rsp+24], r8
  00005	66 89 54 24 10	 mov	 WORD PTR [rsp+16], dx
  0000a	48 89 4c 24 08	 mov	 QWORD PTR [rsp+8], rcx
  0000f	55		 push	 rbp
  00010	56		 push	 rsi
  00011	57		 push	 rdi
  00012	48 81 ec 30 01
	00 00		 sub	 rsp, 304		; 00000130H
  00019	48 8d 6c 24 20	 lea	 rbp, QWORD PTR [rsp+32]
  0001e	48 8d 0d 00 00
	00 00		 lea	 rcx, OFFSET FLAT:__27C35076_xloctime
  00025	e8 00 00 00 00	 call	 __CheckForDebuggerJustMyCode
  0002a	90		 npad	 1

; 239  :         _Cvt = _Lobj._Getcvt();

  0002b	48 8d 95 c8 00
	00 00		 lea	 rdx, QWORD PTR $T1[rbp]
  00032	48 8b 8d 40 01
	00 00		 mov	 rcx, QWORD PTR _Lobj$[rbp]
  00039	ff 15 00 00 00
	00		 call	 QWORD PTR __imp_?_Getcvt@_Locinfo@std@@QEBA?AU_Cvtvec@@XZ
  0003f	48 8b 8d 30 01
	00 00		 mov	 rcx, QWORD PTR this$[rbp]
  00046	48 8d 79 2c	 lea	 rdi, QWORD PTR [rcx+44]
  0004a	48 8b f0	 mov	 rsi, rax
  0004d	b9 2c 00 00 00	 mov	 ecx, 44			; 0000002cH
  00052	f3 a4		 rep movsb

; 240  : 
; 241  :         if (is_same_v<_Elem2, wchar_t>) {

  00054	33 c0		 xor	 eax, eax
  00056	83 f8 01	 cmp	 eax, 1
  00059	74 5c		 je	 SHORT $LN2@Getvals

; 242  :             _Days = reinterpret_cast<const _Elem*>(_Maklocwcs(reinterpret_cast<const wchar_t*>(_Lobj._W_Getdays())));

  0005b	48 8b 8d 40 01
	00 00		 mov	 rcx, QWORD PTR _Lobj$[rbp]
  00062	ff 15 00 00 00
	00		 call	 QWORD PTR __imp_?_W_Getdays@_Locinfo@std@@QEBAPEBGXZ
  00068	48 8b c8	 mov	 rcx, rax
  0006b	e8 00 00 00 00	 call	 ?_Maklocwcs@std@@YAPEA_WPEB_W@Z ; std::_Maklocwcs
  00070	48 8b 8d 30 01
	00 00		 mov	 rcx, QWORD PTR this$[rbp]
  00077	48 89 41 10	 mov	 QWORD PTR [rcx+16], rax

; 243  :             _Months =

  0007b	48 8b 8d 40 01
	00 00		 mov	 rcx, QWORD PTR _Lobj$[rbp]
  00082	ff 15 00 00 00
	00		 call	 QWORD PTR __imp_?_W_Getmonths@_Locinfo@std@@QEBAPEBGXZ
  00088	48 8b c8	 mov	 rcx, rax
  0008b	e8 00 00 00 00	 call	 ?_Maklocwcs@std@@YAPEA_WPEB_W@Z ; std::_Maklocwcs
  00090	48 8b 8d 30 01
	00 00		 mov	 rcx, QWORD PTR this$[rbp]
  00097	48 89 41 18	 mov	 QWORD PTR [rcx+24], rax

; 244  :                 reinterpret_cast<const _Elem*>(_Maklocwcs(reinterpret_cast<const wchar_t*>(_Lobj._W_Getmonths())));
; 245  :             _Ampm = reinterpret_cast<const _Elem*>(_Maklocwcs(L":AM:am:PM:pm"));

  0009b	48 8d 0d 00 00
	00 00		 lea	 rcx, OFFSET FLAT:??_C@_1BK@MHIKGOKE@?$AA?3?$AAA?$AAM?$AA?3?$AAa?$AAm?$AA?3?$AAP?$AAM?$AA?3?$AAp?$AAm@
  000a2	e8 00 00 00 00	 call	 ?_Maklocwcs@std@@YAPEA_WPEB_W@Z ; std::_Maklocwcs
  000a7	48 8b 8d 30 01
	00 00		 mov	 rcx, QWORD PTR this$[rbp]
  000ae	48 89 41 20	 mov	 QWORD PTR [rcx+32], rax

; 246  :         } else {

  000b2	e9 a3 00 00 00	 jmp	 $LN3@Getvals
$LN2@Getvals:

; 247  :             _Days   = _Maklocstr(_Lobj._Getdays(), static_cast<_Elem*>(nullptr), _Cvt);

  000b7	48 8b 85 30 01
	00 00		 mov	 rax, QWORD PTR this$[rbp]
  000be	48 83 c0 2c	 add	 rax, 44			; 0000002cH
  000c2	48 89 85 08 01
	00 00		 mov	 QWORD PTR tv85[rbp], rax
  000c9	48 8b 8d 40 01
	00 00		 mov	 rcx, QWORD PTR _Lobj$[rbp]
  000d0	ff 15 00 00 00
	00		 call	 QWORD PTR __imp_?_Getdays@_Locinfo@std@@QEBAPEBDXZ
  000d6	48 8b 8d 08 01
	00 00		 mov	 rcx, QWORD PTR tv85[rbp]
  000dd	4c 8b c1	 mov	 r8, rcx
  000e0	33 d2		 xor	 edx, edx
  000e2	48 8b c8	 mov	 rcx, rax
  000e5	e8 00 00 00 00	 call	 ??$_Maklocstr@D@std@@YAPEADPEBDPEADAEBU_Cvtvec@@@Z ; std::_Maklocstr<char>
  000ea	48 8b 8d 30 01
	00 00		 mov	 rcx, QWORD PTR this$[rbp]
  000f1	48 89 41 10	 mov	 QWORD PTR [rcx+16], rax

; 248  :             _Months = _Maklocstr(_Lobj._Getmonths(), static_cast<_Elem*>(nullptr), _Cvt);

  000f5	48 8b 85 30 01
	00 00		 mov	 rax, QWORD PTR this$[rbp]
  000fc	48 83 c0 2c	 add	 rax, 44			; 0000002cH
  00100	48 89 85 08 01
	00 00		 mov	 QWORD PTR tv93[rbp], rax
  00107	48 8b 8d 40 01
	00 00		 mov	 rcx, QWORD PTR _Lobj$[rbp]
  0010e	ff 15 00 00 00
	00		 call	 QWORD PTR __imp_?_Getmonths@_Locinfo@std@@QEBAPEBDXZ
  00114	48 8b 8d 08 01
	00 00		 mov	 rcx, QWORD PTR tv93[rbp]
  0011b	4c 8b c1	 mov	 r8, rcx
  0011e	33 d2		 xor	 edx, edx
  00120	48 8b c8	 mov	 rcx, rax
  00123	e8 00 00 00 00	 call	 ??$_Maklocstr@D@std@@YAPEADPEBDPEADAEBU_Cvtvec@@@Z ; std::_Maklocstr<char>
  00128	48 8b 8d 30 01
	00 00		 mov	 rcx, QWORD PTR this$[rbp]
  0012f	48 89 41 18	 mov	 QWORD PTR [rcx+24], rax

; 249  :             _Ampm   = _Maklocstr(":AM:am:PM:pm", static_cast<_Elem*>(nullptr), _Cvt);

  00133	48 8b 85 30 01
	00 00		 mov	 rax, QWORD PTR this$[rbp]
  0013a	48 83 c0 2c	 add	 rax, 44			; 0000002cH
  0013e	4c 8b c0	 mov	 r8, rax
  00141	33 d2		 xor	 edx, edx
  00143	48 8d 0d 00 00
	00 00		 lea	 rcx, OFFSET FLAT:??_C@_0N@LPFKKEBD@?3AM?3am?3PM?3pm@
  0014a	e8 00 00 00 00	 call	 ??$_Maklocstr@D@std@@YAPEADPEBDPEADAEBU_Cvtvec@@@Z ; std::_Maklocstr<char>
  0014f	48 8b 8d 30 01
	00 00		 mov	 rcx, QWORD PTR this$[rbp]
  00156	48 89 41 20	 mov	 QWORD PTR [rcx+32], rax
$LN3@Getvals:

; 250  :         }
; 251  :     }

  0015a	48 8d a5 10 01
	00 00		 lea	 rsp, QWORD PTR [rbp+272]
  00161	5f		 pop	 rdi
  00162	5e		 pop	 rsi
  00163	5d		 pop	 rbp
  00164	c3		 ret	 0
??$_Getvals@_W@?$time_get@DV?$istreambuf_iterator@DU?$char_traits@D@std@@@std@@@std@@IEAAX_WAEBV_Locinfo@1@@Z ENDP ; std::time_get<char,std::istreambuf_iterator<char,std::char_traits<char> > >::_Getvals<wchar_t>
_TEXT	ENDS
; Function compile flags: /Odtp /RTCsu /ZI
; File C:\Program Files\Microsoft Visual Studio\2022\Community\VC\Tools\MSVC\14.42.34433\include\utility
;	COMDAT ??$_Max_limit@_J@std@@YA_JXZ
_TEXT	SEGMENT
_Unsigned_max$1 = 8
??$_Max_limit@_J@std@@YA_JXZ PROC			; std::_Max_limit<__int64>, COMDAT

; 854  : _NODISCARD constexpr _Ty _Max_limit() noexcept { // same as (numeric_limits<_Ty>::max)(), less throughput cost

$LN4:
  00000	40 55		 push	 rbp
  00002	57		 push	 rdi
  00003	48 81 ec 08 01
	00 00		 sub	 rsp, 264		; 00000108H
  0000a	48 8d 6c 24 20	 lea	 rbp, QWORD PTR [rsp+32]
  0000f	48 8d 0d 00 00
	00 00		 lea	 rcx, OFFSET FLAT:__69285096_utility
  00016	e8 00 00 00 00	 call	 __CheckForDebuggerJustMyCode
  0001b	90		 npad	 1

; 855  :     _STL_INTERNAL_STATIC_ASSERT(is_integral_v<_Ty>); // doesn't attempt to handle all types
; 856  :     if constexpr (is_signed_v<_Ty>) {
; 857  :         constexpr auto _Unsigned_max = static_cast<make_unsigned_t<_Ty>>(-1);

  0001c	48 c7 45 08 ff
	ff ff ff	 mov	 QWORD PTR _Unsigned_max$1[rbp], -1

; 858  :         return static_cast<_Ty>(_Unsigned_max >> 1);

  00024	48 b8 ff ff ff
	ff ff ff ff 7f	 mov	 rax, 9223372036854775807 ; 7fffffffffffffffH

; 859  :     } else {
; 860  :         return static_cast<_Ty>(-1);
; 861  :     }
; 862  : }

  0002e	48 8d a5 e8 00
	00 00		 lea	 rsp, QWORD PTR [rbp+232]
  00035	5f		 pop	 rdi
  00036	5d		 pop	 rbp
  00037	c3		 ret	 0
??$_Max_limit@_J@std@@YA_JXZ ENDP			; std::_Max_limit<__int64>
_TEXT	ENDS
; Function compile flags: /Odtp /RTCsu /ZI
; File C:\Program Files\Microsoft Visual Studio\2022\Community\VC\Tools\MSVC\14.42.34433\include\xlocale
;	COMDAT ??$_Maklocstr@D@std@@YAPEADPEBDPEADAEBU_Cvtvec@@@Z
_TEXT	SEGMENT
_Count$ = 8
_Ptrdest$ = 40
_Ptrnext$1 = 72
_Ptr$ = 320
__formal$ = 328
__formal$ = 336
??$_Maklocstr@D@std@@YAPEADPEBDPEADAEBU_Cvtvec@@@Z PROC	; std::_Maklocstr<char>, COMDAT

; 511  : _Elem* __CRTDECL _Maklocstr(const char* _Ptr, _Elem*, const _Locinfo::_Cvtvec&) {

$LN7:
  00000	4c 89 44 24 18	 mov	 QWORD PTR [rsp+24], r8
  00005	48 89 54 24 10	 mov	 QWORD PTR [rsp+16], rdx
  0000a	48 89 4c 24 08	 mov	 QWORD PTR [rsp+8], rcx
  0000f	55		 push	 rbp
  00010	57		 push	 rdi
  00011	48 81 ec 58 01
	00 00		 sub	 rsp, 344		; 00000158H
  00018	48 8d 6c 24 30	 lea	 rbp, QWORD PTR [rsp+48]
  0001d	48 8d 0d 00 00
	00 00		 lea	 rcx, OFFSET FLAT:__A850C1F8_xlocale
  00024	e8 00 00 00 00	 call	 __CheckForDebuggerJustMyCode
  00029	90		 npad	 1

; 512  :     // convert C string to _Elem sequence using _Cvtvec
; 513  :     size_t _Count = _CSTD strlen(_Ptr) + 1;

  0002a	48 8b 8d 40 01
	00 00		 mov	 rcx, QWORD PTR _Ptr$[rbp]
  00031	e8 00 00 00 00	 call	 strlen
  00036	48 ff c0	 inc	 rax
  00039	48 89 45 08	 mov	 QWORD PTR _Count$[rbp], rax

; 514  : 
; 515  :     _Elem* _Ptrdest = static_cast<_Elem*>(_calloc_dbg(_Count, sizeof(_Elem), _CRT_BLOCK, __FILE__, __LINE__));

  0003d	c7 44 24 20 03
	02 00 00	 mov	 DWORD PTR [rsp+32], 515	; 00000203H
  00045	4c 8d 0d 00 00
	00 00		 lea	 r9, OFFSET FLAT:??_C@_0GC@LEHJKL@C?3?2Program?5Files?2Microsoft?5Visu@
  0004c	41 b8 02 00 00
	00		 mov	 r8d, 2
  00052	ba 01 00 00 00	 mov	 edx, 1
  00057	48 8b 4d 08	 mov	 rcx, QWORD PTR _Count$[rbp]
  0005b	ff 15 00 00 00
	00		 call	 QWORD PTR __imp__calloc_dbg
  00061	48 89 45 28	 mov	 QWORD PTR _Ptrdest$[rbp], rax

; 516  : 
; 517  :     if (!_Ptrdest) {

  00065	48 83 7d 28 00	 cmp	 QWORD PTR _Ptrdest$[rbp], 0
  0006a	75 06		 jne	 SHORT $LN5@Maklocstr

; 518  :         _Xbad_alloc();

  0006c	e8 00 00 00 00	 call	 ?_Xbad_alloc@std@@YAXXZ	; std::_Xbad_alloc
  00071	90		 npad	 1
$LN5@Maklocstr:

; 519  :     }
; 520  : 
; 521  :     for (_Elem* _Ptrnext = _Ptrdest; 0 < _Count; --_Count, ++_Ptrnext, ++_Ptr) {

  00072	48 8b 45 28	 mov	 rax, QWORD PTR _Ptrdest$[rbp]
  00076	48 89 45 48	 mov	 QWORD PTR _Ptrnext$1[rbp], rax
  0007a	eb 27		 jmp	 SHORT $LN4@Maklocstr
$LN2@Maklocstr:
  0007c	48 8b 45 08	 mov	 rax, QWORD PTR _Count$[rbp]
  00080	48 ff c8	 dec	 rax
  00083	48 89 45 08	 mov	 QWORD PTR _Count$[rbp], rax
  00087	48 8b 45 48	 mov	 rax, QWORD PTR _Ptrnext$1[rbp]
  0008b	48 ff c0	 inc	 rax
  0008e	48 89 45 48	 mov	 QWORD PTR _Ptrnext$1[rbp], rax
  00092	48 8b 85 40 01
	00 00		 mov	 rax, QWORD PTR _Ptr$[rbp]
  00099	48 ff c0	 inc	 rax
  0009c	48 89 85 40 01
	00 00		 mov	 QWORD PTR _Ptr$[rbp], rax
$LN4@Maklocstr:
  000a3	48 83 7d 08 00	 cmp	 QWORD PTR _Count$[rbp], 0
  000a8	76 12		 jbe	 SHORT $LN3@Maklocstr

; 522  :         *_Ptrnext = static_cast<_Elem>(static_cast<unsigned char>(*_Ptr));

  000aa	48 8b 45 48	 mov	 rax, QWORD PTR _Ptrnext$1[rbp]
  000ae	48 8b 8d 40 01
	00 00		 mov	 rcx, QWORD PTR _Ptr$[rbp]
  000b5	0f b6 09	 movzx	 ecx, BYTE PTR [rcx]
  000b8	88 08		 mov	 BYTE PTR [rax], cl

; 523  :     }

  000ba	eb c0		 jmp	 SHORT $LN2@Maklocstr
$LN3@Maklocstr:

; 524  : 
; 525  :     return _Ptrdest;

  000bc	48 8b 45 28	 mov	 rax, QWORD PTR _Ptrdest$[rbp]
$LN6@Maklocstr:

; 526  : }

  000c0	48 8d a5 28 01
	00 00		 lea	 rsp, QWORD PTR [rbp+296]
  000c7	5f		 pop	 rdi
  000c8	5d		 pop	 rbp
  000c9	c3		 ret	 0
??$_Maklocstr@D@std@@YAPEADPEBDPEADAEBU_Cvtvec@@@Z ENDP	; std::_Maklocstr<char>
_TEXT	ENDS
; Function compile flags: /Odtp /RTCsu /ZI
; File C:\Program Files\Microsoft Visual Studio\2022\Community\VC\Tools\MSVC\14.42.34433\include\xlocnum
;	COMDAT ?_Maklocwcs@std@@YAPEA_WPEB_W@Z
_TEXT	SEGMENT
_Count$ = 8
_Ptrdest$ = 40
_Ptr$ = 288
?_Maklocwcs@std@@YAPEA_WPEB_W@Z PROC			; std::_Maklocwcs, COMDAT

; 73   : inline wchar_t* _Maklocwcs(const wchar_t* _Ptr) { // copy NTWCS to allocated storage

$LN4:
  00000	48 89 4c 24 08	 mov	 QWORD PTR [rsp+8], rcx
  00005	55		 push	 rbp
  00006	57		 push	 rdi
  00007	48 81 ec 38 01
	00 00		 sub	 rsp, 312		; 00000138H
  0000e	48 8d 6c 24 30	 lea	 rbp, QWORD PTR [rsp+48]
  00013	48 8d 0d 00 00
	00 00		 lea	 rcx, OFFSET FLAT:__36D7A7EF_xlocnum
  0001a	e8 00 00 00 00	 call	 __CheckForDebuggerJustMyCode
  0001f	90		 npad	 1

; 74   :     const size_t _Count = _CSTD wcslen(_Ptr) + 1;

  00020	48 8b 8d 20 01
	00 00		 mov	 rcx, QWORD PTR _Ptr$[rbp]
  00027	ff 15 00 00 00
	00		 call	 QWORD PTR __imp_wcslen
  0002d	48 ff c0	 inc	 rax
  00030	48 89 45 08	 mov	 QWORD PTR _Count$[rbp], rax

; 75   : 
; 76   :     wchar_t* _Ptrdest = static_cast<wchar_t*>(_calloc_dbg(_Count, sizeof(wchar_t), _CRT_BLOCK, __FILE__, __LINE__));

  00034	8b 05 00 00 00
	00		 mov	 eax, DWORD PTR ?__LINE__Var@?0??_Maklocwcs@std@@YAPEA_WPEB_W@Z@4JA
  0003a	83 c0 03	 add	 eax, 3
  0003d	89 44 24 20	 mov	 DWORD PTR [rsp+32], eax
  00041	4c 8d 0d 00 00
	00 00		 lea	 r9, OFFSET FLAT:??_C@_0GC@IDPJHLAK@C?3?2Program?5Files?2Microsoft?5Visu@
  00048	41 b8 02 00 00
	00		 mov	 r8d, 2
  0004e	ba 02 00 00 00	 mov	 edx, 2
  00053	48 8b 4d 08	 mov	 rcx, QWORD PTR _Count$[rbp]
  00057	ff 15 00 00 00
	00		 call	 QWORD PTR __imp__calloc_dbg
  0005d	48 89 45 28	 mov	 QWORD PTR _Ptrdest$[rbp], rax

; 77   : 
; 78   :     if (!_Ptrdest) {

  00061	48 83 7d 28 00	 cmp	 QWORD PTR _Ptrdest$[rbp], 0
  00066	75 06		 jne	 SHORT $LN2@Maklocwcs

; 79   :         _Xbad_alloc();

  00068	e8 00 00 00 00	 call	 ?_Xbad_alloc@std@@YAXXZ	; std::_Xbad_alloc
  0006d	90		 npad	 1
$LN2@Maklocwcs:

; 80   :     }
; 81   : 
; 82   :     _CSTD wmemcpy(_Ptrdest, _Ptr, _Count);

  0006e	4c 8b 45 08	 mov	 r8, QWORD PTR _Count$[rbp]
  00072	48 8b 95 20 01
	00 00		 mov	 rdx, QWORD PTR _Ptr$[rbp]
  00079	48 8b 4d 28	 mov	 rcx, QWORD PTR _Ptrdest$[rbp]
  0007d	e8 00 00 00 00	 call	 wmemcpy
  00082	90		 npad	 1

; 83   :     return _Ptrdest;

  00083	48 8b 45 28	 mov	 rax, QWORD PTR _Ptrdest$[rbp]
$LN3@Maklocwcs:

; 84   : }

  00087	48 8d a5 08 01
	00 00		 lea	 rsp, QWORD PTR [rbp+264]
  0008e	5f		 pop	 rdi
  0008f	5d		 pop	 rbp
  00090	c3		 ret	 0
?_Maklocwcs@std@@YAPEA_WPEB_W@Z ENDP			; std::_Maklocwcs
_TEXT	ENDS
; Function compile flags: /Odtp /RTCsu /ZI
; File C:\Program Files\Microsoft Visual Studio\2022\Community\VC\Tools\MSVC\14.42.34433\include\xlocale
;	COMDAT ??$_Maklocstr@_W@std@@YAPEA_WPEBDPEA_WAEBU_Cvtvec@@@Z
_TEXT	SEGMENT
_Count$ = 8
_Count1$ = 40
_Wchars$ = 72
_Ptr1$ = 104
_Bytes$ = 132
_Wc$ = 164
_Mbst1$ = 200
_Ptrdest$ = 232
_Ptrnext$ = 264
_Mbst2$ = 296
__$ArrayPad$ = 504
_Ptr$ = 544
__formal$ = 552
_Cvt$ = 560
??$_Maklocstr@_W@std@@YAPEA_WPEBDPEA_WAEBU_Cvtvec@@@Z PROC ; std::_Maklocstr<wchar_t>, COMDAT

; 529  : inline wchar_t* __CRTDECL _Maklocstr(const char* _Ptr, wchar_t*, const _Locinfo::_Cvtvec& _Cvt) {

$LN12:
  00000	4c 89 44 24 18	 mov	 QWORD PTR [rsp+24], r8
  00005	48 89 54 24 10	 mov	 QWORD PTR [rsp+16], rdx
  0000a	48 89 4c 24 08	 mov	 QWORD PTR [rsp+8], rcx
  0000f	55		 push	 rbp
  00010	57		 push	 rdi
  00011	48 81 ec 38 02
	00 00		 sub	 rsp, 568		; 00000238H
  00018	48 8d 6c 24 30	 lea	 rbp, QWORD PTR [rsp+48]
  0001d	48 8d 7c 24 30	 lea	 rdi, QWORD PTR [rsp+48]
  00022	b9 52 00 00 00	 mov	 ecx, 82			; 00000052H
  00027	b8 cc cc cc cc	 mov	 eax, -858993460		; ccccccccH
  0002c	f3 ab		 rep stosd
  0002e	48 8b 8c 24 58
	02 00 00	 mov	 rcx, QWORD PTR [rsp+600]
  00036	48 8b 05 00 00
	00 00		 mov	 rax, QWORD PTR __security_cookie
  0003d	48 33 c5	 xor	 rax, rbp
  00040	48 89 85 f8 01
	00 00		 mov	 QWORD PTR __$ArrayPad$[rbp], rax
  00047	48 8d 0d 00 00
	00 00		 lea	 rcx, OFFSET FLAT:__A850C1F8_xlocale
  0004e	e8 00 00 00 00	 call	 __CheckForDebuggerJustMyCode
  00053	90		 npad	 1

; 530  :     // convert C string to wchar_t sequence using _Cvtvec
; 531  :     size_t _Count;
; 532  :     size_t _Count1;
; 533  :     size_t _Wchars;
; 534  :     const char* _Ptr1;
; 535  :     int _Bytes;
; 536  :     wchar_t _Wc;
; 537  :     mbstate_t _Mbst1 = {};

  00054	48 8d 85 c8 00
	00 00		 lea	 rax, QWORD PTR _Mbst1$[rbp]
  0005b	48 8b f8	 mov	 rdi, rax
  0005e	33 c0		 xor	 eax, eax
  00060	b9 08 00 00 00	 mov	 ecx, 8
  00065	f3 aa		 rep stosb

; 538  : 
; 539  :     _Count1 = _CSTD strlen(_Ptr) + 1;

  00067	48 8b 8d 20 02
	00 00		 mov	 rcx, QWORD PTR _Ptr$[rbp]
  0006e	e8 00 00 00 00	 call	 strlen
  00073	48 ff c0	 inc	 rax
  00076	48 89 45 28	 mov	 QWORD PTR _Count1$[rbp], rax

; 540  :     for (_Count = _Count1, _Wchars = 0, _Ptr1 = _Ptr; 0 < _Count; _Count -= _Bytes, _Ptr1 += _Bytes, ++_Wchars) {

  0007a	48 8b 45 28	 mov	 rax, QWORD PTR _Count1$[rbp]
  0007e	48 89 45 08	 mov	 QWORD PTR _Count$[rbp], rax
  00082	48 c7 45 48 00
	00 00 00	 mov	 QWORD PTR _Wchars$[rbp], 0
  0008a	48 8b 85 20 02
	00 00		 mov	 rax, QWORD PTR _Ptr$[rbp]
  00091	48 89 45 68	 mov	 QWORD PTR _Ptr1$[rbp], rax
  00095	eb 35		 jmp	 SHORT $LN4@Maklocstr
$LN2@Maklocstr:
  00097	48 63 85 84 00
	00 00		 movsxd	 rax, DWORD PTR _Bytes$[rbp]
  0009e	48 8b 4d 08	 mov	 rcx, QWORD PTR _Count$[rbp]
  000a2	48 2b c8	 sub	 rcx, rax
  000a5	48 8b c1	 mov	 rax, rcx
  000a8	48 89 45 08	 mov	 QWORD PTR _Count$[rbp], rax
  000ac	48 63 85 84 00
	00 00		 movsxd	 rax, DWORD PTR _Bytes$[rbp]
  000b3	48 8b 4d 68	 mov	 rcx, QWORD PTR _Ptr1$[rbp]
  000b7	48 03 c8	 add	 rcx, rax
  000ba	48 8b c1	 mov	 rax, rcx
  000bd	48 89 45 68	 mov	 QWORD PTR _Ptr1$[rbp], rax
  000c1	48 8b 45 48	 mov	 rax, QWORD PTR _Wchars$[rbp]
  000c5	48 ff c0	 inc	 rax
  000c8	48 89 45 48	 mov	 QWORD PTR _Wchars$[rbp], rax
$LN4@Maklocstr:
  000cc	48 83 7d 08 00	 cmp	 QWORD PTR _Count$[rbp], 0
  000d1	76 3a		 jbe	 SHORT $LN3@Maklocstr

; 541  :         if ((_Bytes = _Mbrtowc(&_Wc, _Ptr1, _Count, &_Mbst1, &_Cvt)) <= 0) {

  000d3	48 8b 85 30 02
	00 00		 mov	 rax, QWORD PTR _Cvt$[rbp]
  000da	48 89 44 24 20	 mov	 QWORD PTR [rsp+32], rax
  000df	4c 8d 8d c8 00
	00 00		 lea	 r9, QWORD PTR _Mbst1$[rbp]
  000e6	4c 8b 45 08	 mov	 r8, QWORD PTR _Count$[rbp]
  000ea	48 8b 55 68	 mov	 rdx, QWORD PTR _Ptr1$[rbp]
  000ee	48 8d 8d a4 00
	00 00		 lea	 rcx, QWORD PTR _Wc$[rbp]
  000f5	e8 00 00 00 00	 call	 _Mbrtowc
  000fa	89 85 84 00 00
	00		 mov	 DWORD PTR _Bytes$[rbp], eax
  00100	83 bd 84 00 00
	00 00		 cmp	 DWORD PTR _Bytes$[rbp], 0
  00107	7f 02		 jg	 SHORT $LN8@Maklocstr

; 542  :             break;

  00109	eb 02		 jmp	 SHORT $LN3@Maklocstr
$LN8@Maklocstr:

; 543  :         }
; 544  :     }

  0010b	eb 8a		 jmp	 SHORT $LN2@Maklocstr
$LN3@Maklocstr:

; 545  : 
; 546  :     ++_Wchars; // count terminating nul

  0010d	48 8b 45 48	 mov	 rax, QWORD PTR _Wchars$[rbp]
  00111	48 ff c0	 inc	 rax
  00114	48 89 45 48	 mov	 QWORD PTR _Wchars$[rbp], rax

; 547  : 
; 548  :     wchar_t* _Ptrdest = static_cast<wchar_t*>(_calloc_dbg(_Wchars, sizeof(wchar_t), _CRT_BLOCK, __FILE__, __LINE__));

  00118	c7 44 24 20 24
	02 00 00	 mov	 DWORD PTR [rsp+32], 548	; 00000224H
  00120	4c 8d 0d 00 00
	00 00		 lea	 r9, OFFSET FLAT:??_C@_0GC@LEHJKL@C?3?2Program?5Files?2Microsoft?5Visu@
  00127	41 b8 02 00 00
	00		 mov	 r8d, 2
  0012d	ba 02 00 00 00	 mov	 edx, 2
  00132	48 8b 4d 48	 mov	 rcx, QWORD PTR _Wchars$[rbp]
  00136	ff 15 00 00 00
	00		 call	 QWORD PTR __imp__calloc_dbg
  0013c	48 89 85 e8 00
	00 00		 mov	 QWORD PTR _Ptrdest$[rbp], rax

; 549  : 
; 550  :     if (!_Ptrdest) {

  00143	48 83 bd e8 00
	00 00 00	 cmp	 QWORD PTR _Ptrdest$[rbp], 0
  0014b	75 06		 jne	 SHORT $LN9@Maklocstr

; 551  :         _Xbad_alloc();

  0014d	e8 00 00 00 00	 call	 ?_Xbad_alloc@std@@YAXXZ	; std::_Xbad_alloc
  00152	90		 npad	 1
$LN9@Maklocstr:

; 552  :     }
; 553  : 
; 554  :     wchar_t* _Ptrnext = _Ptrdest;

  00153	48 8b 85 e8 00
	00 00		 mov	 rax, QWORD PTR _Ptrdest$[rbp]
  0015a	48 89 85 08 01
	00 00		 mov	 QWORD PTR _Ptrnext$[rbp], rax

; 555  :     mbstate_t _Mbst2  = {};

  00161	48 8d 85 28 01
	00 00		 lea	 rax, QWORD PTR _Mbst2$[rbp]
  00168	48 8b f8	 mov	 rdi, rax
  0016b	33 c0		 xor	 eax, eax
  0016d	b9 08 00 00 00	 mov	 ecx, 8
  00172	f3 aa		 rep stosb

; 556  : 
; 557  :     for (; 0 < _Wchars; _Count -= _Bytes, _Ptr += _Bytes, --_Wchars, ++_Ptrnext) {

  00174	eb 4d		 jmp	 SHORT $LN7@Maklocstr
$LN5@Maklocstr:
  00176	48 63 85 84 00
	00 00		 movsxd	 rax, DWORD PTR _Bytes$[rbp]
  0017d	48 8b 4d 08	 mov	 rcx, QWORD PTR _Count$[rbp]
  00181	48 2b c8	 sub	 rcx, rax
  00184	48 8b c1	 mov	 rax, rcx
  00187	48 89 45 08	 mov	 QWORD PTR _Count$[rbp], rax
  0018b	48 63 85 84 00
	00 00		 movsxd	 rax, DWORD PTR _Bytes$[rbp]
  00192	48 8b 8d 20 02
	00 00		 mov	 rcx, QWORD PTR _Ptr$[rbp]
  00199	48 03 c8	 add	 rcx, rax
  0019c	48 8b c1	 mov	 rax, rcx
  0019f	48 89 85 20 02
	00 00		 mov	 QWORD PTR _Ptr$[rbp], rax
  001a6	48 8b 45 48	 mov	 rax, QWORD PTR _Wchars$[rbp]
  001aa	48 ff c8	 dec	 rax
  001ad	48 89 45 48	 mov	 QWORD PTR _Wchars$[rbp], rax
  001b1	48 8b 85 08 01
	00 00		 mov	 rax, QWORD PTR _Ptrnext$[rbp]
  001b8	48 83 c0 02	 add	 rax, 2
  001bc	48 89 85 08 01
	00 00		 mov	 QWORD PTR _Ptrnext$[rbp], rax
$LN7@Maklocstr:
  001c3	48 83 7d 48 00	 cmp	 QWORD PTR _Wchars$[rbp], 0
  001c8	76 40		 jbe	 SHORT $LN6@Maklocstr

; 558  :         if ((_Bytes = _Mbrtowc(_Ptrnext, _Ptr, _Count1, &_Mbst2, &_Cvt)) <= 0) {

  001ca	48 8b 85 30 02
	00 00		 mov	 rax, QWORD PTR _Cvt$[rbp]
  001d1	48 89 44 24 20	 mov	 QWORD PTR [rsp+32], rax
  001d6	4c 8d 8d 28 01
	00 00		 lea	 r9, QWORD PTR _Mbst2$[rbp]
  001dd	4c 8b 45 28	 mov	 r8, QWORD PTR _Count1$[rbp]
  001e1	48 8b 95 20 02
	00 00		 mov	 rdx, QWORD PTR _Ptr$[rbp]
  001e8	48 8b 8d 08 01
	00 00		 mov	 rcx, QWORD PTR _Ptrnext$[rbp]
  001ef	e8 00 00 00 00	 call	 _Mbrtowc
  001f4	89 85 84 00 00
	00		 mov	 DWORD PTR _Bytes$[rbp], eax
  001fa	83 bd 84 00 00
	00 00		 cmp	 DWORD PTR _Bytes$[rbp], 0
  00201	7f 02		 jg	 SHORT $LN10@Maklocstr

; 559  :             break;

  00203	eb 05		 jmp	 SHORT $LN6@Maklocstr
$LN10@Maklocstr:

; 560  :         }
; 561  :     }

  00205	e9 6c ff ff ff	 jmp	 $LN5@Maklocstr
$LN6@Maklocstr:

; 562  : 
; 563  :     *_Ptrnext = L'\0';

  0020a	33 c0		 xor	 eax, eax
  0020c	48 8b 8d 08 01
	00 00		 mov	 rcx, QWORD PTR _Ptrnext$[rbp]
  00213	66 89 01	 mov	 WORD PTR [rcx], ax

; 564  : 
; 565  :     return _Ptrdest;

  00216	48 8b 85 e8 00
	00 00		 mov	 rax, QWORD PTR _Ptrdest$[rbp]
$LN11@Maklocstr:

; 566  : }

  0021d	48 8b f8	 mov	 rdi, rax
  00220	48 8d 4d d0	 lea	 rcx, QWORD PTR [rbp-48]
  00224	48 8d 15 00 00
	00 00		 lea	 rdx, OFFSET FLAT:??$_Maklocstr@_W@std@@YAPEA_WPEBDPEA_WAEBU_Cvtvec@@@Z$rtcFrameData
  0022b	e8 00 00 00 00	 call	 _RTC_CheckStackVars
  00230	48 8b c7	 mov	 rax, rdi
  00233	48 8b 8d f8 01
	00 00		 mov	 rcx, QWORD PTR __$ArrayPad$[rbp]
  0023a	48 33 cd	 xor	 rcx, rbp
  0023d	e8 00 00 00 00	 call	 __security_check_cookie
  00242	48 8d a5 08 02
	00 00		 lea	 rsp, QWORD PTR [rbp+520]
  00249	5f		 pop	 rdi
  0024a	5d		 pop	 rbp
  0024b	c3		 ret	 0
??$_Maklocstr@_W@std@@YAPEA_WPEBDPEA_WAEBU_Cvtvec@@@Z ENDP ; std::_Maklocstr<wchar_t>
_TEXT	ENDS
; Function compile flags: /Odtp /RTCsu /ZI
;	COMDAT ??1?$_Compressed_pair@V?$allocator@D@std@@V?$_String_val@U?$_Simple_types@D@std@@@2@$00@std@@QEAA@XZ
_TEXT	SEGMENT
this$ = 224
??1?$_Compressed_pair@V?$allocator@D@std@@V?$_String_val@U?$_Simple_types@D@std@@@2@$00@std@@QEAA@XZ PROC ; std::_Compressed_pair<std::allocator<char>,std::_String_val<std::_Simple_types<char> >,1>::~_Compressed_pair<std::allocator<char>,std::_String_val<std::_Simple_types<char> >,1>, COMDAT
$LN4:
  00000	48 89 4c 24 08	 mov	 QWORD PTR [rsp+8], rcx
  00005	55		 push	 rbp
  00006	57		 push	 rdi
  00007	48 81 ec e8 00
	00 00		 sub	 rsp, 232		; 000000e8H
  0000e	48 8d 6c 24 20	 lea	 rbp, QWORD PTR [rsp+32]
  00013	48 8b 85 e0 00
	00 00		 mov	 rax, QWORD PTR this$[rbp]
  0001a	48 8b c8	 mov	 rcx, rax
  0001d	e8 00 00 00 00	 call	 ??1?$_String_val@U?$_Simple_types@D@std@@@std@@QEAA@XZ
  00022	90		 npad	 1
  00023	48 8d a5 c8 00
	00 00		 lea	 rsp, QWORD PTR [rbp+200]
  0002a	5f		 pop	 rdi
  0002b	5d		 pop	 rbp
  0002c	c3		 ret	 0
??1?$_Compressed_pair@V?$allocator@D@std@@V?$_String_val@U?$_Simple_types@D@std@@@2@$00@std@@QEAA@XZ ENDP ; std::_Compressed_pair<std::allocator<char>,std::_String_val<std::_Simple_types<char> >,1>::~_Compressed_pair<std::allocator<char>,std::_String_val<std::_Simple_types<char> >,1>
_TEXT	ENDS
; Function compile flags: /Odtp /RTCsu /ZI
; File C:\Program Files\Microsoft Visual Studio\2022\Community\VC\Tools\MSVC\14.42.34433\include\xmemory
;	COMDAT ?_Get_first@?$_Compressed_pair@V?$allocator@D@std@@V?$_String_val@U?$_Simple_types@D@std@@@2@$00@std@@QEBAAEBV?$allocator@D@2@XZ
_TEXT	SEGMENT
this$ = 224
?_Get_first@?$_Compressed_pair@V?$allocator@D@std@@V?$_String_val@U?$_Simple_types@D@std@@@2@$00@std@@QEBAAEBV?$allocator@D@2@XZ PROC ; std::_Compressed_pair<std::allocator<char>,std::_String_val<std::_Simple_types<char> >,1>::_Get_first, COMDAT

; 1506 :     constexpr const _Ty1& _Get_first() const noexcept {

$LN4:
  00000	48 89 4c 24 08	 mov	 QWORD PTR [rsp+8], rcx
  00005	55		 push	 rbp
  00006	57		 push	 rdi
  00007	48 81 ec e8 00
	00 00		 sub	 rsp, 232		; 000000e8H
  0000e	48 8d 6c 24 20	 lea	 rbp, QWORD PTR [rsp+32]
  00013	48 8d 0d 00 00
	00 00		 lea	 rcx, OFFSET FLAT:__03BD3355_xmemory
  0001a	e8 00 00 00 00	 call	 __CheckForDebuggerJustMyCode
  0001f	90		 npad	 1

; 1507 :         return *this;

  00020	48 8b 85 e0 00
	00 00		 mov	 rax, QWORD PTR this$[rbp]

; 1508 :     }

  00027	48 8d a5 c8 00
	00 00		 lea	 rsp, QWORD PTR [rbp+200]
  0002e	5f		 pop	 rdi
  0002f	5d		 pop	 rbp
  00030	c3		 ret	 0
?_Get_first@?$_Compressed_pair@V?$allocator@D@std@@V?$_String_val@U?$_Simple_types@D@std@@@2@$00@std@@QEBAAEBV?$allocator@D@2@XZ ENDP ; std::_Compressed_pair<std::allocator<char>,std::_String_val<std::_Simple_types<char> >,1>::_Get_first
_TEXT	ENDS
; Function compile flags: /Odtp /RTCsu /ZI
; File C:\Program Files\Microsoft Visual Studio\2022\Community\VC\Tools\MSVC\14.42.34433\include\xmemory
;	COMDAT ?_Get_first@?$_Compressed_pair@V?$allocator@D@std@@V?$_String_val@U?$_Simple_types@D@std@@@2@$00@std@@QEAAAEAV?$allocator@D@2@XZ
_TEXT	SEGMENT
this$ = 224
?_Get_first@?$_Compressed_pair@V?$allocator@D@std@@V?$_String_val@U?$_Simple_types@D@std@@@2@$00@std@@QEAAAEAV?$allocator@D@2@XZ PROC ; std::_Compressed_pair<std::allocator<char>,std::_String_val<std::_Simple_types<char> >,1>::_Get_first, COMDAT

; 1502 :     constexpr _Ty1& _Get_first() noexcept {

$LN4:
  00000	48 89 4c 24 08	 mov	 QWORD PTR [rsp+8], rcx
  00005	55		 push	 rbp
  00006	57		 push	 rdi
  00007	48 81 ec e8 00
	00 00		 sub	 rsp, 232		; 000000e8H
  0000e	48 8d 6c 24 20	 lea	 rbp, QWORD PTR [rsp+32]
  00013	48 8d 0d 00 00
	00 00		 lea	 rcx, OFFSET FLAT:__03BD3355_xmemory
  0001a	e8 00 00 00 00	 call	 __CheckForDebuggerJustMyCode
  0001f	90		 npad	 1

; 1503 :         return *this;

  00020	48 8b 85 e0 00
	00 00		 mov	 rax, QWORD PTR this$[rbp]

; 1504 :     }

  00027	48 8d a5 c8 00
	00 00		 lea	 rsp, QWORD PTR [rbp+200]
  0002e	5f		 pop	 rdi
  0002f	5d		 pop	 rbp
  00030	c3		 ret	 0
?_Get_first@?$_Compressed_pair@V?$allocator@D@std@@V?$_String_val@U?$_Simple_types@D@std@@@2@$00@std@@QEAAAEAV?$allocator@D@2@XZ ENDP ; std::_Compressed_pair<std::allocator<char>,std::_String_val<std::_Simple_types<char> >,1>::_Get_first
_TEXT	ENDS
; Function compile flags: /Odtp /RTCsu /ZI
; File C:\Program Files\Microsoft Visual Studio\2022\Community\VC\Tools\MSVC\14.42.34433\include\xstring
;	COMDAT ?_Getal@?$basic_string@DU?$char_traits@D@std@@V?$allocator@D@2@@std@@AEBAAEBV?$allocator@D@2@XZ
_TEXT	SEGMENT
this$ = 224
?_Getal@?$basic_string@DU?$char_traits@D@std@@V?$allocator@D@2@@std@@AEBAAEBV?$allocator@D@2@XZ PROC ; std::basic_string<char,std::char_traits<char>,std::allocator<char> >::_Getal, COMDAT

; 3085 :     _CONSTEXPR20 const _Alty& _Getal() const noexcept {

$LN4:
  00000	48 89 4c 24 08	 mov	 QWORD PTR [rsp+8], rcx
  00005	55		 push	 rbp
  00006	57		 push	 rdi
  00007	48 81 ec e8 00
	00 00		 sub	 rsp, 232		; 000000e8H
  0000e	48 8d 6c 24 20	 lea	 rbp, QWORD PTR [rsp+32]
  00013	48 8d 0d 00 00
	00 00		 lea	 rcx, OFFSET FLAT:__776EB5C9_xstring
  0001a	e8 00 00 00 00	 call	 __CheckForDebuggerJustMyCode
  0001f	90		 npad	 1

; 3086 :         return _Mypair._Get_first();

  00020	48 8b 85 e0 00
	00 00		 mov	 rax, QWORD PTR this$[rbp]
  00027	48 8b c8	 mov	 rcx, rax
  0002a	e8 00 00 00 00	 call	 ?_Get_first@?$_Compressed_pair@V?$allocator@D@std@@V?$_String_val@U?$_Simple_types@D@std@@@2@$00@std@@QEBAAEBV?$allocator@D@2@XZ ; std::_Compressed_pair<std::allocator<char>,std::_String_val<std::_Simple_types<char> >,1>::_Get_first

; 3087 :     }

  0002f	48 8d a5 c8 00
	00 00		 lea	 rsp, QWORD PTR [rbp+200]
  00036	5f		 pop	 rdi
  00037	5d		 pop	 rbp
  00038	c3		 ret	 0
?_Getal@?$basic_string@DU?$char_traits@D@std@@V?$allocator@D@2@@std@@AEBAAEBV?$allocator@D@2@XZ ENDP ; std::basic_string<char,std::char_traits<char>,std::allocator<char> >::_Getal
_TEXT	ENDS
; Function compile flags: /Odtp /RTCsu /ZI
; File C:\Program Files\Microsoft Visual Studio\2022\Community\VC\Tools\MSVC\14.42.34433\include\xstring
;	COMDAT ?_Getal@?$basic_string@DU?$char_traits@D@std@@V?$allocator@D@2@@std@@AEAAAEAV?$allocator@D@2@XZ
_TEXT	SEGMENT
this$ = 224
?_Getal@?$basic_string@DU?$char_traits@D@std@@V?$allocator@D@2@@std@@AEAAAEAV?$allocator@D@2@XZ PROC ; std::basic_string<char,std::char_traits<char>,std::allocator<char> >::_Getal, COMDAT

; 3081 :     _CONSTEXPR20 _Alty& _Getal() noexcept {

$LN4:
  00000	48 89 4c 24 08	 mov	 QWORD PTR [rsp+8], rcx
  00005	55		 push	 rbp
  00006	57		 push	 rdi
  00007	48 81 ec e8 00
	00 00		 sub	 rsp, 232		; 000000e8H
  0000e	48 8d 6c 24 20	 lea	 rbp, QWORD PTR [rsp+32]
  00013	48 8d 0d 00 00
	00 00		 lea	 rcx, OFFSET FLAT:__776EB5C9_xstring
  0001a	e8 00 00 00 00	 call	 __CheckForDebuggerJustMyCode
  0001f	90		 npad	 1

; 3082 :         return _Mypair._Get_first();

  00020	48 8b 85 e0 00
	00 00		 mov	 rax, QWORD PTR this$[rbp]
  00027	48 8b c8	 mov	 rcx, rax
  0002a	e8 00 00 00 00	 call	 ?_Get_first@?$_Compressed_pair@V?$allocator@D@std@@V?$_String_val@U?$_Simple_types@D@std@@@2@$00@std@@QEAAAEAV?$allocator@D@2@XZ ; std::_Compressed_pair<std::allocator<char>,std::_String_val<std::_Simple_types<char> >,1>::_Get_first

; 3083 :     }

  0002f	48 8d a5 c8 00
	00 00		 lea	 rsp, QWORD PTR [rbp+200]
  00036	5f		 pop	 rdi
  00037	5d		 pop	 rbp
  00038	c3		 ret	 0
?_Getal@?$basic_string@DU?$char_traits@D@std@@V?$allocator@D@2@@std@@AEAAAEAV?$allocator@D@2@XZ ENDP ; std::basic_string<char,std::char_traits<char>,std::allocator<char> >::_Getal
_TEXT	ENDS
; Function compile flags: /Odtp /RTCsu /ZI
; File C:\Program Files\Microsoft Visual Studio\2022\Community\VC\Tools\MSVC\14.42.34433\include\xstring
;	COMDAT ?_Tidy_deallocate@?$basic_string@DU?$char_traits@D@std@@V?$allocator@D@2@@std@@AEAAXXZ
_TEXT	SEGMENT
_My_data$ = 8
_Al$1 = 40
$T2 = 260
this$ = 320
?_Tidy_deallocate@?$basic_string@DU?$char_traits@D@std@@V?$allocator@D@2@@std@@AEAAXXZ PROC ; std::basic_string<char,std::char_traits<char>,std::allocator<char> >::_Tidy_deallocate, COMDAT

; 3055 :     _CONSTEXPR20 void _Tidy_deallocate() noexcept { // initialize buffer, deallocating any storage

$LN5:
  00000	48 89 4c 24 08	 mov	 QWORD PTR [rsp+8], rcx
  00005	55		 push	 rbp
  00006	57		 push	 rdi
  00007	48 81 ec 48 01
	00 00		 sub	 rsp, 328		; 00000148H
  0000e	48 8d 6c 24 20	 lea	 rbp, QWORD PTR [rsp+32]
  00013	48 8d 0d 00 00
	00 00		 lea	 rcx, OFFSET FLAT:__776EB5C9_xstring
  0001a	e8 00 00 00 00	 call	 __CheckForDebuggerJustMyCode
  0001f	90		 npad	 1

; 3056 :         auto& _My_data = _Mypair._Myval2;

  00020	48 8b 85 40 01
	00 00		 mov	 rax, QWORD PTR this$[rbp]
  00027	48 89 45 08	 mov	 QWORD PTR _My_data$[rbp], rax

; 3057 :         _My_data._Orphan_all();

  0002b	48 8b 4d 08	 mov	 rcx, QWORD PTR _My_data$[rbp]
  0002f	e8 00 00 00 00	 call	 ?_Orphan_all@_Container_base12@std@@QEAAXXZ ; std::_Container_base12::_Orphan_all
  00034	90		 npad	 1

; 3058 :         if (_My_data._Large_mode_engaged()) {

  00035	48 8b 4d 08	 mov	 rcx, QWORD PTR _My_data$[rbp]
  00039	e8 00 00 00 00	 call	 ?_Large_mode_engaged@?$_String_val@U?$_Simple_types@D@std@@@std@@QEBA_NXZ ; std::_String_val<std::_Simple_types<char> >::_Large_mode_engaged
  0003e	0f b6 c0	 movzx	 eax, al
  00041	85 c0		 test	 eax, eax
  00043	74 3b		 je	 SHORT $LN2@Tidy_deall

; 3059 :             _ASAN_STRING_REMOVE(*this);
; 3060 :             auto& _Al = _Getal();

  00045	48 8b 8d 40 01
	00 00		 mov	 rcx, QWORD PTR this$[rbp]
  0004c	e8 00 00 00 00	 call	 ?_Getal@?$basic_string@DU?$char_traits@D@std@@V?$allocator@D@2@@std@@AEAAAEAV?$allocator@D@2@XZ ; std::basic_string<char,std::char_traits<char>,std::allocator<char> >::_Getal
  00051	48 89 45 28	 mov	 QWORD PTR _Al$1[rbp], rax

; 3061 :             _Deallocate_for_capacity(_Al, _My_data._Bx._Ptr, _My_data._Myres);

  00055	48 8b 45 08	 mov	 rax, QWORD PTR _My_data$[rbp]
  00059	4c 8b 40 20	 mov	 r8, QWORD PTR [rax+32]
  0005d	48 8b 45 08	 mov	 rax, QWORD PTR _My_data$[rbp]
  00061	48 8b 50 08	 mov	 rdx, QWORD PTR [rax+8]
  00065	48 8b 4d 28	 mov	 rcx, QWORD PTR _Al$1[rbp]
  00069	e8 00 00 00 00	 call	 ?_Deallocate_for_capacity@?$basic_string@DU?$char_traits@D@std@@V?$allocator@D@2@@std@@CAXAEAV?$allocator@D@2@QEAD_K@Z ; std::basic_string<char,std::char_traits<char>,std::allocator<char> >::_Deallocate_for_capacity
  0006e	90		 npad	 1

; 3062 :             _My_data._Bx._Switch_to_buf();

  0006f	48 8b 45 08	 mov	 rax, QWORD PTR _My_data$[rbp]
  00073	48 83 c0 08	 add	 rax, 8
  00077	48 8b c8	 mov	 rcx, rax
  0007a	e8 00 00 00 00	 call	 ?_Switch_to_buf@_Bxty@?$_String_val@U?$_Simple_types@D@std@@@std@@QEAAXXZ ; std::_String_val<std::_Simple_types<char> >::_Bxty::_Switch_to_buf
  0007f	90		 npad	 1
$LN2@Tidy_deall:

; 3063 :         }
; 3064 : 
; 3065 :         _My_data._Mysize = 0;

  00080	48 8b 45 08	 mov	 rax, QWORD PTR _My_data$[rbp]
  00084	48 c7 40 18 00
	00 00 00	 mov	 QWORD PTR [rax+24], 0

; 3066 :         _My_data._Myres  = _Small_string_capacity;

  0008c	48 8b 45 08	 mov	 rax, QWORD PTR _My_data$[rbp]
  00090	48 c7 40 20 0f
	00 00 00	 mov	 QWORD PTR [rax+32], 15

; 3067 :         // the _Traits::assign is last so the codegen doesn't think the char write can alias this
; 3068 :         _Traits::assign(_My_data._Bx._Buf[0], _Elem());

  00098	c6 85 04 01 00
	00 00		 mov	 BYTE PTR $T2[rbp], 0
  0009f	b8 01 00 00 00	 mov	 eax, 1
  000a4	48 6b c0 00	 imul	 rax, rax, 0
  000a8	48 8b 4d 08	 mov	 rcx, QWORD PTR _My_data$[rbp]
  000ac	48 8d 44 01 08	 lea	 rax, QWORD PTR [rcx+rax+8]
  000b1	48 8d 95 04 01
	00 00		 lea	 rdx, QWORD PTR $T2[rbp]
  000b8	48 8b c8	 mov	 rcx, rax
  000bb	e8 00 00 00 00	 call	 ?assign@?$_Narrow_char_traits@DH@std@@SAXAEADAEBD@Z ; std::_Narrow_char_traits<char,int>::assign
  000c0	90		 npad	 1

; 3069 :     }

  000c1	48 8d a5 28 01
	00 00		 lea	 rsp, QWORD PTR [rbp+296]
  000c8	5f		 pop	 rdi
  000c9	5d		 pop	 rbp
  000ca	c3		 ret	 0
?_Tidy_deallocate@?$basic_string@DU?$char_traits@D@std@@V?$allocator@D@2@@std@@AEAAXXZ ENDP ; std::basic_string<char,std::char_traits<char>,std::allocator<char> >::_Tidy_deallocate
_TEXT	ENDS
; Function compile flags: /Odtp /RTCsu /ZI
; File C:\Program Files\Microsoft Visual Studio\2022\Community\VC\Tools\MSVC\14.42.34433\include\xstring
;	COMDAT ?_Calculate_growth@?$basic_string@DU?$char_traits@D@std@@V?$allocator@D@2@@std@@CA_K_K00@Z
_TEXT	SEGMENT
_Masked$ = 8
$T4 = 232
__$ArrayPad$ = 248
_Requested$ = 288
_Old$ = 296
_Max$ = 304
?_Calculate_growth@?$basic_string@DU?$char_traits@D@std@@V?$allocator@D@2@@std@@CA_K_K00@Z PROC ; std::basic_string<char,std::char_traits<char>,std::allocator<char> >::_Calculate_growth, COMDAT

; 2952 :         const size_type _Requested, const size_type _Old, const size_type _Max) noexcept {

$LN6:
  00000	4c 89 44 24 18	 mov	 QWORD PTR [rsp+24], r8
  00005	48 89 54 24 10	 mov	 QWORD PTR [rsp+16], rdx
  0000a	48 89 4c 24 08	 mov	 QWORD PTR [rsp+8], rcx
  0000f	55		 push	 rbp
  00010	57		 push	 rdi
  00011	48 81 ec 28 01
	00 00		 sub	 rsp, 296		; 00000128H
  00018	48 8d 6c 24 20	 lea	 rbp, QWORD PTR [rsp+32]
  0001d	48 8d 7c 24 20	 lea	 rdi, QWORD PTR [rsp+32]
  00022	b9 12 00 00 00	 mov	 ecx, 18
  00027	b8 cc cc cc cc	 mov	 eax, -858993460		; ccccccccH
  0002c	f3 ab		 rep stosd
  0002e	48 8b 8c 24 48
	01 00 00	 mov	 rcx, QWORD PTR [rsp+328]
  00036	48 8b 05 00 00
	00 00		 mov	 rax, QWORD PTR __security_cookie
  0003d	48 33 c5	 xor	 rax, rbp
  00040	48 89 85 f8 00
	00 00		 mov	 QWORD PTR __$ArrayPad$[rbp], rax
  00047	48 8d 0d 00 00
	00 00		 lea	 rcx, OFFSET FLAT:__776EB5C9_xstring
  0004e	e8 00 00 00 00	 call	 __CheckForDebuggerJustMyCode
  00053	90		 npad	 1

; 2953 :         const size_type _Masked = _Requested | _Alloc_mask;

  00054	48 8b 85 20 01
	00 00		 mov	 rax, QWORD PTR _Requested$[rbp]
  0005b	48 83 c8 0f	 or	 rax, 15
  0005f	48 89 45 08	 mov	 QWORD PTR _Masked$[rbp], rax

; 2954 :         if (_Masked > _Max) { // the mask overflows, settle for max_size()

  00063	48 8b 85 30 01
	00 00		 mov	 rax, QWORD PTR _Max$[rbp]
  0006a	48 39 45 08	 cmp	 QWORD PTR _Masked$[rbp], rax
  0006e	76 09		 jbe	 SHORT $LN2@Calculate_

; 2955 :             return _Max;

  00070	48 8b 85 30 01
	00 00		 mov	 rax, QWORD PTR _Max$[rbp]
  00077	eb 68		 jmp	 SHORT $LN1@Calculate_
$LN2@Calculate_:

; 2956 :         }
; 2957 : 
; 2958 :         if (_Old > _Max - _Old / 2) { // similarly, geometric overflows

  00079	33 d2		 xor	 edx, edx
  0007b	48 8b 85 28 01
	00 00		 mov	 rax, QWORD PTR _Old$[rbp]
  00082	b9 02 00 00 00	 mov	 ecx, 2
  00087	48 f7 f1	 div	 rcx
  0008a	48 8b 8d 30 01
	00 00		 mov	 rcx, QWORD PTR _Max$[rbp]
  00091	48 2b c8	 sub	 rcx, rax
  00094	48 8b c1	 mov	 rax, rcx
  00097	48 39 85 28 01
	00 00		 cmp	 QWORD PTR _Old$[rbp], rax
  0009e	76 09		 jbe	 SHORT $LN3@Calculate_

; 2959 :             return _Max;

  000a0	48 8b 85 30 01
	00 00		 mov	 rax, QWORD PTR _Max$[rbp]
  000a7	eb 38		 jmp	 SHORT $LN1@Calculate_
$LN3@Calculate_:

; 2960 :         }
; 2961 : 
; 2962 :         return (_STD max)(_Masked, _Old + _Old / 2);

  000a9	33 d2		 xor	 edx, edx
  000ab	48 8b 85 28 01
	00 00		 mov	 rax, QWORD PTR _Old$[rbp]
  000b2	b9 02 00 00 00	 mov	 ecx, 2
  000b7	48 f7 f1	 div	 rcx
  000ba	48 8b 8d 28 01
	00 00		 mov	 rcx, QWORD PTR _Old$[rbp]
  000c1	48 03 c8	 add	 rcx, rax
  000c4	48 8b c1	 mov	 rax, rcx
  000c7	48 89 85 e8 00
	00 00		 mov	 QWORD PTR $T4[rbp], rax
  000ce	48 8d 95 e8 00
	00 00		 lea	 rdx, QWORD PTR $T4[rbp]
  000d5	48 8d 4d 08	 lea	 rcx, QWORD PTR _Masked$[rbp]
  000d9	e8 00 00 00 00	 call	 ??$max@_K@std@@YAAEB_KAEB_K0@Z ; std::max<unsigned __int64>
  000de	48 8b 00	 mov	 rax, QWORD PTR [rax]
$LN1@Calculate_:

; 2963 :     }

  000e1	48 8b f8	 mov	 rdi, rax
  000e4	48 8d 4d e0	 lea	 rcx, QWORD PTR [rbp-32]
  000e8	48 8d 15 00 00
	00 00		 lea	 rdx, OFFSET FLAT:?_Calculate_growth@?$basic_string@DU?$char_traits@D@std@@V?$allocator@D@2@@std@@CA_K_K00@Z$rtcFrameData
  000ef	e8 00 00 00 00	 call	 _RTC_CheckStackVars
  000f4	48 8b c7	 mov	 rax, rdi
  000f7	48 8b 8d f8 00
	00 00		 mov	 rcx, QWORD PTR __$ArrayPad$[rbp]
  000fe	48 33 cd	 xor	 rcx, rbp
  00101	e8 00 00 00 00	 call	 __security_check_cookie
  00106	48 8d a5 08 01
	00 00		 lea	 rsp, QWORD PTR [rbp+264]
  0010d	5f		 pop	 rdi
  0010e	5d		 pop	 rbp
  0010f	c3		 ret	 0
?_Calculate_growth@?$basic_string@DU?$char_traits@D@std@@V?$allocator@D@2@@std@@CA_K_K00@Z ENDP ; std::basic_string<char,std::char_traits<char>,std::allocator<char> >::_Calculate_growth
_TEXT	ENDS
; Function compile flags: /Odtp /RTCsu /ZI
; File C:\Program Files\Microsoft Visual Studio\2022\Community\VC\Tools\MSVC\14.42.34433\include\xstring
;	COMDAT ?max_size@?$basic_string@DU?$char_traits@D@std@@V?$allocator@D@2@@std@@QEBA_KXZ
_TEXT	SEGMENT
_Alloc_max$ = 8
_Storage_max$ = 40
$T4 = 264
$T5 = 296
$T6 = 328
__$ArrayPad$ = 344
this$ = 384
?max_size@?$basic_string@DU?$char_traits@D@std@@V?$allocator@D@2@@std@@QEBA_KXZ PROC ; std::basic_string<char,std::char_traits<char>,std::allocator<char> >::max_size, COMDAT

; 2360 :     _NODISCARD _CONSTEXPR20 size_type max_size() const noexcept {

$LN4:
  00000	48 89 4c 24 08	 mov	 QWORD PTR [rsp+8], rcx
  00005	55		 push	 rbp
  00006	57		 push	 rdi
  00007	48 81 ec 88 01
	00 00		 sub	 rsp, 392		; 00000188H
  0000e	48 8d 6c 24 20	 lea	 rbp, QWORD PTR [rsp+32]
  00013	48 8d 7c 24 20	 lea	 rdi, QWORD PTR [rsp+32]
  00018	b9 2a 00 00 00	 mov	 ecx, 42			; 0000002aH
  0001d	b8 cc cc cc cc	 mov	 eax, -858993460		; ccccccccH
  00022	f3 ab		 rep stosd
  00024	48 8b 8c 24 a8
	01 00 00	 mov	 rcx, QWORD PTR [rsp+424]
  0002c	48 8b 05 00 00
	00 00		 mov	 rax, QWORD PTR __security_cookie
  00033	48 33 c5	 xor	 rax, rbp
  00036	48 89 85 58 01
	00 00		 mov	 QWORD PTR __$ArrayPad$[rbp], rax
  0003d	48 8d 0d 00 00
	00 00		 lea	 rcx, OFFSET FLAT:__776EB5C9_xstring
  00044	e8 00 00 00 00	 call	 __CheckForDebuggerJustMyCode
  00049	90		 npad	 1

; 2361 :         const size_type _Alloc_max   = _Alty_traits::max_size(_Getal());

  0004a	48 8b 8d 80 01
	00 00		 mov	 rcx, QWORD PTR this$[rbp]
  00051	e8 00 00 00 00	 call	 ?_Getal@?$basic_string@DU?$char_traits@D@std@@V?$allocator@D@2@@std@@AEBAAEBV?$allocator@D@2@XZ ; std::basic_string<char,std::char_traits<char>,std::allocator<char> >::_Getal
  00056	48 8b c8	 mov	 rcx, rax
  00059	e8 00 00 00 00	 call	 ?max_size@?$_Default_allocator_traits@V?$allocator@D@std@@@std@@SA_KAEBV?$allocator@D@2@@Z ; std::_Default_allocator_traits<std::allocator<char> >::max_size
  0005e	48 89 45 08	 mov	 QWORD PTR _Alloc_max$[rbp], rax

; 2362 :         const size_type _Storage_max = // can always store small string

  00062	48 c7 85 08 01
	00 00 10 00 00
	00		 mov	 QWORD PTR $T4[rbp], 16
  0006d	48 8d 95 08 01
	00 00		 lea	 rdx, QWORD PTR $T4[rbp]
  00074	48 8d 4d 08	 lea	 rcx, QWORD PTR _Alloc_max$[rbp]
  00078	e8 00 00 00 00	 call	 ??$max@_K@std@@YAAEB_KAEB_K0@Z ; std::max<unsigned __int64>
  0007d	48 8b 00	 mov	 rax, QWORD PTR [rax]
  00080	48 89 45 28	 mov	 QWORD PTR _Storage_max$[rbp], rax

; 2363 :             (_STD max)(_Alloc_max, static_cast<size_type>(_BUF_SIZE));
; 2364 :         return (_STD min)(static_cast<size_type>(_STD _Max_limit<difference_type>()),

  00084	48 8b 45 28	 mov	 rax, QWORD PTR _Storage_max$[rbp]
  00088	48 ff c8	 dec	 rax
  0008b	48 89 85 28 01
	00 00		 mov	 QWORD PTR $T5[rbp], rax
  00092	e8 00 00 00 00	 call	 ??$_Max_limit@_J@std@@YA_JXZ ; std::_Max_limit<__int64>
  00097	48 89 85 48 01
	00 00		 mov	 QWORD PTR $T6[rbp], rax
  0009e	48 8d 95 28 01
	00 00		 lea	 rdx, QWORD PTR $T5[rbp]
  000a5	48 8d 8d 48 01
	00 00		 lea	 rcx, QWORD PTR $T6[rbp]
  000ac	e8 00 00 00 00	 call	 ??$min@_K@std@@YAAEB_KAEB_K0@Z ; std::min<unsigned __int64>
  000b1	48 8b 00	 mov	 rax, QWORD PTR [rax]

; 2365 :             _Storage_max - 1 // -1 is for null terminator and/or npos
; 2366 :         );
; 2367 :     }

  000b4	48 8b f8	 mov	 rdi, rax
  000b7	48 8d 4d e0	 lea	 rcx, QWORD PTR [rbp-32]
  000bb	48 8d 15 00 00
	00 00		 lea	 rdx, OFFSET FLAT:?max_size@?$basic_string@DU?$char_traits@D@std@@V?$allocator@D@2@@std@@QEBA_KXZ$rtcFrameData
  000c2	e8 00 00 00 00	 call	 _RTC_CheckStackVars
  000c7	48 8b c7	 mov	 rax, rdi
  000ca	48 8b 8d 58 01
	00 00		 mov	 rcx, QWORD PTR __$ArrayPad$[rbp]
  000d1	48 33 cd	 xor	 rcx, rbp
  000d4	e8 00 00 00 00	 call	 __security_check_cookie
  000d9	48 8d a5 68 01
	00 00		 lea	 rsp, QWORD PTR [rbp+360]
  000e0	5f		 pop	 rdi
  000e1	5d		 pop	 rbp
  000e2	c3		 ret	 0
?max_size@?$basic_string@DU?$char_traits@D@std@@V?$allocator@D@2@@std@@QEBA_KXZ ENDP ; std::basic_string<char,std::char_traits<char>,std::allocator<char> >::max_size
_TEXT	ENDS
; Function compile flags: /Odtp /RTCsu /ZI
; File C:\Program Files\Microsoft Visual Studio\2022\Community\VC\Tools\MSVC\14.42.34433\include\xstring
;	COMDAT ?size@?$basic_string@DU?$char_traits@D@std@@V?$allocator@D@2@@std@@QEBA_KXZ
_TEXT	SEGMENT
this$ = 224
?size@?$basic_string@DU?$char_traits@D@std@@V?$allocator@D@2@@std@@QEBA_KXZ PROC ; std::basic_string<char,std::char_traits<char>,std::allocator<char> >::size, COMDAT

; 2356 :     _NODISCARD _CONSTEXPR20 size_type size() const noexcept {

$LN4:
  00000	48 89 4c 24 08	 mov	 QWORD PTR [rsp+8], rcx
  00005	55		 push	 rbp
  00006	57		 push	 rdi
  00007	48 81 ec e8 00
	00 00		 sub	 rsp, 232		; 000000e8H
  0000e	48 8d 6c 24 20	 lea	 rbp, QWORD PTR [rsp+32]
  00013	48 8d 0d 00 00
	00 00		 lea	 rcx, OFFSET FLAT:__776EB5C9_xstring
  0001a	e8 00 00 00 00	 call	 __CheckForDebuggerJustMyCode
  0001f	90		 npad	 1

; 2357 :         return _Mypair._Myval2._Mysize;

  00020	48 8b 85 e0 00
	00 00		 mov	 rax, QWORD PTR this$[rbp]
  00027	48 8b 40 18	 mov	 rax, QWORD PTR [rax+24]

; 2358 :     }

  0002b	48 8d a5 c8 00
	00 00		 lea	 rsp, QWORD PTR [rbp+200]
  00032	5f		 pop	 rdi
  00033	5d		 pop	 rbp
  00034	c3		 ret	 0
?size@?$basic_string@DU?$char_traits@D@std@@V?$allocator@D@2@@std@@QEBA_KXZ ENDP ; std::basic_string<char,std::char_traits<char>,std::allocator<char> >::size
_TEXT	ENDS
; Function compile flags: /Odtp /RTCsu /ZI
; File C:\Program Files\Microsoft Visual Studio\2022\Community\VC\Tools\MSVC\14.42.34433\include\xstring
;	COMDAT ?data@?$basic_string@DU?$char_traits@D@std@@V?$allocator@D@2@@std@@QEBAPEBDXZ
_TEXT	SEGMENT
this$ = 224
?data@?$basic_string@DU?$char_traits@D@std@@V?$allocator@D@2@@std@@QEBAPEBDXZ PROC ; std::basic_string<char,std::char_traits<char>,std::allocator<char> >::data, COMDAT

; 2342 :     _NODISCARD _CONSTEXPR20 _Ret_z_ const _Elem* data() const noexcept {

$LN4:
  00000	48 89 4c 24 08	 mov	 QWORD PTR [rsp+8], rcx
  00005	55		 push	 rbp
  00006	57		 push	 rdi
  00007	48 81 ec e8 00
	00 00		 sub	 rsp, 232		; 000000e8H
  0000e	48 8d 6c 24 20	 lea	 rbp, QWORD PTR [rsp+32]
  00013	48 8d 0d 00 00
	00 00		 lea	 rcx, OFFSET FLAT:__776EB5C9_xstring
  0001a	e8 00 00 00 00	 call	 __CheckForDebuggerJustMyCode
  0001f	90		 npad	 1

; 2343 :         return _Mypair._Myval2._Myptr();

  00020	48 8b 85 e0 00
	00 00		 mov	 rax, QWORD PTR this$[rbp]
  00027	48 8b c8	 mov	 rcx, rax
  0002a	e8 00 00 00 00	 call	 ?_Myptr@?$_String_val@U?$_Simple_types@D@std@@@std@@QEBAPEBDXZ ; std::_String_val<std::_Simple_types<char> >::_Myptr

; 2344 :     }

  0002f	48 8d a5 c8 00
	00 00		 lea	 rsp, QWORD PTR [rbp+200]
  00036	5f		 pop	 rdi
  00037	5d		 pop	 rbp
  00038	c3		 ret	 0
?data@?$basic_string@DU?$char_traits@D@std@@V?$allocator@D@2@@std@@QEBAPEBDXZ ENDP ; std::basic_string<char,std::char_traits<char>,std::allocator<char> >::data
_TEXT	ENDS
; Function compile flags: /Odtp /RTCsu /ZI
; File C:\Program Files\Microsoft Visual Studio\2022\Community\VC\Tools\MSVC\14.42.34433\include\xstring
;	COMDAT ??1?$basic_string@DU?$char_traits@D@std@@V?$allocator@D@2@@std@@QEAA@XZ
_TEXT	SEGMENT
_Alproxy$ = 8
$S4$ = 36
_To_delete$ = 72
__$ArrayPad$ = 280
this$ = 320
??1?$basic_string@DU?$char_traits@D@std@@V?$allocator@D@2@@std@@QEAA@XZ PROC ; std::basic_string<char,std::char_traits<char>,std::allocator<char> >::~basic_string<char,std::char_traits<char>,std::allocator<char> >, COMDAT

; 1369 :     _CONSTEXPR20 ~basic_string() noexcept {

$LN4:
  00000	48 89 4c 24 08	 mov	 QWORD PTR [rsp+8], rcx
  00005	55		 push	 rbp
  00006	57		 push	 rdi
  00007	48 81 ec 48 01
	00 00		 sub	 rsp, 328		; 00000148H
  0000e	48 8d 6c 24 20	 lea	 rbp, QWORD PTR [rsp+32]
  00013	48 8d 7c 24 20	 lea	 rdi, QWORD PTR [rsp+32]
  00018	b9 1a 00 00 00	 mov	 ecx, 26
  0001d	b8 cc cc cc cc	 mov	 eax, -858993460		; ccccccccH
  00022	f3 ab		 rep stosd
  00024	48 8b 8c 24 68
	01 00 00	 mov	 rcx, QWORD PTR [rsp+360]
  0002c	48 8b 05 00 00
	00 00		 mov	 rax, QWORD PTR __security_cookie
  00033	48 33 c5	 xor	 rax, rbp
  00036	48 89 85 18 01
	00 00		 mov	 QWORD PTR __$ArrayPad$[rbp], rax
  0003d	48 8d 0d 00 00
	00 00		 lea	 rcx, OFFSET FLAT:__776EB5C9_xstring
  00044	e8 00 00 00 00	 call	 __CheckForDebuggerJustMyCode
  00049	90		 npad	 1

; 1370 :         _Tidy_deallocate();

  0004a	48 8b 8d 40 01
	00 00		 mov	 rcx, QWORD PTR this$[rbp]
  00051	e8 00 00 00 00	 call	 ?_Tidy_deallocate@?$basic_string@DU?$char_traits@D@std@@V?$allocator@D@2@@std@@AEAAXXZ ; std::basic_string<char,std::char_traits<char>,std::allocator<char> >::_Tidy_deallocate
  00056	90		 npad	 1

; 1371 : #if _ITERATOR_DEBUG_LEVEL != 0
; 1372 :         auto&& _Alproxy          = _GET_PROXY_ALLOCATOR(_Alty, _Getal());

  00057	48 8b 8d 40 01
	00 00		 mov	 rcx, QWORD PTR this$[rbp]
  0005e	e8 00 00 00 00	 call	 ?_Getal@?$basic_string@DU?$char_traits@D@std@@V?$allocator@D@2@@std@@AEAAAEAV?$allocator@D@2@XZ ; std::basic_string<char,std::char_traits<char>,std::allocator<char> >::_Getal
  00063	48 8b d0	 mov	 rdx, rax
  00066	48 8d 4d 24	 lea	 rcx, QWORD PTR $S4$[rbp]
  0006a	e8 00 00 00 00	 call	 ??$?0D@?$allocator@U_Container_proxy@std@@@std@@QEAA@AEBV?$allocator@D@1@@Z ; std::allocator<std::_Container_proxy>::allocator<std::_Container_proxy><char>
  0006f	48 8d 45 24	 lea	 rax, QWORD PTR $S4$[rbp]
  00073	48 89 45 08	 mov	 QWORD PTR _Alproxy$[rbp], rax

; 1373 :         const auto _To_delete    = _Mypair._Myval2._Myproxy;

  00077	48 8b 85 40 01
	00 00		 mov	 rax, QWORD PTR this$[rbp]
  0007e	48 8b 00	 mov	 rax, QWORD PTR [rax]
  00081	48 89 45 48	 mov	 QWORD PTR _To_delete$[rbp], rax

; 1374 :         _Mypair._Myval2._Myproxy = nullptr;

  00085	48 8b 85 40 01
	00 00		 mov	 rax, QWORD PTR this$[rbp]
  0008c	48 c7 00 00 00
	00 00		 mov	 QWORD PTR [rax], 0

; 1375 :         _Delete_plain_internal(_Alproxy, _To_delete);

  00093	48 8b 55 48	 mov	 rdx, QWORD PTR _To_delete$[rbp]
  00097	48 8b 4d 08	 mov	 rcx, QWORD PTR _Alproxy$[rbp]
  0009b	e8 00 00 00 00	 call	 ??$_Delete_plain_internal@V?$allocator@U_Container_proxy@std@@@std@@@std@@YAXAEAV?$allocator@U_Container_proxy@std@@@0@QEAU_Container_proxy@0@@Z ; std::_Delete_plain_internal<std::allocator<std::_Container_proxy> >
  000a0	90		 npad	 1

; 1376 : #endif // _ITERATOR_DEBUG_LEVEL != 0
; 1377 :     }

  000a1	48 8b 85 40 01
	00 00		 mov	 rax, QWORD PTR this$[rbp]
  000a8	48 8b c8	 mov	 rcx, rax
  000ab	e8 00 00 00 00	 call	 ??1?$_Compressed_pair@V?$allocator@D@std@@V?$_String_val@U?$_Simple_types@D@std@@@2@$00@std@@QEAA@XZ
  000b0	90		 npad	 1
  000b1	48 8d 4d e0	 lea	 rcx, QWORD PTR [rbp-32]
  000b5	48 8d 15 00 00
	00 00		 lea	 rdx, OFFSET FLAT:??1?$basic_string@DU?$char_traits@D@std@@V?$allocator@D@2@@std@@QEAA@XZ$rtcFrameData
  000bc	e8 00 00 00 00	 call	 _RTC_CheckStackVars
  000c1	48 8b 8d 18 01
	00 00		 mov	 rcx, QWORD PTR __$ArrayPad$[rbp]
  000c8	48 33 cd	 xor	 rcx, rbp
  000cb	e8 00 00 00 00	 call	 __security_check_cookie
  000d0	48 8d a5 28 01
	00 00		 lea	 rsp, QWORD PTR [rbp+296]
  000d7	5f		 pop	 rdi
  000d8	5d		 pop	 rbp
  000d9	c3		 ret	 0
??1?$basic_string@DU?$char_traits@D@std@@V?$allocator@D@2@@std@@QEAA@XZ ENDP ; std::basic_string<char,std::char_traits<char>,std::allocator<char> >::~basic_string<char,std::char_traits<char>,std::allocator<char> >
_TEXT	ENDS
; Function compile flags: /Odtp /RTCsu /ZI
; File C:\Program Files\Microsoft Visual Studio\2022\Community\VC\Tools\MSVC\14.42.34433\include\xstring
;	COMDAT ?_Deallocate_for_capacity@?$basic_string@DU?$char_traits@D@std@@V?$allocator@D@2@@std@@CAXAEAV?$allocator@D@2@QEAD_K@Z
_TEXT	SEGMENT
_Al$ = 224
_Old_ptr$ = 232
_Capacity$ = 240
?_Deallocate_for_capacity@?$basic_string@DU?$char_traits@D@std@@V?$allocator@D@2@@std@@CAXAEAV?$allocator@D@2@QEAD_K@Z PROC ; std::basic_string<char,std::char_traits<char>,std::allocator<char> >::_Deallocate_for_capacity, COMDAT

; 831  :         _Alty& _Al, const pointer _Old_ptr, const size_type _Capacity) noexcept {

$LN4:
  00000	4c 89 44 24 18	 mov	 QWORD PTR [rsp+24], r8
  00005	48 89 54 24 10	 mov	 QWORD PTR [rsp+16], rdx
  0000a	48 89 4c 24 08	 mov	 QWORD PTR [rsp+8], rcx
  0000f	55		 push	 rbp
  00010	57		 push	 rdi
  00011	48 81 ec e8 00
	00 00		 sub	 rsp, 232		; 000000e8H
  00018	48 8d 6c 24 20	 lea	 rbp, QWORD PTR [rsp+32]
  0001d	48 8d 0d 00 00
	00 00		 lea	 rcx, OFFSET FLAT:__776EB5C9_xstring
  00024	e8 00 00 00 00	 call	 __CheckForDebuggerJustMyCode
  00029	90		 npad	 1

; 832  :         _STL_INTERNAL_CHECK(_Capacity > _Small_string_capacity);
; 833  :         _Al.deallocate(_Old_ptr, _Capacity + 1); // +1 for null terminator

  0002a	48 8b 85 f0 00
	00 00		 mov	 rax, QWORD PTR _Capacity$[rbp]
  00031	48 ff c0	 inc	 rax
  00034	4c 8b c0	 mov	 r8, rax
  00037	48 8b 95 e8 00
	00 00		 mov	 rdx, QWORD PTR _Old_ptr$[rbp]
  0003e	48 8b 8d e0 00
	00 00		 mov	 rcx, QWORD PTR _Al$[rbp]
  00045	e8 00 00 00 00	 call	 ?deallocate@?$allocator@D@std@@QEAAXQEAD_K@Z ; std::allocator<char>::deallocate
  0004a	90		 npad	 1

; 834  :     }

  0004b	48 8d a5 c8 00
	00 00		 lea	 rsp, QWORD PTR [rbp+200]
  00052	5f		 pop	 rdi
  00053	5d		 pop	 rbp
  00054	c3		 ret	 0
?_Deallocate_for_capacity@?$basic_string@DU?$char_traits@D@std@@V?$allocator@D@2@@std@@CAXAEAV?$allocator@D@2@QEAD_K@Z ENDP ; std::basic_string<char,std::char_traits<char>,std::allocator<char> >::_Deallocate_for_capacity
_TEXT	ENDS
; Function compile flags: /Odtp /RTCsu /ZI
; File C:\Program Files\Microsoft Visual Studio\2022\Community\VC\Tools\MSVC\14.42.34433\include\xstring
;	COMDAT ??0?$basic_string@DU?$char_traits@D@std@@V?$allocator@D@2@@std@@QEAA@QEBD@Z
_TEXT	SEGMENT
$T1 = 196
this$ = 256
_Ptr$ = 264
??0?$basic_string@DU?$char_traits@D@std@@V?$allocator@D@2@@std@@QEAA@QEBD@Z PROC ; std::basic_string<char,std::char_traits<char>,std::allocator<char> >::basic_string<char,std::char_traits<char>,std::allocator<char> >, COMDAT

; 749  :     _CONSTEXPR20 basic_string(_In_z_ const _Elem* const _Ptr) : _Mypair(_Zero_then_variadic_args_t{}) {

$LN4:
  00000	48 89 54 24 10	 mov	 QWORD PTR [rsp+16], rdx
  00005	48 89 4c 24 08	 mov	 QWORD PTR [rsp+8], rcx
  0000a	55		 push	 rbp
  0000b	57		 push	 rdi
  0000c	48 81 ec 08 01
	00 00		 sub	 rsp, 264		; 00000108H
  00013	48 8d 6c 24 20	 lea	 rbp, QWORD PTR [rsp+32]
  00018	48 8d 0d 00 00
	00 00		 lea	 rcx, OFFSET FLAT:__776EB5C9_xstring
  0001f	e8 00 00 00 00	 call	 __CheckForDebuggerJustMyCode
  00024	90		 npad	 1
  00025	48 8b 85 00 01
	00 00		 mov	 rax, QWORD PTR this$[rbp]
  0002c	0f b6 95 c4 00
	00 00		 movzx	 edx, BYTE PTR $T1[rbp]
  00033	48 8b c8	 mov	 rcx, rax
  00036	e8 00 00 00 00	 call	 ??$?0$$V@?$_Compressed_pair@V?$allocator@D@std@@V?$_String_val@U?$_Simple_types@D@std@@@2@$00@std@@QEAA@U_Zero_then_variadic_args_t@1@@Z ; std::_Compressed_pair<std::allocator<char>,std::_String_val<std::_Simple_types<char> >,1>::_Compressed_pair<std::allocator<char>,std::_String_val<std::_Simple_types<char> >,1><>
  0003b	90		 npad	 1

; 750  :         _Construct<_Construct_strategy::_From_ptr>(_Ptr, _Convert_size<size_type>(_Traits::length(_Ptr)));

  0003c	48 8b 8d 08 01
	00 00		 mov	 rcx, QWORD PTR _Ptr$[rbp]
  00043	e8 00 00 00 00	 call	 ?length@?$_Narrow_char_traits@DH@std@@SA_KQEBD@Z ; std::_Narrow_char_traits<char,int>::length
  00048	48 8b c8	 mov	 rcx, rax
  0004b	e8 00 00 00 00	 call	 ??$_Convert_size@_K_K@std@@YA_K_K@Z ; std::_Convert_size<unsigned __int64,unsigned __int64>
  00050	4c 8b c0	 mov	 r8, rax
  00053	48 8b 95 08 01
	00 00		 mov	 rdx, QWORD PTR _Ptr$[rbp]
  0005a	48 8b 8d 00 01
	00 00		 mov	 rcx, QWORD PTR this$[rbp]
  00061	e8 00 00 00 00	 call	 ??$_Construct@$00PEBD@?$basic_string@DU?$char_traits@D@std@@V?$allocator@D@2@@std@@AEAAXQEBD_K@Z ; std::basic_string<char,std::char_traits<char>,std::allocator<char> >::_Construct<1,char const *>
  00066	90		 npad	 1

; 751  :     }

  00067	48 8b 85 00 01
	00 00		 mov	 rax, QWORD PTR this$[rbp]
  0006e	48 8d a5 e8 00
	00 00		 lea	 rsp, QWORD PTR [rbp+232]
  00075	5f		 pop	 rdi
  00076	5d		 pop	 rbp
  00077	c3		 ret	 0
??0?$basic_string@DU?$char_traits@D@std@@V?$allocator@D@2@@std@@QEAA@QEBD@Z ENDP ; std::basic_string<char,std::char_traits<char>,std::allocator<char> >::basic_string<char,std::char_traits<char>,std::allocator<char> >
_TEXT	ENDS
; Function compile flags: /Odtp /RTCsu /ZI
;	COMDAT text$x
text$x	SEGMENT
$T1 = 196
this$ = 256
_Ptr$ = 264
?dtor$0@?0???0?$basic_string@DU?$char_traits@D@std@@V?$allocator@D@2@@std@@QEAA@QEBD@Z@4HA PROC ; `std::basic_string<char,std::char_traits<char>,std::allocator<char> >::basic_string<char,std::char_traits<char>,std::allocator<char> >'::`1'::dtor$0
  00000	48 89 4c 24 08	 mov	 QWORD PTR [rsp+8], rcx
  00005	48 89 54 24 10	 mov	 QWORD PTR [rsp+16], rdx
  0000a	55		 push	 rbp
  0000b	57		 push	 rdi
  0000c	48 83 ec 28	 sub	 rsp, 40			; 00000028H
  00010	48 8d 6a 20	 lea	 rbp, QWORD PTR [rdx+32]
  00014	48 8b 8d 00 01
	00 00		 mov	 rcx, QWORD PTR this$[rbp]
  0001b	e8 00 00 00 00	 call	 ??1?$_Compressed_pair@V?$allocator@D@std@@V?$_String_val@U?$_Simple_types@D@std@@@2@$00@std@@QEAA@XZ
  00020	48 83 c4 28	 add	 rsp, 40			; 00000028H
  00024	5f		 pop	 rdi
  00025	5d		 pop	 rbp
  00026	c3		 ret	 0
?dtor$0@?0???0?$basic_string@DU?$char_traits@D@std@@V?$allocator@D@2@@std@@QEAA@QEBD@Z@4HA ENDP ; `std::basic_string<char,std::char_traits<char>,std::allocator<char> >::basic_string<char,std::char_traits<char>,std::allocator<char> >'::`1'::dtor$0
text$x	ENDS
; Function compile flags: /Odtp /RTCsu /ZI
; File C:\Program Files\Microsoft Visual Studio\2022\Community\VC\Tools\MSVC\14.42.34433\include\xstring
;	COMDAT ??0?$basic_string@DU?$char_traits@D@std@@V?$allocator@D@2@@std@@QEAA@AEBV01@@Z
_TEXT	SEGMENT
$T1 = 196
$T2 = 228
this$ = 288
_Right$ = 296
??0?$basic_string@DU?$char_traits@D@std@@V?$allocator@D@2@@std@@QEAA@AEBV01@@Z PROC ; std::basic_string<char,std::char_traits<char>,std::allocator<char> >::basic_string<char,std::char_traits<char>,std::allocator<char> >, COMDAT

; 698  :         : _Mypair(_One_then_variadic_args_t{}, _Alty_traits::select_on_container_copy_construction(_Right._Getal())) {

$LN4:
  00000	48 89 54 24 10	 mov	 QWORD PTR [rsp+16], rdx
  00005	48 89 4c 24 08	 mov	 QWORD PTR [rsp+8], rcx
  0000a	55		 push	 rbp
  0000b	57		 push	 rdi
  0000c	48 81 ec 28 01
	00 00		 sub	 rsp, 296		; 00000128H
  00013	48 8d 6c 24 20	 lea	 rbp, QWORD PTR [rsp+32]
  00018	48 8d 0d 00 00
	00 00		 lea	 rcx, OFFSET FLAT:__776EB5C9_xstring
  0001f	e8 00 00 00 00	 call	 __CheckForDebuggerJustMyCode
  00024	90		 npad	 1
  00025	48 8b 8d 28 01
	00 00		 mov	 rcx, QWORD PTR _Right$[rbp]
  0002c	e8 00 00 00 00	 call	 ?_Getal@?$basic_string@DU?$char_traits@D@std@@V?$allocator@D@2@@std@@AEBAAEBV?$allocator@D@2@XZ ; std::basic_string<char,std::char_traits<char>,std::allocator<char> >::_Getal
  00031	48 8b d0	 mov	 rdx, rax
  00034	48 8d 8d c4 00
	00 00		 lea	 rcx, QWORD PTR $T1[rbp]
  0003b	e8 00 00 00 00	 call	 ?select_on_container_copy_construction@?$_Default_allocator_traits@V?$allocator@D@std@@@std@@SA?AV?$allocator@D@2@AEBV32@@Z ; std::_Default_allocator_traits<std::allocator<char> >::select_on_container_copy_construction
  00040	48 8b 8d 20 01
	00 00		 mov	 rcx, QWORD PTR this$[rbp]
  00047	4c 8b c0	 mov	 r8, rax
  0004a	0f b6 95 e4 00
	00 00		 movzx	 edx, BYTE PTR $T2[rbp]
  00051	e8 00 00 00 00	 call	 ??$?0V?$allocator@D@std@@$$V@?$_Compressed_pair@V?$allocator@D@std@@V?$_String_val@U?$_Simple_types@D@std@@@2@$00@std@@QEAA@U_One_then_variadic_args_t@1@$$QEAV?$allocator@D@1@@Z ; std::_Compressed_pair<std::allocator<char>,std::_String_val<std::_Simple_types<char> >,1>::_Compressed_pair<std::allocator<char>,std::_String_val<std::_Simple_types<char> >,1><std::allocator<char> >
  00056	90		 npad	 1

; 699  :         _Construct<_Construct_strategy::_From_string>(_Right._Mypair._Myval2._Myptr(), _Right._Mypair._Myval2._Mysize);

  00057	48 8b 85 28 01
	00 00		 mov	 rax, QWORD PTR _Right$[rbp]
  0005e	48 8b c8	 mov	 rcx, rax
  00061	e8 00 00 00 00	 call	 ?_Myptr@?$_String_val@U?$_Simple_types@D@std@@@std@@QEBAPEBDXZ ; std::_String_val<std::_Simple_types<char> >::_Myptr
  00066	48 8b 8d 28 01
	00 00		 mov	 rcx, QWORD PTR _Right$[rbp]
  0006d	4c 8b 41 18	 mov	 r8, QWORD PTR [rcx+24]
  00071	48 8b d0	 mov	 rdx, rax
  00074	48 8b 8d 20 01
	00 00		 mov	 rcx, QWORD PTR this$[rbp]
  0007b	e8 00 00 00 00	 call	 ??$_Construct@$01PEBD@?$basic_string@DU?$char_traits@D@std@@V?$allocator@D@2@@std@@AEAAXQEBD_K@Z ; std::basic_string<char,std::char_traits<char>,std::allocator<char> >::_Construct<2,char const *>
  00080	90		 npad	 1

; 700  :     }

  00081	48 8b 85 20 01
	00 00		 mov	 rax, QWORD PTR this$[rbp]
  00088	48 8d a5 08 01
	00 00		 lea	 rsp, QWORD PTR [rbp+264]
  0008f	5f		 pop	 rdi
  00090	5d		 pop	 rbp
  00091	c3		 ret	 0
??0?$basic_string@DU?$char_traits@D@std@@V?$allocator@D@2@@std@@QEAA@AEBV01@@Z ENDP ; std::basic_string<char,std::char_traits<char>,std::allocator<char> >::basic_string<char,std::char_traits<char>,std::allocator<char> >
_TEXT	ENDS
; Function compile flags: /Odtp /RTCsu /ZI
;	COMDAT text$x
text$x	SEGMENT
$T1 = 196
$T2 = 228
this$ = 288
_Right$ = 296
?dtor$0@?0???0?$basic_string@DU?$char_traits@D@std@@V?$allocator@D@2@@std@@QEAA@AEBV01@@Z@4HA PROC ; `std::basic_string<char,std::char_traits<char>,std::allocator<char> >::basic_string<char,std::char_traits<char>,std::allocator<char> >'::`1'::dtor$0
  00000	48 89 4c 24 08	 mov	 QWORD PTR [rsp+8], rcx
  00005	48 89 54 24 10	 mov	 QWORD PTR [rsp+16], rdx
  0000a	55		 push	 rbp
  0000b	57		 push	 rdi
  0000c	48 83 ec 28	 sub	 rsp, 40			; 00000028H
  00010	48 8d 6a 20	 lea	 rbp, QWORD PTR [rdx+32]
  00014	48 8b 8d 20 01
	00 00		 mov	 rcx, QWORD PTR this$[rbp]
  0001b	e8 00 00 00 00	 call	 ??1?$_Compressed_pair@V?$allocator@D@std@@V?$_String_val@U?$_Simple_types@D@std@@@2@$00@std@@QEAA@XZ
  00020	48 83 c4 28	 add	 rsp, 40			; 00000028H
  00024	5f		 pop	 rdi
  00025	5d		 pop	 rbp
  00026	c3		 ret	 0
?dtor$0@?0???0?$basic_string@DU?$char_traits@D@std@@V?$allocator@D@2@@std@@QEAA@AEBV01@@Z@4HA ENDP ; `std::basic_string<char,std::char_traits<char>,std::allocator<char> >::basic_string<char,std::char_traits<char>,std::allocator<char> >'::`1'::dtor$0
text$x	ENDS
; Function compile flags: /Odtp /RTCsu /ZI
;	COMDAT ??1?$_String_val@U?$_Simple_types@D@std@@@std@@QEAA@XZ
_TEXT	SEGMENT
this$ = 224
??1?$_String_val@U?$_Simple_types@D@std@@@std@@QEAA@XZ PROC ; std::_String_val<std::_Simple_types<char> >::~_String_val<std::_Simple_types<char> >, COMDAT
$LN4:
  00000	48 89 4c 24 08	 mov	 QWORD PTR [rsp+8], rcx
  00005	55		 push	 rbp
  00006	57		 push	 rdi
  00007	48 81 ec e8 00
	00 00		 sub	 rsp, 232		; 000000e8H
  0000e	48 8d 6c 24 20	 lea	 rbp, QWORD PTR [rsp+32]
  00013	48 8b 85 e0 00
	00 00		 mov	 rax, QWORD PTR this$[rbp]
  0001a	48 83 c0 08	 add	 rax, 8
  0001e	48 8b c8	 mov	 rcx, rax
  00021	e8 00 00 00 00	 call	 ??1_Bxty@?$_String_val@U?$_Simple_types@D@std@@@std@@QEAA@XZ ; std::_String_val<std::_Simple_types<char> >::_Bxty::~_Bxty
  00026	90		 npad	 1
  00027	48 8d a5 c8 00
	00 00		 lea	 rsp, QWORD PTR [rbp+200]
  0002e	5f		 pop	 rdi
  0002f	5d		 pop	 rbp
  00030	c3		 ret	 0
??1?$_String_val@U?$_Simple_types@D@std@@@std@@QEAA@XZ ENDP ; std::_String_val<std::_Simple_types<char> >::~_String_val<std::_Simple_types<char> >
_TEXT	ENDS
; Function compile flags: /Odtp /RTCsu /ZI
; File C:\Program Files\Microsoft Visual Studio\2022\Community\VC\Tools\MSVC\14.42.34433\include\xstring
;	COMDAT ?_Switch_to_buf@_Bxty@?$_String_val@U?$_Simple_types@D@std@@@std@@QEAAXXZ
_TEXT	SEGMENT
this$ = 224
?_Switch_to_buf@_Bxty@?$_String_val@U?$_Simple_types@D@std@@@std@@QEAAXXZ PROC ; std::_String_val<std::_Simple_types<char> >::_Bxty::_Switch_to_buf, COMDAT

; 481  :         _CONSTEXPR20 void _Switch_to_buf() noexcept {

$LN4:
  00000	48 89 4c 24 08	 mov	 QWORD PTR [rsp+8], rcx
  00005	55		 push	 rbp
  00006	57		 push	 rdi
  00007	48 81 ec e8 00
	00 00		 sub	 rsp, 232		; 000000e8H
  0000e	48 8d 6c 24 20	 lea	 rbp, QWORD PTR [rsp+32]
  00013	48 8d 0d 00 00
	00 00		 lea	 rcx, OFFSET FLAT:__776EB5C9_xstring
  0001a	e8 00 00 00 00	 call	 __CheckForDebuggerJustMyCode
  0001f	90		 npad	 1

; 482  :             _STD _Destroy_in_place(_Ptr);

  00020	48 8b 85 e0 00
	00 00		 mov	 rax, QWORD PTR this$[rbp]
  00027	48 8b c8	 mov	 rcx, rax
  0002a	e8 00 00 00 00	 call	 ??$_Destroy_in_place@PEAD@std@@YAXAEAPEAD@Z ; std::_Destroy_in_place<char *>
  0002f	90		 npad	 1

; 483  : 
; 484  : #if _HAS_CXX20
; 485  :             // start the lifetime of the array elements
; 486  :             if (_STD is_constant_evaluated()) {
; 487  :                 for (size_type _Idx = 0; _Idx < _BUF_SIZE; ++_Idx) {
; 488  :                     _Buf[_Idx] = value_type();
; 489  :                 }
; 490  :             }
; 491  : #endif // _HAS_CXX20
; 492  :         }

  00030	48 8d a5 c8 00
	00 00		 lea	 rsp, QWORD PTR [rbp+200]
  00037	5f		 pop	 rdi
  00038	5d		 pop	 rbp
  00039	c3		 ret	 0
?_Switch_to_buf@_Bxty@?$_String_val@U?$_Simple_types@D@std@@@std@@QEAAXXZ ENDP ; std::_String_val<std::_Simple_types<char> >::_Bxty::_Switch_to_buf
_TEXT	ENDS
; Function compile flags: /Odtp /RTCsu /ZI
; File C:\Program Files\Microsoft Visual Studio\2022\Community\VC\Tools\MSVC\14.42.34433\include\xstring
;	COMDAT ??1_Bxty@?$_String_val@U?$_Simple_types@D@std@@@std@@QEAA@XZ
_TEXT	SEGMENT
this$ = 224
??1_Bxty@?$_String_val@U?$_Simple_types@D@std@@@std@@QEAA@XZ PROC ; std::_String_val<std::_Simple_types<char> >::_Bxty::~_Bxty, COMDAT

; 475  :         _CONSTEXPR20 ~_Bxty() noexcept {} // user-provided, for fancy pointers

$LN4:
  00000	48 89 4c 24 08	 mov	 QWORD PTR [rsp+8], rcx
  00005	55		 push	 rbp
  00006	57		 push	 rdi
  00007	48 81 ec e8 00
	00 00		 sub	 rsp, 232		; 000000e8H
  0000e	48 8d 6c 24 20	 lea	 rbp, QWORD PTR [rsp+32]
  00013	48 8d 0d 00 00
	00 00		 lea	 rcx, OFFSET FLAT:__776EB5C9_xstring
  0001a	e8 00 00 00 00	 call	 __CheckForDebuggerJustMyCode
  0001f	90		 npad	 1
  00020	48 8d a5 c8 00
	00 00		 lea	 rsp, QWORD PTR [rbp+200]
  00027	5f		 pop	 rdi
  00028	5d		 pop	 rbp
  00029	c3		 ret	 0
??1_Bxty@?$_String_val@U?$_Simple_types@D@std@@@std@@QEAA@XZ ENDP ; std::_String_val<std::_Simple_types<char> >::_Bxty::~_Bxty
_TEXT	ENDS
; Function compile flags: /Odtp /RTCsu /ZI
; File C:\Program Files\Microsoft Visual Studio\2022\Community\VC\Tools\MSVC\14.42.34433\include\xstring
;	COMDAT ??0_Bxty@?$_String_val@U?$_Simple_types@D@std@@@std@@QEAA@XZ
_TEXT	SEGMENT
this$ = 224
??0_Bxty@?$_String_val@U?$_Simple_types@D@std@@@std@@QEAA@XZ PROC ; std::_String_val<std::_Simple_types<char> >::_Bxty::_Bxty, COMDAT

; 474  :         _CONSTEXPR20 _Bxty() noexcept : _Buf() {} // user-provided, for fancy pointers

$LN4:
  00000	48 89 4c 24 08	 mov	 QWORD PTR [rsp+8], rcx
  00005	55		 push	 rbp
  00006	57		 push	 rdi
  00007	48 81 ec e8 00
	00 00		 sub	 rsp, 232		; 000000e8H
  0000e	48 8d 6c 24 20	 lea	 rbp, QWORD PTR [rsp+32]
  00013	48 8d 0d 00 00
	00 00		 lea	 rcx, OFFSET FLAT:__776EB5C9_xstring
  0001a	e8 00 00 00 00	 call	 __CheckForDebuggerJustMyCode
  0001f	90		 npad	 1
  00020	48 8b 85 e0 00
	00 00		 mov	 rax, QWORD PTR this$[rbp]
  00027	48 8b bd e0 00
	00 00		 mov	 rdi, QWORD PTR this$[rbp]
  0002e	33 c0		 xor	 eax, eax
  00030	b9 10 00 00 00	 mov	 ecx, 16
  00035	f3 aa		 rep stosb
  00037	48 8b 85 e0 00
	00 00		 mov	 rax, QWORD PTR this$[rbp]
  0003e	48 8d a5 c8 00
	00 00		 lea	 rsp, QWORD PTR [rbp+200]
  00045	5f		 pop	 rdi
  00046	5d		 pop	 rbp
  00047	c3		 ret	 0
??0_Bxty@?$_String_val@U?$_Simple_types@D@std@@@std@@QEAA@XZ ENDP ; std::_String_val<std::_Simple_types<char> >::_Bxty::_Bxty
_TEXT	ENDS
; Function compile flags: /Odtp /RTCsu /ZI
; File C:\Program Files\Microsoft Visual Studio\2022\Community\VC\Tools\MSVC\14.42.34433\include\xstring
;	COMDAT ?_Large_mode_engaged@?$_String_val@U?$_Simple_types@D@std@@@std@@QEBA_NXZ
_TEXT	SEGMENT
tv66 = 192
this$ = 240
?_Large_mode_engaged@?$_String_val@U?$_Simple_types@D@std@@@std@@QEBA_NXZ PROC ; std::_String_val<std::_Simple_types<char> >::_Large_mode_engaged, COMDAT

; 433  :     _NODISCARD _CONSTEXPR20 bool _Large_mode_engaged() const noexcept {

$LN6:
  00000	48 89 4c 24 08	 mov	 QWORD PTR [rsp+8], rcx
  00005	55		 push	 rbp
  00006	57		 push	 rdi
  00007	48 81 ec f8 00
	00 00		 sub	 rsp, 248		; 000000f8H
  0000e	48 8d 6c 24 20	 lea	 rbp, QWORD PTR [rsp+32]
  00013	48 8d 0d 00 00
	00 00		 lea	 rcx, OFFSET FLAT:__776EB5C9_xstring
  0001a	e8 00 00 00 00	 call	 __CheckForDebuggerJustMyCode
  0001f	90		 npad	 1

; 434  :         return _Myres > _Small_string_capacity;

  00020	48 8b 85 f0 00
	00 00		 mov	 rax, QWORD PTR this$[rbp]
  00027	48 83 78 20 0f	 cmp	 QWORD PTR [rax+32], 15
  0002c	76 0c		 jbe	 SHORT $LN3@Large_mode
  0002e	c7 85 c0 00 00
	00 01 00 00 00	 mov	 DWORD PTR tv66[rbp], 1
  00038	eb 0a		 jmp	 SHORT $LN4@Large_mode
$LN3@Large_mode:
  0003a	c7 85 c0 00 00
	00 00 00 00 00	 mov	 DWORD PTR tv66[rbp], 0
$LN4@Large_mode:
  00044	0f b6 85 c0 00
	00 00		 movzx	 eax, BYTE PTR tv66[rbp]

; 435  :     }

  0004b	48 8d a5 d8 00
	00 00		 lea	 rsp, QWORD PTR [rbp+216]
  00052	5f		 pop	 rdi
  00053	5d		 pop	 rbp
  00054	c3		 ret	 0
?_Large_mode_engaged@?$_String_val@U?$_Simple_types@D@std@@@std@@QEBA_NXZ ENDP ; std::_String_val<std::_Simple_types<char> >::_Large_mode_engaged
_TEXT	ENDS
; Function compile flags: /Odtp /RTCsu /ZI
; File C:\Program Files\Microsoft Visual Studio\2022\Community\VC\Tools\MSVC\14.42.34433\include\xstring
;	COMDAT ?_Myptr@?$_String_val@U?$_Simple_types@D@std@@@std@@QEBAPEBDXZ
_TEXT	SEGMENT
_Result$ = 8
this$ = 256
?_Myptr@?$_String_val@U?$_Simple_types@D@std@@@std@@QEBAPEBDXZ PROC ; std::_String_val<std::_Simple_types<char> >::_Myptr, COMDAT

; 424  :     _NODISCARD _CONSTEXPR20 const value_type* _Myptr() const noexcept {

$LN5:
  00000	48 89 4c 24 08	 mov	 QWORD PTR [rsp+8], rcx
  00005	55		 push	 rbp
  00006	57		 push	 rdi
  00007	48 81 ec 08 01
	00 00		 sub	 rsp, 264		; 00000108H
  0000e	48 8d 6c 24 20	 lea	 rbp, QWORD PTR [rsp+32]
  00013	48 8d 0d 00 00
	00 00		 lea	 rcx, OFFSET FLAT:__776EB5C9_xstring
  0001a	e8 00 00 00 00	 call	 __CheckForDebuggerJustMyCode
  0001f	90		 npad	 1

; 425  :         const value_type* _Result = _Bx._Buf;

  00020	48 8b 85 00 01
	00 00		 mov	 rax, QWORD PTR this$[rbp]
  00027	48 83 c0 08	 add	 rax, 8
  0002b	48 89 45 08	 mov	 QWORD PTR _Result$[rbp], rax

; 426  :         if (_Large_mode_engaged()) {

  0002f	48 8b 8d 00 01
	00 00		 mov	 rcx, QWORD PTR this$[rbp]
  00036	e8 00 00 00 00	 call	 ?_Large_mode_engaged@?$_String_val@U?$_Simple_types@D@std@@@std@@QEBA_NXZ ; std::_String_val<std::_Simple_types<char> >::_Large_mode_engaged
  0003b	0f b6 c0	 movzx	 eax, al
  0003e	85 c0		 test	 eax, eax
  00040	74 14		 je	 SHORT $LN2@Myptr

; 427  :             _Result = _Unfancy(_Bx._Ptr);

  00042	48 8b 85 00 01
	00 00		 mov	 rax, QWORD PTR this$[rbp]
  00049	48 8b 48 08	 mov	 rcx, QWORD PTR [rax+8]
  0004d	e8 00 00 00 00	 call	 ??$_Unfancy@D@std@@YAPEADPEAD@Z ; std::_Unfancy<char>
  00052	48 89 45 08	 mov	 QWORD PTR _Result$[rbp], rax
$LN2@Myptr:

; 428  :         }
; 429  : 
; 430  :         return _Result;

  00056	48 8b 45 08	 mov	 rax, QWORD PTR _Result$[rbp]

; 431  :     }

  0005a	48 8d a5 e8 00
	00 00		 lea	 rsp, QWORD PTR [rbp+232]
  00061	5f		 pop	 rdi
  00062	5d		 pop	 rbp
  00063	c3		 ret	 0
?_Myptr@?$_String_val@U?$_Simple_types@D@std@@@std@@QEBAPEBDXZ ENDP ; std::_String_val<std::_Simple_types<char> >::_Myptr
_TEXT	ENDS
; Function compile flags: /Odtp /RTCsu /ZI
; File C:\Program Files\Microsoft Visual Studio\2022\Community\VC\Tools\MSVC\14.42.34433\include\xstring
;	COMDAT ??0?$_String_val@U?$_Simple_types@D@std@@@std@@QEAA@XZ
_TEXT	SEGMENT
this$ = 224
??0?$_String_val@U?$_Simple_types@D@std@@@std@@QEAA@XZ PROC ; std::_String_val<std::_Simple_types<char> >::_String_val<std::_Simple_types<char> >, COMDAT

; 402  :     _CONSTEXPR20 _String_val() noexcept : _Bx() {}

$LN4:
  00000	48 89 4c 24 08	 mov	 QWORD PTR [rsp+8], rcx
  00005	55		 push	 rbp
  00006	57		 push	 rdi
  00007	48 81 ec e8 00
	00 00		 sub	 rsp, 232		; 000000e8H
  0000e	48 8d 6c 24 20	 lea	 rbp, QWORD PTR [rsp+32]
  00013	48 8d 0d 00 00
	00 00		 lea	 rcx, OFFSET FLAT:__776EB5C9_xstring
  0001a	e8 00 00 00 00	 call	 __CheckForDebuggerJustMyCode
  0001f	90		 npad	 1
  00020	48 8b 8d e0 00
	00 00		 mov	 rcx, QWORD PTR this$[rbp]
  00027	e8 00 00 00 00	 call	 ??0_Container_base12@std@@QEAA@XZ ; std::_Container_base12::_Container_base12
  0002c	90		 npad	 1
  0002d	48 8b 85 e0 00
	00 00		 mov	 rax, QWORD PTR this$[rbp]
  00034	48 83 c0 08	 add	 rax, 8
  00038	48 8b c8	 mov	 rcx, rax
  0003b	e8 00 00 00 00	 call	 ??0_Bxty@?$_String_val@U?$_Simple_types@D@std@@@std@@QEAA@XZ ; std::_String_val<std::_Simple_types<char> >::_Bxty::_Bxty
  00040	90		 npad	 1

; 403  : 
; 404  :     // length of internal buffer, [1, 16] (NB: used by the debugger visualizer)
; 405  :     static constexpr size_type _BUF_SIZE = 16 / sizeof(value_type) < 1 ? 1 : 16 / sizeof(value_type);
; 406  :     // roundup mask for allocated buffers, [0, 15]
; 407  :     static constexpr size_type _Alloc_mask = sizeof(value_type) <= 1 ? 15
; 408  :                                            : sizeof(value_type) <= 2 ? 7
; 409  :                                            : sizeof(value_type) <= 4 ? 3
; 410  :                                            : sizeof(value_type) <= 8 ? 1
; 411  :                                                                      : 0;
; 412  :     // capacity in small mode
; 413  :     static constexpr size_type _Small_string_capacity = _BUF_SIZE - 1;
; 414  : 
; 415  :     _NODISCARD _CONSTEXPR20 value_type* _Myptr() noexcept {
; 416  :         value_type* _Result = _Bx._Buf;
; 417  :         if (_Large_mode_engaged()) {
; 418  :             _Result = _Unfancy(_Bx._Ptr);
; 419  :         }
; 420  : 
; 421  :         return _Result;
; 422  :     }
; 423  : 
; 424  :     _NODISCARD _CONSTEXPR20 const value_type* _Myptr() const noexcept {
; 425  :         const value_type* _Result = _Bx._Buf;
; 426  :         if (_Large_mode_engaged()) {
; 427  :             _Result = _Unfancy(_Bx._Ptr);
; 428  :         }
; 429  : 
; 430  :         return _Result;
; 431  :     }
; 432  : 
; 433  :     _NODISCARD _CONSTEXPR20 bool _Large_mode_engaged() const noexcept {
; 434  :         return _Myres > _Small_string_capacity;
; 435  :     }
; 436  : 
; 437  :     _CONSTEXPR20 void _Activate_SSO_buffer() noexcept {
; 438  :         // start the lifetime of the array elements
; 439  : #if _HAS_CXX20
; 440  :         if (_STD is_constant_evaluated()) {
; 441  :             for (size_type _Idx = 0; _Idx < _BUF_SIZE; ++_Idx) {
; 442  :                 _Bx._Buf[_Idx] = value_type();
; 443  :             }
; 444  :         }
; 445  : #endif // _HAS_CXX20
; 446  :     }
; 447  : 
; 448  :     _CONSTEXPR20 void _Check_offset(const size_type _Off) const {
; 449  :         // checks whether _Off is in the bounds of [0, size()]
; 450  :         if (_Mysize < _Off) {
; 451  :             _Xran();
; 452  :         }
; 453  :     }
; 454  : 
; 455  :     _CONSTEXPR20 void _Check_offset_exclusive(const size_type _Off) const {
; 456  :         // checks whether _Off is in the bounds of [0, size())
; 457  :         if (_Mysize <= _Off) {
; 458  :             _Xran();
; 459  :         }
; 460  :     }
; 461  : 
; 462  :     [[noreturn]] static void _Xran() {
; 463  :         _Xout_of_range("invalid string position");
; 464  :     }
; 465  : 
; 466  :     _NODISCARD _CONSTEXPR20 size_type _Clamp_suffix_size(const size_type _Off, const size_type _Size) const noexcept {
; 467  :         // trims _Size to the longest it can be assuming a string at/after _Off
; 468  :         return (_STD min)(_Size, _Mysize - _Off);
; 469  :     }
; 470  : 
; 471  :     union _Bxty { // storage for small buffer or pointer to larger one
; 472  :         // This constructor previously initialized _Ptr. Don't rely on the new behavior without
; 473  :         // renaming `_String_val` (and fixing the visualizer).
; 474  :         _CONSTEXPR20 _Bxty() noexcept : _Buf() {} // user-provided, for fancy pointers
; 475  :         _CONSTEXPR20 ~_Bxty() noexcept {} // user-provided, for fancy pointers
; 476  : 
; 477  :         value_type _Buf[_BUF_SIZE];
; 478  :         pointer _Ptr;
; 479  :         char _Alias[_BUF_SIZE]; // TRANSITION, ABI: _Alias is preserved for binary compatibility (especially /clr)
; 480  : 
; 481  :         _CONSTEXPR20 void _Switch_to_buf() noexcept {
; 482  :             _STD _Destroy_in_place(_Ptr);
; 483  : 
; 484  : #if _HAS_CXX20
; 485  :             // start the lifetime of the array elements
; 486  :             if (_STD is_constant_evaluated()) {
; 487  :                 for (size_type _Idx = 0; _Idx < _BUF_SIZE; ++_Idx) {
; 488  :                     _Buf[_Idx] = value_type();
; 489  :                 }
; 490  :             }
; 491  : #endif // _HAS_CXX20
; 492  :         }
; 493  :     };
; 494  :     _Bxty _Bx;
; 495  : 
; 496  :     // invariant: _Myres >= _Mysize, and _Myres >= _Small_string_capacity (after string's construction)
; 497  :     // neither _Mysize nor _Myres takes account of the extra null terminator
; 498  :     size_type _Mysize = 0; // current length of string (size)

  00041	48 8b 85 e0 00
	00 00		 mov	 rax, QWORD PTR this$[rbp]
  00048	48 c7 40 18 00
	00 00 00	 mov	 QWORD PTR [rax+24], 0

; 499  :     size_type _Myres  = 0; // current storage reserved for string (capacity)

  00050	48 8b 85 e0 00
	00 00		 mov	 rax, QWORD PTR this$[rbp]
  00057	48 c7 40 20 00
	00 00 00	 mov	 QWORD PTR [rax+32], 0

; 402  :     _CONSTEXPR20 _String_val() noexcept : _Bx() {}

  0005f	48 8b 85 e0 00
	00 00		 mov	 rax, QWORD PTR this$[rbp]
  00066	48 8d a5 c8 00
	00 00		 lea	 rsp, QWORD PTR [rbp+200]
  0006d	5f		 pop	 rdi
  0006e	5d		 pop	 rbp
  0006f	c3		 ret	 0
??0?$_String_val@U?$_Simple_types@D@std@@@std@@QEAA@XZ ENDP ; std::_String_val<std::_Simple_types<char> >::_String_val<std::_Simple_types<char> >
_TEXT	ENDS
; Function compile flags: /Odtp /RTCsu /ZI
; File C:\Program Files\Microsoft Visual Studio\2022\Community\VC\Tools\MSVC\14.42.34433\include\xmemory
;	COMDAT ?select_on_container_copy_construction@?$_Default_allocator_traits@V?$allocator@D@std@@@std@@SA?AV?$allocator@D@2@AEBV32@@Z
_TEXT	SEGMENT
__$ReturnUdt$ = 224
_Al$ = 232
?select_on_container_copy_construction@?$_Default_allocator_traits@V?$allocator@D@std@@@std@@SA?AV?$allocator@D@2@AEBV32@@Z PROC ; std::_Default_allocator_traits<std::allocator<char> >::select_on_container_copy_construction, COMDAT

; 717  :     _NODISCARD static _CONSTEXPR20 _Alloc select_on_container_copy_construction(const _Alloc& _Al) {

$LN3:
  00000	48 89 54 24 10	 mov	 QWORD PTR [rsp+16], rdx
  00005	48 89 4c 24 08	 mov	 QWORD PTR [rsp+8], rcx
  0000a	55		 push	 rbp
  0000b	57		 push	 rdi
  0000c	48 81 ec e8 00
	00 00		 sub	 rsp, 232		; 000000e8H
  00013	48 8d 6c 24 20	 lea	 rbp, QWORD PTR [rsp+32]
  00018	48 8d 0d 00 00
	00 00		 lea	 rcx, OFFSET FLAT:__03BD3355_xmemory
  0001f	e8 00 00 00 00	 call	 __CheckForDebuggerJustMyCode
  00024	90		 npad	 1

; 718  :         return _Al;

  00025	48 8b 85 e0 00
	00 00		 mov	 rax, QWORD PTR __$ReturnUdt$[rbp]

; 719  :     }

  0002c	48 8d a5 c8 00
	00 00		 lea	 rsp, QWORD PTR [rbp+200]
  00033	5f		 pop	 rdi
  00034	5d		 pop	 rbp
  00035	c3		 ret	 0
?select_on_container_copy_construction@?$_Default_allocator_traits@V?$allocator@D@std@@@std@@SA?AV?$allocator@D@2@AEBV32@@Z ENDP ; std::_Default_allocator_traits<std::allocator<char> >::select_on_container_copy_construction
_TEXT	ENDS
; Function compile flags: /Odtp /RTCsu /ZI
; File C:\Program Files\Microsoft Visual Studio\2022\Community\VC\Tools\MSVC\14.42.34433\include\xmemory
;	COMDAT ?max_size@?$_Default_allocator_traits@V?$allocator@D@std@@@std@@SA_KAEBV?$allocator@D@2@@Z
_TEXT	SEGMENT
__formal$ = 224
?max_size@?$_Default_allocator_traits@V?$allocator@D@std@@@std@@SA_KAEBV?$allocator@D@2@@Z PROC ; std::_Default_allocator_traits<std::allocator<char> >::max_size, COMDAT

; 713  :     _NODISCARD static _CONSTEXPR20 size_type max_size(const _Alloc&) noexcept {

$LN4:
  00000	48 89 4c 24 08	 mov	 QWORD PTR [rsp+8], rcx
  00005	55		 push	 rbp
  00006	57		 push	 rdi
  00007	48 81 ec e8 00
	00 00		 sub	 rsp, 232		; 000000e8H
  0000e	48 8d 6c 24 20	 lea	 rbp, QWORD PTR [rsp+32]
  00013	48 8d 0d 00 00
	00 00		 lea	 rcx, OFFSET FLAT:__03BD3355_xmemory
  0001a	e8 00 00 00 00	 call	 __CheckForDebuggerJustMyCode
  0001f	90		 npad	 1

; 714  :         return static_cast<size_t>(-1) / sizeof(value_type);

  00020	48 c7 c0 ff ff
	ff ff		 mov	 rax, -1

; 715  :     }

  00027	48 8d a5 c8 00
	00 00		 lea	 rsp, QWORD PTR [rbp+200]
  0002e	5f		 pop	 rdi
  0002f	5d		 pop	 rbp
  00030	c3		 ret	 0
?max_size@?$_Default_allocator_traits@V?$allocator@D@std@@@std@@SA_KAEBV?$allocator@D@2@@Z ENDP ; std::_Default_allocator_traits<std::allocator<char> >::max_size
_TEXT	ENDS
; Function compile flags: /Odtp /RTCsu /ZI
; File C:\Program Files\Microsoft Visual Studio\2022\Community\VC\Tools\MSVC\14.42.34433\include\xmemory
;	COMDAT ?allocate@?$allocator@D@std@@QEAAPEAD_K@Z
_TEXT	SEGMENT
this$ = 224
_Count$ = 232
?allocate@?$allocator@D@std@@QEAAPEAD_K@Z PROC		; std::allocator<char>::allocate, COMDAT

; 952  :     _NODISCARD_RAW_PTR_ALLOC _CONSTEXPR20 __declspec(allocator) _Ty* allocate(_CRT_GUARDOVERFLOW const size_t _Count) {

$LN3:
  00000	48 89 54 24 10	 mov	 QWORD PTR [rsp+16], rdx
  00005	48 89 4c 24 08	 mov	 QWORD PTR [rsp+8], rcx
  0000a	55		 push	 rbp
  0000b	57		 push	 rdi
  0000c	48 81 ec e8 00
	00 00		 sub	 rsp, 232		; 000000e8H
  00013	48 8d 6c 24 20	 lea	 rbp, QWORD PTR [rsp+32]
  00018	48 8d 0d 00 00
	00 00		 lea	 rcx, OFFSET FLAT:__03BD3355_xmemory
  0001f	e8 00 00 00 00	 call	 __CheckForDebuggerJustMyCode
  00024	90		 npad	 1

; 953  :         static_assert(sizeof(value_type) > 0, "value_type must be complete before calling allocate.");
; 954  :         return static_cast<_Ty*>(_STD _Allocate<_New_alignof<_Ty>>(_Get_size_of_n<sizeof(_Ty)>(_Count)));

  00025	48 8b 8d e8 00
	00 00		 mov	 rcx, QWORD PTR _Count$[rbp]
  0002c	e8 00 00 00 00	 call	 ??$_Get_size_of_n@$00@std@@YA_K_K@Z ; std::_Get_size_of_n<1>
  00031	48 8b c8	 mov	 rcx, rax
  00034	e8 00 00 00 00	 call	 ??$_Allocate@$0BA@U_Default_allocate_traits@std@@@std@@YAPEAX_K@Z ; std::_Allocate<16,std::_Default_allocate_traits>

; 955  :     }

  00039	48 8d a5 c8 00
	00 00		 lea	 rsp, QWORD PTR [rbp+200]
  00040	5f		 pop	 rdi
  00041	5d		 pop	 rbp
  00042	c3		 ret	 0
?allocate@?$allocator@D@std@@QEAAPEAD_K@Z ENDP		; std::allocator<char>::allocate
_TEXT	ENDS
; Function compile flags: /Odtp /RTCsu /ZI
; File C:\Program Files\Microsoft Visual Studio\2022\Community\VC\Tools\MSVC\14.42.34433\include\xmemory
;	COMDAT ?deallocate@?$allocator@D@std@@QEAAXQEAD_K@Z
_TEXT	SEGMENT
this$ = 224
_Ptr$ = 232
_Count$ = 240
?deallocate@?$allocator@D@std@@QEAAXQEAD_K@Z PROC	; std::allocator<char>::deallocate, COMDAT

; 946  :     _CONSTEXPR20 void deallocate(_Ty* const _Ptr, const size_t _Count) {

$LN13:
  00000	4c 89 44 24 18	 mov	 QWORD PTR [rsp+24], r8
  00005	48 89 54 24 10	 mov	 QWORD PTR [rsp+16], rdx
  0000a	48 89 4c 24 08	 mov	 QWORD PTR [rsp+8], rcx
  0000f	55		 push	 rbp
  00010	57		 push	 rdi
  00011	48 81 ec f8 00
	00 00		 sub	 rsp, 248		; 000000f8H
  00018	48 8d 6c 24 30	 lea	 rbp, QWORD PTR [rsp+48]
  0001d	48 8d 0d 00 00
	00 00		 lea	 rcx, OFFSET FLAT:__03BD3355_xmemory
  00024	e8 00 00 00 00	 call	 __CheckForDebuggerJustMyCode
  00029	90		 npad	 1
$LN4@deallocate:

; 947  :         _STL_ASSERT(_Ptr != nullptr || _Count == 0, "null pointer cannot point to a block of non-zero size");

  0002a	48 83 bd e8 00
	00 00 00	 cmp	 QWORD PTR _Ptr$[rbp], 0
  00032	75 0a		 jne	 SHORT $LN10@deallocate
  00034	48 83 bd f0 00
	00 00 00	 cmp	 QWORD PTR _Count$[rbp], 0
  0003c	75 02		 jne	 SHORT $LN8@deallocate
$LN10@deallocate:
  0003e	eb 6c		 jmp	 SHORT $LN9@deallocate
$LN8@deallocate:
$LN7@deallocate:
  00040	48 8d 05 00 00
	00 00		 lea	 rax, OFFSET FLAT:??_C@_0DG@KGHKKGBC@null?5pointer?5cannot?5point?5to?5a?5@
  00047	48 89 44 24 28	 mov	 QWORD PTR [rsp+40], rax
  0004c	48 8d 05 00 00
	00 00		 lea	 rax, OFFSET FLAT:??_C@_02DKCKIIND@?$CFs@
  00053	48 89 44 24 20	 mov	 QWORD PTR [rsp+32], rax
  00058	45 33 c9	 xor	 r9d, r9d
  0005b	41 b8 b3 03 00
	00		 mov	 r8d, 947		; 000003b3H
  00061	48 8d 15 00 00
	00 00		 lea	 rdx, OFFSET FLAT:??_C@_0GC@KIHIELAM@C?3?2Program?5Files?2Microsoft?5Visu@
  00068	b9 02 00 00 00	 mov	 ecx, 2
  0006d	ff 15 00 00 00
	00		 call	 QWORD PTR __imp__CrtDbgReport
  00073	83 f8 01	 cmp	 eax, 1
  00076	75 03		 jne	 SHORT $LN12@deallocate
  00078	cc		 int	 3
  00079	33 c0		 xor	 eax, eax
$LN12@deallocate:
  0007b	48 c7 44 24 20
	00 00 00 00	 mov	 QWORD PTR [rsp+32], 0
  00084	41 b9 b3 03 00
	00		 mov	 r9d, 947		; 000003b3H
  0008a	4c 8d 05 00 00
	00 00		 lea	 r8, OFFSET FLAT:??_C@_1ME@NMPKGKJL@?$AAC?$AA?3?$AA?2?$AAP?$AAr?$AAo?$AAg?$AAr?$AAa?$AAm?$AA?5?$AAF?$AAi?$AAl?$AAe@
  00091	48 8d 15 00 00
	00 00		 lea	 rdx, OFFSET FLAT:??_C@_11LOCGONAA@@
  00098	48 8d 0d 00 00
	00 00		 lea	 rcx, OFFSET FLAT:??_C@_1HA@FACCKGGH@?$AA?$CC?$AAn?$AAu?$AAl?$AAl?$AA?5?$AAp?$AAo?$AAi?$AAn?$AAt?$AAe?$AAr?$AA?5?$AAc@
  0009f	ff 15 00 00 00
	00		 call	 QWORD PTR __imp__invalid_parameter
  000a5	90		 npad	 1
  000a6	33 c0		 xor	 eax, eax
  000a8	85 c0		 test	 eax, eax
  000aa	75 94		 jne	 SHORT $LN7@deallocate
$LN9@deallocate:
  000ac	33 c0		 xor	 eax, eax
  000ae	85 c0		 test	 eax, eax
  000b0	0f 85 74 ff ff
	ff		 jne	 $LN4@deallocate

; 948  :         // no overflow check on the following multiply; we assume _Allocate did that check
; 949  :         _STD _Deallocate<_New_alignof<_Ty>>(_Ptr, sizeof(_Ty) * _Count);

  000b6	48 8b 95 f0 00
	00 00		 mov	 rdx, QWORD PTR _Count$[rbp]
  000bd	48 8b 8d e8 00
	00 00		 mov	 rcx, QWORD PTR _Ptr$[rbp]
  000c4	e8 00 00 00 00	 call	 ??$_Deallocate@$0BA@@std@@YAXPEAX_K@Z ; std::_Deallocate<16>
  000c9	90		 npad	 1

; 950  :     }

  000ca	48 8d a5 c8 00
	00 00		 lea	 rsp, QWORD PTR [rbp+200]
  000d1	5f		 pop	 rdi
  000d2	5d		 pop	 rbp
  000d3	c3		 ret	 0
?deallocate@?$allocator@D@std@@QEAAXQEAD_K@Z ENDP	; std::allocator<char>::deallocate
_TEXT	ENDS
; Function compile flags: /Odtp /RTCsu /ZI
; File C:\Program Files\Microsoft Visual Studio\2022\Community\VC\Tools\MSVC\14.42.34433\include\xmemory
;	COMDAT ??0?$allocator@D@std@@QEAA@XZ
_TEXT	SEGMENT
this$ = 224
??0?$allocator@D@std@@QEAA@XZ PROC			; std::allocator<char>::allocator<char>, COMDAT

; 938  :     constexpr allocator() noexcept {}

$LN4:
  00000	48 89 4c 24 08	 mov	 QWORD PTR [rsp+8], rcx
  00005	55		 push	 rbp
  00006	57		 push	 rdi
  00007	48 81 ec e8 00
	00 00		 sub	 rsp, 232		; 000000e8H
  0000e	48 8d 6c 24 20	 lea	 rbp, QWORD PTR [rsp+32]
  00013	48 8d 0d 00 00
	00 00		 lea	 rcx, OFFSET FLAT:__03BD3355_xmemory
  0001a	e8 00 00 00 00	 call	 __CheckForDebuggerJustMyCode
  0001f	90		 npad	 1
  00020	48 8b 85 e0 00
	00 00		 mov	 rax, QWORD PTR this$[rbp]
  00027	48 8d a5 c8 00
	00 00		 lea	 rsp, QWORD PTR [rbp+200]
  0002e	5f		 pop	 rdi
  0002f	5d		 pop	 rbp
  00030	c3		 ret	 0
??0?$allocator@D@std@@QEAA@XZ ENDP			; std::allocator<char>::allocator<char>
_TEXT	ENDS
; Function compile flags: /Odtp /RTCsu /ZI
; File C:\Program Files\Microsoft Visual Studio\2022\Community\VC\Tools\MSVC\14.42.34433\include\xstring
;	COMDAT ?_Xlen_string@std@@YAXXZ
_TEXT	SEGMENT
?_Xlen_string@std@@YAXXZ PROC				; std::_Xlen_string, COMDAT

; 516  : [[noreturn]] inline void _Xlen_string() {

$LN3:
  00000	40 55		 push	 rbp
  00002	57		 push	 rdi
  00003	48 81 ec e8 00
	00 00		 sub	 rsp, 232		; 000000e8H
  0000a	48 8d 6c 24 20	 lea	 rbp, QWORD PTR [rsp+32]
  0000f	48 8d 0d 00 00
	00 00		 lea	 rcx, OFFSET FLAT:__776EB5C9_xstring
  00016	e8 00 00 00 00	 call	 __CheckForDebuggerJustMyCode
  0001b	90		 npad	 1

; 517  :     _Xlength_error("string too long");

  0001c	48 8d 0d 00 00
	00 00		 lea	 rcx, OFFSET FLAT:??_C@_0BA@JFNIOLAK@string?5too?5long@
  00023	e8 00 00 00 00	 call	 ?_Xlength_error@std@@YAXPEBD@Z ; std::_Xlength_error
  00028	90		 npad	 1
$LN2@Xlen_strin:

; 518  : }

  00029	48 8d a5 c8 00
	00 00		 lea	 rsp, QWORD PTR [rbp+200]
  00030	5f		 pop	 rdi
  00031	5d		 pop	 rbp
  00032	c3		 ret	 0
?_Xlen_string@std@@YAXXZ ENDP				; std::_Xlen_string
_TEXT	ENDS
; Function compile flags: /Odtp /RTCsu /ZI
; File C:\Program Files\Microsoft Visual Studio\2022\Community\VC\Tools\MSVC\14.42.34433\include\xutility
;	COMDAT ??$_Construct_in_place@U_Container_proxy@std@@PEAU_Container_base12@2@@std@@YAXAEAU_Container_proxy@0@$$QEAPEAU_Container_base12@0@@Z
_TEXT	SEGMENT
$T1 = 200
_Obj$ = 256
<_Args_0>$ = 264
??$_Construct_in_place@U_Container_proxy@std@@PEAU_Container_base12@2@@std@@YAXAEAU_Container_proxy@0@$$QEAPEAU_Container_base12@0@@Z PROC ; std::_Construct_in_place<std::_Container_proxy,std::_Container_base12 *>, COMDAT

; 399  :     is_nothrow_constructible_v<_Ty, _Types...>) {

$LN4:
  00000	48 89 54 24 10	 mov	 QWORD PTR [rsp+16], rdx
  00005	48 89 4c 24 08	 mov	 QWORD PTR [rsp+8], rcx
  0000a	55		 push	 rbp
  0000b	57		 push	 rdi
  0000c	48 81 ec 08 01
	00 00		 sub	 rsp, 264		; 00000108H
  00013	48 8d 6c 24 20	 lea	 rbp, QWORD PTR [rsp+32]
  00018	48 8d 0d 00 00
	00 00		 lea	 rcx, OFFSET FLAT:__EC88E9B5_xutility
  0001f	e8 00 00 00 00	 call	 __CheckForDebuggerJustMyCode
  00024	90		 npad	 1

; 400  : #if _HAS_CXX20
; 401  :     if (_STD is_constant_evaluated()) {
; 402  :         _STD construct_at(_STD addressof(_Obj), _STD forward<_Types>(_Args)...);
; 403  :     } else
; 404  : #endif // _HAS_CXX20
; 405  :     {
; 406  :         ::new (static_cast<void*>(_STD addressof(_Obj))) _Ty(_STD forward<_Types>(_Args)...);

  00025	48 8b 8d 00 01
	00 00		 mov	 rcx, QWORD PTR _Obj$[rbp]
  0002c	e8 00 00 00 00	 call	 ??$addressof@U_Container_proxy@std@@@std@@YAPEAU_Container_proxy@0@AEAU10@@Z ; std::addressof<std::_Container_proxy>
  00031	48 8b d0	 mov	 rdx, rax
  00034	b9 10 00 00 00	 mov	 ecx, 16
  00039	e8 00 00 00 00	 call	 ??2@YAPEAX_KPEAX@Z	; operator new
  0003e	48 89 85 c8 00
	00 00		 mov	 QWORD PTR $T1[rbp], rax
  00045	48 8b 85 08 01
	00 00		 mov	 rax, QWORD PTR <_Args_0>$[rbp]
  0004c	48 8b 10	 mov	 rdx, QWORD PTR [rax]
  0004f	48 8b 8d c8 00
	00 00		 mov	 rcx, QWORD PTR $T1[rbp]
  00056	e8 00 00 00 00	 call	 ??0_Container_proxy@std@@QEAA@PEAU_Container_base12@1@@Z ; std::_Container_proxy::_Container_proxy
  0005b	90		 npad	 1

; 407  :     }
; 408  : }

  0005c	48 8d a5 e8 00
	00 00		 lea	 rsp, QWORD PTR [rbp+232]
  00063	5f		 pop	 rdi
  00064	5d		 pop	 rbp
  00065	c3		 ret	 0
??$_Construct_in_place@U_Container_proxy@std@@PEAU_Container_base12@2@@std@@YAXAEAU_Container_proxy@0@$$QEAPEAU_Container_base12@0@@Z ENDP ; std::_Construct_in_place<std::_Container_proxy,std::_Container_base12 *>
_TEXT	ENDS
; Function compile flags: /Odtp /RTCsu /ZI
; File C:\Program Files\Microsoft Visual Studio\2022\Community\VC\Tools\MSVC\14.42.34433\include\type_traits
;	COMDAT ??$addressof@U_Container_base12@std@@@std@@YAPEAU_Container_base12@0@AEAU10@@Z
_TEXT	SEGMENT
_Val$ = 224
??$addressof@U_Container_base12@std@@@std@@YAPEAU_Container_base12@0@AEAU10@@Z PROC ; std::addressof<std::_Container_base12>, COMDAT

; 1549 : _NODISCARD constexpr _Ty* addressof(_Ty& _Val) noexcept {

$LN4:
  00000	48 89 4c 24 08	 mov	 QWORD PTR [rsp+8], rcx
  00005	55		 push	 rbp
  00006	57		 push	 rdi
  00007	48 81 ec e8 00
	00 00		 sub	 rsp, 232		; 000000e8H
  0000e	48 8d 6c 24 20	 lea	 rbp, QWORD PTR [rsp+32]
  00013	48 8d 0d 00 00
	00 00		 lea	 rcx, OFFSET FLAT:__4C58012B_type_traits
  0001a	e8 00 00 00 00	 call	 __CheckForDebuggerJustMyCode
  0001f	90		 npad	 1

; 1550 :     return __builtin_addressof(_Val);

  00020	48 8b 85 e0 00
	00 00		 mov	 rax, QWORD PTR _Val$[rbp]

; 1551 : }

  00027	48 8d a5 c8 00
	00 00		 lea	 rsp, QWORD PTR [rbp+200]
  0002e	5f		 pop	 rdi
  0002f	5d		 pop	 rbp
  00030	c3		 ret	 0
??$addressof@U_Container_base12@std@@@std@@YAPEAU_Container_base12@0@AEAU10@@Z ENDP ; std::addressof<std::_Container_base12>
_TEXT	ENDS
; Function compile flags: /Odtp /RTCsu /ZI
; File C:\Program Files\Microsoft Visual Studio\2022\Community\VC\Tools\MSVC\14.42.34433\include\xmemory
;	COMDAT ??0_Basic_container_proxy_ptr12@std@@IEAA@XZ
_TEXT	SEGMENT
this$ = 224
??0_Basic_container_proxy_ptr12@std@@IEAA@XZ PROC	; std::_Basic_container_proxy_ptr12::_Basic_container_proxy_ptr12, COMDAT

; 1429 :     _CONSTEXPR20 _Basic_container_proxy_ptr12()                       = default;

$LN4:
  00000	48 89 4c 24 08	 mov	 QWORD PTR [rsp+8], rcx
  00005	55		 push	 rbp
  00006	57		 push	 rdi
  00007	48 81 ec e8 00
	00 00		 sub	 rsp, 232		; 000000e8H
  0000e	48 8d 6c 24 20	 lea	 rbp, QWORD PTR [rsp+32]
  00013	48 8d 0d 00 00
	00 00		 lea	 rcx, OFFSET FLAT:__03BD3355_xmemory
  0001a	e8 00 00 00 00	 call	 __CheckForDebuggerJustMyCode
  0001f	90		 npad	 1

; 1422 :     _Container_proxy* _Ptr = nullptr;

  00020	48 8b 85 e0 00
	00 00		 mov	 rax, QWORD PTR this$[rbp]
  00027	48 c7 00 00 00
	00 00		 mov	 QWORD PTR [rax], 0

; 1429 :     _CONSTEXPR20 _Basic_container_proxy_ptr12()                       = default;

  0002e	48 8b 85 e0 00
	00 00		 mov	 rax, QWORD PTR this$[rbp]
  00035	48 8d a5 c8 00
	00 00		 lea	 rsp, QWORD PTR [rbp+200]
  0003c	5f		 pop	 rdi
  0003d	5d		 pop	 rbp
  0003e	c3		 ret	 0
??0_Basic_container_proxy_ptr12@std@@IEAA@XZ ENDP	; std::_Basic_container_proxy_ptr12::_Basic_container_proxy_ptr12
_TEXT	ENDS
; Function compile flags: /Odtp /RTCsu /ZI
; File C:\Program Files\Microsoft Visual Studio\2022\Community\VC\Tools\MSVC\14.42.34433\include\xmemory
;	COMDAT ?_Release@_Basic_container_proxy_ptr12@std@@QEAAXXZ
_TEXT	SEGMENT
this$ = 224
?_Release@_Basic_container_proxy_ptr12@std@@QEAAXXZ PROC ; std::_Basic_container_proxy_ptr12::_Release, COMDAT

; 1424 :     constexpr void _Release() noexcept { // disengage this _Basic_container_proxy_ptr12

$LN4:
  00000	48 89 4c 24 08	 mov	 QWORD PTR [rsp+8], rcx
  00005	55		 push	 rbp
  00006	57		 push	 rdi
  00007	48 81 ec e8 00
	00 00		 sub	 rsp, 232		; 000000e8H
  0000e	48 8d 6c 24 20	 lea	 rbp, QWORD PTR [rsp+32]
  00013	48 8d 0d 00 00
	00 00		 lea	 rcx, OFFSET FLAT:__03BD3355_xmemory
  0001a	e8 00 00 00 00	 call	 __CheckForDebuggerJustMyCode
  0001f	90		 npad	 1

; 1425 :         _Ptr = nullptr;

  00020	48 8b 85 e0 00
	00 00		 mov	 rax, QWORD PTR this$[rbp]
  00027	48 c7 00 00 00
	00 00		 mov	 QWORD PTR [rax], 0

; 1426 :     }

  0002e	48 8d a5 c8 00
	00 00		 lea	 rsp, QWORD PTR [rbp+200]
  00035	5f		 pop	 rdi
  00036	5d		 pop	 rbp
  00037	c3		 ret	 0
?_Release@_Basic_container_proxy_ptr12@std@@QEAAXXZ ENDP ; std::_Basic_container_proxy_ptr12::_Release
_TEXT	ENDS
; Function compile flags: /Odtp /RTCsu /ZI
; File C:\Program Files\Microsoft Visual Studio\2022\Community\VC\Tools\MSVC\14.42.34433\include\utility
;	COMDAT ??$exchange@PEAU_Iterator_base12@std@@$$T@std@@YAPEAU_Iterator_base12@0@AEAPEAU10@$$QEA$$T@Z
_TEXT	SEGMENT
_Old_val$ = 8
_Val$ = 256
_New_val$ = 264
??$exchange@PEAU_Iterator_base12@std@@$$T@std@@YAPEAU_Iterator_base12@0@AEAPEAU10@$$QEA$$T@Z PROC ; std::exchange<std::_Iterator_base12 *,std::nullptr_t>, COMDAT

; 762  :     conjunction_v<is_nothrow_move_constructible<_Ty>, is_nothrow_assignable<_Ty&, _Other>>) {

$LN4:
  00000	48 89 54 24 10	 mov	 QWORD PTR [rsp+16], rdx
  00005	48 89 4c 24 08	 mov	 QWORD PTR [rsp+8], rcx
  0000a	55		 push	 rbp
  0000b	57		 push	 rdi
  0000c	48 81 ec 08 01
	00 00		 sub	 rsp, 264		; 00000108H
  00013	48 8d 6c 24 20	 lea	 rbp, QWORD PTR [rsp+32]
  00018	48 8d 0d 00 00
	00 00		 lea	 rcx, OFFSET FLAT:__69285096_utility
  0001f	e8 00 00 00 00	 call	 __CheckForDebuggerJustMyCode
  00024	90		 npad	 1

; 763  :     // assign _New_val to _Val, return previous _Val
; 764  :     _Ty _Old_val = static_cast<_Ty&&>(_Val);

  00025	48 8b 85 00 01
	00 00		 mov	 rax, QWORD PTR _Val$[rbp]
  0002c	48 8b 00	 mov	 rax, QWORD PTR [rax]
  0002f	48 89 45 08	 mov	 QWORD PTR _Old_val$[rbp], rax

; 765  :     _Val         = static_cast<_Other&&>(_New_val);

  00033	48 8b 85 00 01
	00 00		 mov	 rax, QWORD PTR _Val$[rbp]
  0003a	48 8b 8d 08 01
	00 00		 mov	 rcx, QWORD PTR _New_val$[rbp]
  00041	48 8b 09	 mov	 rcx, QWORD PTR [rcx]
  00044	48 89 08	 mov	 QWORD PTR [rax], rcx

; 766  :     return _Old_val;

  00047	48 8b 45 08	 mov	 rax, QWORD PTR _Old_val$[rbp]

; 767  : }

  0004b	48 8d a5 e8 00
	00 00		 lea	 rsp, QWORD PTR [rbp+232]
  00052	5f		 pop	 rdi
  00053	5d		 pop	 rbp
  00054	c3		 ret	 0
??$exchange@PEAU_Iterator_base12@std@@$$T@std@@YAPEAU_Iterator_base12@0@AEAPEAU10@$$QEA$$T@Z ENDP ; std::exchange<std::_Iterator_base12 *,std::nullptr_t>
_TEXT	ENDS
; Function compile flags: /Odtp /RTCsu /ZI
; File C:\Program Files\Microsoft Visual Studio\2022\Community\VC\Tools\MSVC\14.42.34433\include\xmemory
;	COMDAT ?_Orphan_all_locked_v3@_Container_base12@std@@AEAAXXZ
_TEXT	SEGMENT
_Lock$ = 4
__$ArrayPad$ = 216
this$ = 256
?_Orphan_all_locked_v3@_Container_base12@std@@AEAAXXZ PROC ; std::_Container_base12::_Orphan_all_locked_v3, COMDAT

; 1205 :     void _Orphan_all_locked_v3() noexcept {

$LN4:
  00000	48 89 4c 24 08	 mov	 QWORD PTR [rsp+8], rcx
  00005	55		 push	 rbp
  00006	57		 push	 rdi
  00007	48 81 ec 08 01
	00 00		 sub	 rsp, 264		; 00000108H
  0000e	48 8d 6c 24 20	 lea	 rbp, QWORD PTR [rsp+32]
  00013	48 8d 7c 24 20	 lea	 rdi, QWORD PTR [rsp+32]
  00018	b9 0a 00 00 00	 mov	 ecx, 10
  0001d	b8 cc cc cc cc	 mov	 eax, -858993460		; ccccccccH
  00022	f3 ab		 rep stosd
  00024	48 8b 8c 24 28
	01 00 00	 mov	 rcx, QWORD PTR [rsp+296]
  0002c	48 8b 05 00 00
	00 00		 mov	 rax, QWORD PTR __security_cookie
  00033	48 33 c5	 xor	 rax, rbp
  00036	48 89 85 d8 00
	00 00		 mov	 QWORD PTR __$ArrayPad$[rbp], rax
  0003d	48 8d 0d 00 00
	00 00		 lea	 rcx, OFFSET FLAT:__03BD3355_xmemory
  00044	e8 00 00 00 00	 call	 __CheckForDebuggerJustMyCode
  00049	90		 npad	 1

; 1206 :         _Lockit _Lock(_LOCK_DEBUG);

  0004a	ba 03 00 00 00	 mov	 edx, 3
  0004f	48 8d 4d 04	 lea	 rcx, QWORD PTR _Lock$[rbp]
  00053	ff 15 00 00 00
	00		 call	 QWORD PTR __imp_??0_Lockit@std@@QEAA@H@Z
  00059	90		 npad	 1

; 1207 :         _Orphan_all_unlocked_v3();

  0005a	48 8b 8d 00 01
	00 00		 mov	 rcx, QWORD PTR this$[rbp]
  00061	e8 00 00 00 00	 call	 ?_Orphan_all_unlocked_v3@_Container_base12@std@@AEAAXXZ ; std::_Container_base12::_Orphan_all_unlocked_v3
  00066	90		 npad	 1

; 1208 :     }

  00067	48 8d 4d 04	 lea	 rcx, QWORD PTR _Lock$[rbp]
  0006b	ff 15 00 00 00
	00		 call	 QWORD PTR __imp_??1_Lockit@std@@QEAA@XZ
  00071	90		 npad	 1
  00072	48 8d 4d e0	 lea	 rcx, QWORD PTR [rbp-32]
  00076	48 8d 15 00 00
	00 00		 lea	 rdx, OFFSET FLAT:?_Orphan_all_locked_v3@_Container_base12@std@@AEAAXXZ$rtcFrameData
  0007d	e8 00 00 00 00	 call	 _RTC_CheckStackVars
  00082	48 8b 8d d8 00
	00 00		 mov	 rcx, QWORD PTR __$ArrayPad$[rbp]
  00089	48 33 cd	 xor	 rcx, rbp
  0008c	e8 00 00 00 00	 call	 __security_check_cookie
  00091	48 8d a5 e8 00
	00 00		 lea	 rsp, QWORD PTR [rbp+232]
  00098	5f		 pop	 rdi
  00099	5d		 pop	 rbp
  0009a	c3		 ret	 0
?_Orphan_all_locked_v3@_Container_base12@std@@AEAAXXZ ENDP ; std::_Container_base12::_Orphan_all_locked_v3
_TEXT	ENDS
; Function compile flags: /Odtp /RTCsu /ZI
; File C:\Program Files\Microsoft Visual Studio\2022\Community\VC\Tools\MSVC\14.42.34433\include\xmemory
;	COMDAT ?_Orphan_all_unlocked_v3@_Container_base12@std@@AEAAXXZ
_TEXT	SEGMENT
_Pnext$1 = 8
$T2 = 228
this$ = 288
?_Orphan_all_unlocked_v3@_Container_base12@std@@AEAAXXZ PROC ; std::_Container_base12::_Orphan_all_unlocked_v3, COMDAT

; 1345 : _CONSTEXPR20 void _Container_base12::_Orphan_all_unlocked_v3() noexcept {

$LN8:
  00000	48 89 4c 24 08	 mov	 QWORD PTR [rsp+8], rcx
  00005	55		 push	 rbp
  00006	57		 push	 rdi
  00007	48 81 ec 28 01
	00 00		 sub	 rsp, 296		; 00000128H
  0000e	48 8d 6c 24 20	 lea	 rbp, QWORD PTR [rsp+32]
  00013	48 8d 0d 00 00
	00 00		 lea	 rcx, OFFSET FLAT:__03BD3355_xmemory
  0001a	e8 00 00 00 00	 call	 __CheckForDebuggerJustMyCode
  0001f	90		 npad	 1

; 1346 :     if (!_Myproxy) { // no proxy, already done

  00020	48 8b 85 20 01
	00 00		 mov	 rax, QWORD PTR this$[rbp]
  00027	48 83 38 00	 cmp	 QWORD PTR [rax], 0
  0002b	75 02		 jne	 SHORT $LN5@Orphan_all

; 1347 :         return;

  0002d	eb 4e		 jmp	 SHORT $LN1@Orphan_all
$LN5@Orphan_all:

; 1348 :     }
; 1349 : 
; 1350 :     // proxy allocated, drain it
; 1351 :     for (auto _Pnext = _STD exchange(_Myproxy->_Myfirstiter, nullptr); _Pnext; _Pnext = _Pnext->_Mynextiter) {

  0002f	48 c7 85 e4 00
	00 00 00 00 00
	00		 mov	 QWORD PTR $T2[rbp], 0
  0003a	48 8b 85 20 01
	00 00		 mov	 rax, QWORD PTR this$[rbp]
  00041	48 8b 00	 mov	 rax, QWORD PTR [rax]
  00044	48 83 c0 08	 add	 rax, 8
  00048	48 8d 95 e4 00
	00 00		 lea	 rdx, QWORD PTR $T2[rbp]
  0004f	48 8b c8	 mov	 rcx, rax
  00052	e8 00 00 00 00	 call	 ??$exchange@PEAU_Iterator_base12@std@@$$T@std@@YAPEAU_Iterator_base12@0@AEAPEAU10@$$QEA$$T@Z ; std::exchange<std::_Iterator_base12 *,std::nullptr_t>
  00057	48 89 45 08	 mov	 QWORD PTR _Pnext$1[rbp], rax
  0005b	eb 0c		 jmp	 SHORT $LN4@Orphan_all
$LN2@Orphan_all:
  0005d	48 8b 45 08	 mov	 rax, QWORD PTR _Pnext$1[rbp]
  00061	48 8b 40 08	 mov	 rax, QWORD PTR [rax+8]
  00065	48 89 45 08	 mov	 QWORD PTR _Pnext$1[rbp], rax
$LN4@Orphan_all:
  00069	48 83 7d 08 00	 cmp	 QWORD PTR _Pnext$1[rbp], 0
  0006e	74 0d		 je	 SHORT $LN1@Orphan_all

; 1352 :         _Pnext->_Myproxy = nullptr;

  00070	48 8b 45 08	 mov	 rax, QWORD PTR _Pnext$1[rbp]
  00074	48 c7 00 00 00
	00 00		 mov	 QWORD PTR [rax], 0

; 1353 :     }

  0007b	eb e0		 jmp	 SHORT $LN2@Orphan_all
$LN1@Orphan_all:

; 1354 : }

  0007d	48 8d a5 08 01
	00 00		 lea	 rsp, QWORD PTR [rbp+264]
  00084	5f		 pop	 rdi
  00085	5d		 pop	 rbp
  00086	c3		 ret	 0
?_Orphan_all_unlocked_v3@_Container_base12@std@@AEAAXXZ ENDP ; std::_Container_base12::_Orphan_all_unlocked_v3
_TEXT	ENDS
; Function compile flags: /Odtp /RTCsu /ZI
; File C:\Program Files\Microsoft Visual Studio\2022\Community\VC\Tools\MSVC\14.42.34433\include\xmemory
;	COMDAT ?_Orphan_all@_Container_base12@std@@QEAAXXZ
_TEXT	SEGMENT
this$ = 224
?_Orphan_all@_Container_base12@std@@QEAAXXZ PROC	; std::_Container_base12::_Orphan_all, COMDAT

; 1356 : _CONSTEXPR20 void _Container_base12::_Orphan_all() noexcept {

$LN4:
  00000	48 89 4c 24 08	 mov	 QWORD PTR [rsp+8], rcx
  00005	55		 push	 rbp
  00006	57		 push	 rdi
  00007	48 81 ec e8 00
	00 00		 sub	 rsp, 232		; 000000e8H
  0000e	48 8d 6c 24 20	 lea	 rbp, QWORD PTR [rsp+32]
  00013	48 8d 0d 00 00
	00 00		 lea	 rcx, OFFSET FLAT:__03BD3355_xmemory
  0001a	e8 00 00 00 00	 call	 __CheckForDebuggerJustMyCode
  0001f	90		 npad	 1

; 1357 : #if _ITERATOR_DEBUG_LEVEL == 2
; 1358 : #if _HAS_CXX20
; 1359 :     if (_STD is_constant_evaluated()) {
; 1360 :         _Orphan_all_unlocked_v3();
; 1361 :     } else
; 1362 : #endif // _HAS_CXX20
; 1363 :     {
; 1364 :         _Orphan_all_locked_v3();

  00020	48 8b 8d e0 00
	00 00		 mov	 rcx, QWORD PTR this$[rbp]
  00027	e8 00 00 00 00	 call	 ?_Orphan_all_locked_v3@_Container_base12@std@@AEAAXXZ ; std::_Container_base12::_Orphan_all_locked_v3
  0002c	90		 npad	 1

; 1365 :     }
; 1366 : #endif // _ITERATOR_DEBUG_LEVEL == 2
; 1367 : }

  0002d	48 8d a5 c8 00
	00 00		 lea	 rsp, QWORD PTR [rbp+200]
  00034	5f		 pop	 rdi
  00035	5d		 pop	 rbp
  00036	c3		 ret	 0
?_Orphan_all@_Container_base12@std@@QEAAXXZ ENDP	; std::_Container_base12::_Orphan_all
_TEXT	ENDS
; Function compile flags: /Odtp /RTCsu /ZI
; File C:\Program Files\Microsoft Visual Studio\2022\Community\VC\Tools\MSVC\14.42.34433\include\xmemory
;	COMDAT ??0_Container_base12@std@@QEAA@XZ
_TEXT	SEGMENT
this$ = 224
??0_Container_base12@std@@QEAA@XZ PROC			; std::_Container_base12::_Container_base12, COMDAT

; 1174 :     _CONSTEXPR20 _Container_base12() noexcept = default;

$LN4:
  00000	48 89 4c 24 08	 mov	 QWORD PTR [rsp+8], rcx
  00005	55		 push	 rbp
  00006	57		 push	 rdi
  00007	48 81 ec e8 00
	00 00		 sub	 rsp, 232		; 000000e8H
  0000e	48 8d 6c 24 20	 lea	 rbp, QWORD PTR [rsp+32]
  00013	48 8d 0d 00 00
	00 00		 lea	 rcx, OFFSET FLAT:__03BD3355_xmemory
  0001a	e8 00 00 00 00	 call	 __CheckForDebuggerJustMyCode
  0001f	90		 npad	 1

; 1175 : 
; 1176 :     _Container_base12(const _Container_base12&)            = delete;
; 1177 :     _Container_base12& operator=(const _Container_base12&) = delete;
; 1178 : 
; 1179 :     _CONSTEXPR20 void _Orphan_all() noexcept;
; 1180 :     _CONSTEXPR20 void _Swap_proxy_and_iterators(_Container_base12&) noexcept;
; 1181 : 
; 1182 :     template <class _Alloc>
; 1183 :     _CONSTEXPR20 void _Alloc_proxy(_Alloc&& _Al) {
; 1184 :         _Container_proxy* const _New_proxy = _Unfancy(_Al.allocate(1));
; 1185 :         _Construct_in_place(*_New_proxy, this);
; 1186 :         _Myproxy            = _New_proxy;
; 1187 :         _New_proxy->_Mycont = this;
; 1188 :     }
; 1189 : 
; 1190 :     template <class _Alloc>
; 1191 :     _CONSTEXPR20 void _Reload_proxy(_Alloc&& _Old_alloc, _Alloc&& _New_alloc) {
; 1192 :         // pre: no iterators refer to the existing proxy
; 1193 :         _Container_proxy* const _New_proxy = _Unfancy(_New_alloc.allocate(1));
; 1194 :         _Construct_in_place(*_New_proxy, this);
; 1195 :         _New_proxy->_Mycont = this;
; 1196 :         _Delete_plain_internal(_Old_alloc, _STD exchange(_Myproxy, _New_proxy));
; 1197 :     }
; 1198 : 
; 1199 :     _Container_proxy* _Myproxy = nullptr;

  00020	48 8b 85 e0 00
	00 00		 mov	 rax, QWORD PTR this$[rbp]
  00027	48 c7 00 00 00
	00 00		 mov	 QWORD PTR [rax], 0

; 1174 :     _CONSTEXPR20 _Container_base12() noexcept = default;

  0002e	48 8b 85 e0 00
	00 00		 mov	 rax, QWORD PTR this$[rbp]
  00035	48 8d a5 c8 00
	00 00		 lea	 rsp, QWORD PTR [rbp+200]
  0003c	5f		 pop	 rdi
  0003d	5d		 pop	 rbp
  0003e	c3		 ret	 0
??0_Container_base12@std@@QEAA@XZ ENDP			; std::_Container_base12::_Container_base12
_TEXT	ENDS
; Function compile flags: /Odtp /RTCsu /ZI
; File C:\Program Files\Microsoft Visual Studio\2022\Community\VC\Tools\MSVC\14.42.34433\include\xmemory
;	COMDAT ??0_Container_proxy@std@@QEAA@PEAU_Container_base12@1@@Z
_TEXT	SEGMENT
this$ = 224
_Mycont_$ = 232
??0_Container_proxy@std@@QEAA@PEAU_Container_base12@1@@Z PROC ; std::_Container_proxy::_Container_proxy, COMDAT

; 1166 :     _CONSTEXPR20 _Container_proxy(_Container_base12* _Mycont_) noexcept : _Mycont(_Mycont_) {}

$LN4:
  00000	48 89 54 24 10	 mov	 QWORD PTR [rsp+16], rdx
  00005	48 89 4c 24 08	 mov	 QWORD PTR [rsp+8], rcx
  0000a	55		 push	 rbp
  0000b	57		 push	 rdi
  0000c	48 81 ec e8 00
	00 00		 sub	 rsp, 232		; 000000e8H
  00013	48 8d 6c 24 20	 lea	 rbp, QWORD PTR [rsp+32]
  00018	48 8d 0d 00 00
	00 00		 lea	 rcx, OFFSET FLAT:__03BD3355_xmemory
  0001f	e8 00 00 00 00	 call	 __CheckForDebuggerJustMyCode
  00024	90		 npad	 1
  00025	48 8b 85 e0 00
	00 00		 mov	 rax, QWORD PTR this$[rbp]
  0002c	48 8b 8d e8 00
	00 00		 mov	 rcx, QWORD PTR _Mycont_$[rbp]
  00033	48 89 08	 mov	 QWORD PTR [rax], rcx

; 1167 : 
; 1168 :     const _Container_base12* _Mycont       = nullptr;
; 1169 :     mutable _Iterator_base12* _Myfirstiter = nullptr;

  00036	48 8b 85 e0 00
	00 00		 mov	 rax, QWORD PTR this$[rbp]
  0003d	48 c7 40 08 00
	00 00 00	 mov	 QWORD PTR [rax+8], 0

; 1166 :     _CONSTEXPR20 _Container_proxy(_Container_base12* _Mycont_) noexcept : _Mycont(_Mycont_) {}

  00045	48 8b 85 e0 00
	00 00		 mov	 rax, QWORD PTR this$[rbp]
  0004c	48 8d a5 c8 00
	00 00		 lea	 rsp, QWORD PTR [rbp+200]
  00053	5f		 pop	 rdi
  00054	5d		 pop	 rbp
  00055	c3		 ret	 0
??0_Container_proxy@std@@QEAA@PEAU_Container_base12@1@@Z ENDP ; std::_Container_proxy::_Container_proxy
_TEXT	ENDS
; Function compile flags: /Odtp /RTCsu /ZI
; File C:\Program Files\Microsoft Visual Studio\2022\Community\VC\Tools\MSVC\14.42.34433\include\xmemory
;	COMDAT ?_Adjust_manually_vector_aligned@std@@YAXAEAPEAXAEA_K@Z
_TEXT	SEGMENT
_Ptr_user$ = 8
_Ptr_container$ = 40
_Min_back_shift$ = 72
_Back_shift$ = 104
_Ptr$ = 352
_Bytes$ = 360
?_Adjust_manually_vector_aligned@std@@YAXAEAPEAXAEA_K@Z PROC ; std::_Adjust_manually_vector_aligned, COMDAT

; 169  : inline void _Adjust_manually_vector_aligned(void*& _Ptr, size_t& _Bytes) {

$LN21:
  00000	48 89 54 24 10	 mov	 QWORD PTR [rsp+16], rdx
  00005	48 89 4c 24 08	 mov	 QWORD PTR [rsp+8], rcx
  0000a	55		 push	 rbp
  0000b	57		 push	 rdi
  0000c	48 81 ec 78 01
	00 00		 sub	 rsp, 376		; 00000178H
  00013	48 8d 6c 24 30	 lea	 rbp, QWORD PTR [rsp+48]
  00018	48 8d 0d 00 00
	00 00		 lea	 rcx, OFFSET FLAT:__03BD3355_xmemory
  0001f	e8 00 00 00 00	 call	 __CheckForDebuggerJustMyCode
  00024	90		 npad	 1

; 170  :     // adjust parameters from _Allocate_manually_vector_aligned to pass to operator delete
; 171  :     _Bytes += _Non_user_size;

  00025	48 8b 85 68 01
	00 00		 mov	 rax, QWORD PTR _Bytes$[rbp]
  0002c	48 8b 00	 mov	 rax, QWORD PTR [rax]
  0002f	48 83 c0 2f	 add	 rax, 47			; 0000002fH
  00033	48 8b 8d 68 01
	00 00		 mov	 rcx, QWORD PTR _Bytes$[rbp]
  0003a	48 89 01	 mov	 QWORD PTR [rcx], rax

; 172  : 
; 173  :     const uintptr_t* const _Ptr_user = static_cast<uintptr_t*>(_Ptr);

  0003d	48 8b 85 60 01
	00 00		 mov	 rax, QWORD PTR _Ptr$[rbp]
  00044	48 8b 00	 mov	 rax, QWORD PTR [rax]
  00047	48 89 45 08	 mov	 QWORD PTR _Ptr_user$[rbp], rax

; 174  :     const uintptr_t _Ptr_container   = _Ptr_user[-1];

  0004b	b8 08 00 00 00	 mov	 eax, 8
  00050	48 6b c0 ff	 imul	 rax, rax, -1
  00054	48 8b 4d 08	 mov	 rcx, QWORD PTR _Ptr_user$[rbp]
  00058	48 8b 04 01	 mov	 rax, QWORD PTR [rcx+rax]
  0005c	48 89 45 28	 mov	 QWORD PTR _Ptr_container$[rbp], rax
$LN4@Adjust_man:

; 175  : 
; 176  :     // If the following asserts, it likely means that we are performing
; 177  :     // an aligned delete on memory coming from an unaligned allocation.
; 178  :     _STL_ASSERT(_Ptr_user[-2] == _Big_allocation_sentinel, "invalid argument");

  00060	b8 08 00 00 00	 mov	 eax, 8
  00065	48 6b c0 fe	 imul	 rax, rax, -2
  00069	48 8b 4d 08	 mov	 rcx, QWORD PTR _Ptr_user$[rbp]
  0006d	48 ba fa fa fa
	fa fa fa fa fa	 mov	 rdx, -361700864190383366 ; fafafafafafafafaH
  00077	48 39 14 01	 cmp	 QWORD PTR [rcx+rax], rdx
  0007b	75 02		 jne	 SHORT $LN14@Adjust_man
  0007d	eb 78		 jmp	 SHORT $LN15@Adjust_man
$LN14@Adjust_man:
$LN7@Adjust_man:
  0007f	8b 05 00 00 00
	00		 mov	 eax, DWORD PTR ?__LINE__Var@?0??_Adjust_manually_vector_aligned@std@@YAXAEAPEAXAEA_K@Z@4JA
  00085	83 c0 09	 add	 eax, 9
  00088	48 8d 0d 00 00
	00 00		 lea	 rcx, OFFSET FLAT:??_C@_0BB@FCMFBGOM@invalid?5argument@
  0008f	48 89 4c 24 28	 mov	 QWORD PTR [rsp+40], rcx
  00094	48 8d 0d 00 00
	00 00		 lea	 rcx, OFFSET FLAT:??_C@_02DKCKIIND@?$CFs@
  0009b	48 89 4c 24 20	 mov	 QWORD PTR [rsp+32], rcx
  000a0	45 33 c9	 xor	 r9d, r9d
  000a3	44 8b c0	 mov	 r8d, eax
  000a6	48 8d 15 00 00
	00 00		 lea	 rdx, OFFSET FLAT:??_C@_0GC@KIHIELAM@C?3?2Program?5Files?2Microsoft?5Visu@
  000ad	b9 02 00 00 00	 mov	 ecx, 2
  000b2	ff 15 00 00 00
	00		 call	 QWORD PTR __imp__CrtDbgReport
  000b8	83 f8 01	 cmp	 eax, 1
  000bb	75 03		 jne	 SHORT $LN19@Adjust_man
  000bd	cc		 int	 3
  000be	33 c0		 xor	 eax, eax
$LN19@Adjust_man:
  000c0	8b 05 00 00 00
	00		 mov	 eax, DWORD PTR ?__LINE__Var@?0??_Adjust_manually_vector_aligned@std@@YAXAEAPEAXAEA_K@Z@4JA
  000c6	83 c0 09	 add	 eax, 9
  000c9	48 c7 44 24 20
	00 00 00 00	 mov	 QWORD PTR [rsp+32], 0
  000d2	44 8b c8	 mov	 r9d, eax
  000d5	4c 8d 05 00 00
	00 00		 lea	 r8, OFFSET FLAT:??_C@_1ME@NMPKGKJL@?$AAC?$AA?3?$AA?2?$AAP?$AAr?$AAo?$AAg?$AAr?$AAa?$AAm?$AA?5?$AAF?$AAi?$AAl?$AAe@
  000dc	48 8d 15 00 00
	00 00		 lea	 rdx, OFFSET FLAT:??_C@_11LOCGONAA@@
  000e3	48 8d 0d 00 00
	00 00		 lea	 rcx, OFFSET FLAT:??_C@_1CG@JNLFBNGN@?$AA?$CC?$AAi?$AAn?$AAv?$AAa?$AAl?$AAi?$AAd?$AA?5?$AAa?$AAr?$AAg?$AAu?$AAm?$AAe@
  000ea	ff 15 00 00 00
	00		 call	 QWORD PTR __imp__invalid_parameter
  000f0	90		 npad	 1
  000f1	33 c0		 xor	 eax, eax
  000f3	85 c0		 test	 eax, eax
  000f5	75 88		 jne	 SHORT $LN7@Adjust_man
$LN15@Adjust_man:
  000f7	33 c0		 xor	 eax, eax
  000f9	85 c0		 test	 eax, eax
  000fb	0f 85 5f ff ff
	ff		 jne	 $LN4@Adjust_man

; 179  : 
; 180  :     // Extra paranoia on aligned allocation/deallocation; ensure _Ptr_container is
; 181  :     // in range [_Min_back_shift, _Non_user_size]
; 182  : #ifdef _DEBUG
; 183  :     constexpr uintptr_t _Min_back_shift = 2 * sizeof(void*);

  00101	48 c7 45 48 10
	00 00 00	 mov	 QWORD PTR _Min_back_shift$[rbp], 16

; 184  : #else // ^^^ defined(_DEBUG) / !defined(_DEBUG) vvv
; 185  :     constexpr uintptr_t _Min_back_shift = sizeof(void*);
; 186  : #endif // ^^^ !defined(_DEBUG) ^^^
; 187  :     const uintptr_t _Back_shift = reinterpret_cast<uintptr_t>(_Ptr) - _Ptr_container;

  00109	48 8b 85 60 01
	00 00		 mov	 rax, QWORD PTR _Ptr$[rbp]
  00110	48 8b 4d 28	 mov	 rcx, QWORD PTR _Ptr_container$[rbp]
  00114	48 8b 00	 mov	 rax, QWORD PTR [rax]
  00117	48 2b c1	 sub	 rax, rcx
  0011a	48 89 45 68	 mov	 QWORD PTR _Back_shift$[rbp], rax
$LN10@Adjust_man:

; 188  :     _STL_VERIFY(_Back_shift >= _Min_back_shift && _Back_shift <= _Non_user_size, "invalid argument");

  0011e	48 83 7d 68 10	 cmp	 QWORD PTR _Back_shift$[rbp], 16
  00123	72 09		 jb	 SHORT $LN16@Adjust_man
  00125	48 83 7d 68 2f	 cmp	 QWORD PTR _Back_shift$[rbp], 47 ; 0000002fH
  0012a	77 02		 ja	 SHORT $LN16@Adjust_man
  0012c	eb 78		 jmp	 SHORT $LN17@Adjust_man
$LN16@Adjust_man:
$LN13@Adjust_man:
  0012e	8b 05 00 00 00
	00		 mov	 eax, DWORD PTR ?__LINE__Var@?0??_Adjust_manually_vector_aligned@std@@YAXAEAPEAXAEA_K@Z@4JA
  00134	83 c0 13	 add	 eax, 19
  00137	48 8d 0d 00 00
	00 00		 lea	 rcx, OFFSET FLAT:??_C@_0BB@FCMFBGOM@invalid?5argument@
  0013e	48 89 4c 24 28	 mov	 QWORD PTR [rsp+40], rcx
  00143	48 8d 0d 00 00
	00 00		 lea	 rcx, OFFSET FLAT:??_C@_02DKCKIIND@?$CFs@
  0014a	48 89 4c 24 20	 mov	 QWORD PTR [rsp+32], rcx
  0014f	45 33 c9	 xor	 r9d, r9d
  00152	44 8b c0	 mov	 r8d, eax
  00155	48 8d 15 00 00
	00 00		 lea	 rdx, OFFSET FLAT:??_C@_0GC@KIHIELAM@C?3?2Program?5Files?2Microsoft?5Visu@
  0015c	b9 02 00 00 00	 mov	 ecx, 2
  00161	ff 15 00 00 00
	00		 call	 QWORD PTR __imp__CrtDbgReport
  00167	83 f8 01	 cmp	 eax, 1
  0016a	75 03		 jne	 SHORT $LN20@Adjust_man
  0016c	cc		 int	 3
  0016d	33 c0		 xor	 eax, eax
$LN20@Adjust_man:
  0016f	8b 05 00 00 00
	00		 mov	 eax, DWORD PTR ?__LINE__Var@?0??_Adjust_manually_vector_aligned@std@@YAXAEAPEAXAEA_K@Z@4JA
  00175	83 c0 13	 add	 eax, 19
  00178	48 c7 44 24 20
	00 00 00 00	 mov	 QWORD PTR [rsp+32], 0
  00181	44 8b c8	 mov	 r9d, eax
  00184	4c 8d 05 00 00
	00 00		 lea	 r8, OFFSET FLAT:??_C@_1ME@NMPKGKJL@?$AAC?$AA?3?$AA?2?$AAP?$AAr?$AAo?$AAg?$AAr?$AAa?$AAm?$AA?5?$AAF?$AAi?$AAl?$AAe@
  0018b	48 8d 15 00 00
	00 00		 lea	 rdx, OFFSET FLAT:??_C@_11LOCGONAA@@
  00192	48 8d 0d 00 00
	00 00		 lea	 rcx, OFFSET FLAT:??_C@_1CG@JNLFBNGN@?$AA?$CC?$AAi?$AAn?$AAv?$AAa?$AAl?$AAi?$AAd?$AA?5?$AAa?$AAr?$AAg?$AAu?$AAm?$AAe@
  00199	ff 15 00 00 00
	00		 call	 QWORD PTR __imp__invalid_parameter
  0019f	90		 npad	 1
  001a0	33 c0		 xor	 eax, eax
  001a2	85 c0		 test	 eax, eax
  001a4	75 88		 jne	 SHORT $LN13@Adjust_man
$LN17@Adjust_man:
  001a6	33 c0		 xor	 eax, eax
  001a8	85 c0		 test	 eax, eax
  001aa	0f 85 6e ff ff
	ff		 jne	 $LN10@Adjust_man

; 189  :     _Ptr = reinterpret_cast<void*>(_Ptr_container);

  001b0	48 8b 85 60 01
	00 00		 mov	 rax, QWORD PTR _Ptr$[rbp]
  001b7	48 8b 4d 28	 mov	 rcx, QWORD PTR _Ptr_container$[rbp]
  001bb	48 89 08	 mov	 QWORD PTR [rax], rcx

; 190  : }

  001be	48 8d a5 48 01
	00 00		 lea	 rsp, QWORD PTR [rbp+328]
  001c5	5f		 pop	 rdi
  001c6	5d		 pop	 rbp
  001c7	c3		 ret	 0
?_Adjust_manually_vector_aligned@std@@YAXAEAPEAXAEA_K@Z ENDP ; std::_Adjust_manually_vector_aligned
_TEXT	ENDS
; Function compile flags: /Odtp /RTCsu /ZI
; File C:\Program Files\Microsoft Visual Studio\2022\Community\VC\Tools\MSVC\14.42.34433\include\xmemory
;	COMDAT ?_Allocate@_Default_allocate_traits@std@@SAPEAX_K@Z
_TEXT	SEGMENT
_Bytes$ = 224
?_Allocate@_Default_allocate_traits@std@@SAPEAX_K@Z PROC ; std::_Default_allocate_traits::_Allocate, COMDAT

; 100  :         void* _Allocate(const size_t _Bytes) {

$LN3:
  00000	48 89 4c 24 08	 mov	 QWORD PTR [rsp+8], rcx
  00005	55		 push	 rbp
  00006	57		 push	 rdi
  00007	48 81 ec e8 00
	00 00		 sub	 rsp, 232		; 000000e8H
  0000e	48 8d 6c 24 20	 lea	 rbp, QWORD PTR [rsp+32]
  00013	48 8d 0d 00 00
	00 00		 lea	 rcx, OFFSET FLAT:__03BD3355_xmemory
  0001a	e8 00 00 00 00	 call	 __CheckForDebuggerJustMyCode
  0001f	90		 npad	 1

; 101  :         return ::operator new(_Bytes);

  00020	48 8b 8d e0 00
	00 00		 mov	 rcx, QWORD PTR _Bytes$[rbp]
  00027	e8 00 00 00 00	 call	 ??2@YAPEAX_K@Z		; operator new

; 102  :     }

  0002c	48 8d a5 c8 00
	00 00		 lea	 rsp, QWORD PTR [rbp+200]
  00033	5f		 pop	 rdi
  00034	5d		 pop	 rbp
  00035	c3		 ret	 0
?_Allocate@_Default_allocate_traits@std@@SAPEAX_K@Z ENDP ; std::_Default_allocate_traits::_Allocate
_TEXT	ENDS
; Function compile flags: /Odtp /RTCsu /ZI
; File C:\Program Files\Microsoft Visual Studio\2022\Community\VC\Tools\MSVC\14.42.34433\include\xmemory
;	COMDAT ?_Throw_bad_array_new_length@std@@YAXXZ
_TEXT	SEGMENT
$T1 = 200
?_Throw_bad_array_new_length@std@@YAXXZ PROC		; std::_Throw_bad_array_new_length, COMDAT

; 74   : [[noreturn]] inline void _Throw_bad_array_new_length() {

$LN3:
  00000	40 55		 push	 rbp
  00002	57		 push	 rdi
  00003	48 81 ec 18 01
	00 00		 sub	 rsp, 280		; 00000118H
  0000a	48 8d 6c 24 20	 lea	 rbp, QWORD PTR [rsp+32]
  0000f	48 8d 0d 00 00
	00 00		 lea	 rcx, OFFSET FLAT:__03BD3355_xmemory
  00016	e8 00 00 00 00	 call	 __CheckForDebuggerJustMyCode
  0001b	90		 npad	 1

; 75   :     _THROW(bad_array_new_length{});

  0001c	48 8d 8d c8 00
	00 00		 lea	 rcx, QWORD PTR $T1[rbp]
  00023	e8 00 00 00 00	 call	 ??0bad_array_new_length@std@@QEAA@XZ ; std::bad_array_new_length::bad_array_new_length
  00028	48 8d 15 00 00
	00 00		 lea	 rdx, OFFSET FLAT:_TI3?AVbad_array_new_length@std@@
  0002f	48 8d 8d c8 00
	00 00		 lea	 rcx, QWORD PTR $T1[rbp]
  00036	e8 00 00 00 00	 call	 _CxxThrowException
  0003b	90		 npad	 1
$LN2@Throw_bad_:

; 76   : }

  0003c	48 8d a5 f8 00
	00 00		 lea	 rsp, QWORD PTR [rbp+248]
  00043	5f		 pop	 rdi
  00044	5d		 pop	 rbp
  00045	c3		 ret	 0
?_Throw_bad_array_new_length@std@@YAXXZ ENDP		; std::_Throw_bad_array_new_length
_TEXT	ENDS
; Function compile flags: /Odtp /RTCsu /ZI
; File C:\Program Files\Microsoft Visual Studio\2022\Community\VC\Tools\MSVC\14.42.34433\include\__msvc_string_view.hpp
;	COMDAT ?eof@?$_Narrow_char_traits@DH@std@@SAHXZ
_TEXT	SEGMENT
?eof@?$_Narrow_char_traits@DH@std@@SAHXZ PROC		; std::_Narrow_char_traits<char,int>::eof, COMDAT

; 456  :     _NODISCARD static constexpr int_type eof() noexcept {

$LN4:
  00000	40 55		 push	 rbp
  00002	57		 push	 rdi
  00003	48 81 ec e8 00
	00 00		 sub	 rsp, 232		; 000000e8H
  0000a	48 8d 6c 24 20	 lea	 rbp, QWORD PTR [rsp+32]
  0000f	48 8d 0d 00 00
	00 00		 lea	 rcx, OFFSET FLAT:__39B162D3___msvc_string_view@hpp
  00016	e8 00 00 00 00	 call	 __CheckForDebuggerJustMyCode
  0001b	90		 npad	 1

; 457  :         return static_cast<int_type>(EOF);

  0001c	b8 ff ff ff ff	 mov	 eax, -1

; 458  :     }

  00021	48 8d a5 c8 00
	00 00		 lea	 rsp, QWORD PTR [rbp+200]
  00028	5f		 pop	 rdi
  00029	5d		 pop	 rbp
  0002a	c3		 ret	 0
?eof@?$_Narrow_char_traits@DH@std@@SAHXZ ENDP		; std::_Narrow_char_traits<char,int>::eof
_TEXT	ENDS
; Function compile flags: /Odtp /RTCsu /ZI
; File C:\Program Files\Microsoft Visual Studio\2022\Community\VC\Tools\MSVC\14.42.34433\include\__msvc_string_view.hpp
;	COMDAT ?eq_int_type@?$_Narrow_char_traits@DH@std@@SA_NHH@Z
_TEXT	SEGMENT
tv65 = 192
_Left$ = 240
_Right$ = 248
?eq_int_type@?$_Narrow_char_traits@DH@std@@SA_NHH@Z PROC ; std::_Narrow_char_traits<char,int>::eq_int_type, COMDAT

; 448  :     _NODISCARD static constexpr bool eq_int_type(const int_type _Left, const int_type _Right) noexcept {

$LN6:
  00000	89 54 24 10	 mov	 DWORD PTR [rsp+16], edx
  00004	89 4c 24 08	 mov	 DWORD PTR [rsp+8], ecx
  00008	55		 push	 rbp
  00009	57		 push	 rdi
  0000a	48 81 ec f8 00
	00 00		 sub	 rsp, 248		; 000000f8H
  00011	48 8d 6c 24 20	 lea	 rbp, QWORD PTR [rsp+32]
  00016	48 8d 0d 00 00
	00 00		 lea	 rcx, OFFSET FLAT:__39B162D3___msvc_string_view@hpp
  0001d	e8 00 00 00 00	 call	 __CheckForDebuggerJustMyCode
  00022	90		 npad	 1

; 449  :         return _Left == _Right;

  00023	8b 85 f8 00 00
	00		 mov	 eax, DWORD PTR _Right$[rbp]
  00029	39 85 f0 00 00
	00		 cmp	 DWORD PTR _Left$[rbp], eax
  0002f	75 0c		 jne	 SHORT $LN3@eq_int_typ
  00031	c7 85 c0 00 00
	00 01 00 00 00	 mov	 DWORD PTR tv65[rbp], 1
  0003b	eb 0a		 jmp	 SHORT $LN4@eq_int_typ
$LN3@eq_int_typ:
  0003d	c7 85 c0 00 00
	00 00 00 00 00	 mov	 DWORD PTR tv65[rbp], 0
$LN4@eq_int_typ:
  00047	0f b6 85 c0 00
	00 00		 movzx	 eax, BYTE PTR tv65[rbp]

; 450  :     }

  0004e	48 8d a5 d8 00
	00 00		 lea	 rsp, QWORD PTR [rbp+216]
  00055	5f		 pop	 rdi
  00056	5d		 pop	 rbp
  00057	c3		 ret	 0
?eq_int_type@?$_Narrow_char_traits@DH@std@@SA_NHH@Z ENDP ; std::_Narrow_char_traits<char,int>::eq_int_type
_TEXT	ENDS
; Function compile flags: /Odtp /RTCsu /ZI
; File C:\Program Files\Microsoft Visual Studio\2022\Community\VC\Tools\MSVC\14.42.34433\include\__msvc_string_view.hpp
;	COMDAT ?assign@?$_Narrow_char_traits@DH@std@@SAXAEADAEBD@Z
_TEXT	SEGMENT
_Left$ = 224
_Right$ = 232
?assign@?$_Narrow_char_traits@DH@std@@SAXAEADAEBD@Z PROC ; std::_Narrow_char_traits<char,int>::assign, COMDAT

; 423  :     static _CONSTEXPR17 void assign(_Elem& _Left, const _Elem& _Right) noexcept {

$LN4:
  00000	48 89 54 24 10	 mov	 QWORD PTR [rsp+16], rdx
  00005	48 89 4c 24 08	 mov	 QWORD PTR [rsp+8], rcx
  0000a	55		 push	 rbp
  0000b	57		 push	 rdi
  0000c	48 81 ec e8 00
	00 00		 sub	 rsp, 232		; 000000e8H
  00013	48 8d 6c 24 20	 lea	 rbp, QWORD PTR [rsp+32]
  00018	48 8d 0d 00 00
	00 00		 lea	 rcx, OFFSET FLAT:__39B162D3___msvc_string_view@hpp
  0001f	e8 00 00 00 00	 call	 __CheckForDebuggerJustMyCode
  00024	90		 npad	 1

; 424  : #if _HAS_CXX20
; 425  :         if (_STD is_constant_evaluated()) {
; 426  :             return _Primary_char_traits::assign(_Left, _Right);
; 427  :         }
; 428  : #endif // _HAS_CXX20
; 429  :         _Left = _Right;

  00025	48 8b 85 e0 00
	00 00		 mov	 rax, QWORD PTR _Left$[rbp]
  0002c	48 8b 8d e8 00
	00 00		 mov	 rcx, QWORD PTR _Right$[rbp]
  00033	0f b6 09	 movzx	 ecx, BYTE PTR [rcx]
  00036	88 08		 mov	 BYTE PTR [rax], cl

; 430  :     }

  00038	48 8d a5 c8 00
	00 00		 lea	 rsp, QWORD PTR [rbp+200]
  0003f	5f		 pop	 rdi
  00040	5d		 pop	 rbp
  00041	c3		 ret	 0
?assign@?$_Narrow_char_traits@DH@std@@SAXAEADAEBD@Z ENDP ; std::_Narrow_char_traits<char,int>::assign
_TEXT	ENDS
; Function compile flags: /Odtp /RTCsu /ZI
; File C:\Program Files\Microsoft Visual Studio\2022\Community\VC\Tools\MSVC\14.42.34433\include\__msvc_string_view.hpp
;	COMDAT ?length@?$_Narrow_char_traits@DH@std@@SA_KQEBD@Z
_TEXT	SEGMENT
_First$ = 224
?length@?$_Narrow_char_traits@DH@std@@SA_KQEBD@Z PROC	; std::_Narrow_char_traits<char,int>::length, COMDAT

; 370  :     _NODISCARD static _CONSTEXPR17 size_t length(_In_z_ const _Elem* const _First) noexcept /* strengthened */ {

$LN4:
  00000	48 89 4c 24 08	 mov	 QWORD PTR [rsp+8], rcx
  00005	55		 push	 rbp
  00006	57		 push	 rdi
  00007	48 81 ec e8 00
	00 00		 sub	 rsp, 232		; 000000e8H
  0000e	48 8d 6c 24 20	 lea	 rbp, QWORD PTR [rsp+32]
  00013	48 8d 0d 00 00
	00 00		 lea	 rcx, OFFSET FLAT:__39B162D3___msvc_string_view@hpp
  0001a	e8 00 00 00 00	 call	 __CheckForDebuggerJustMyCode
  0001f	90		 npad	 1

; 371  :         // find length of null-terminated string
; 372  : #if _HAS_CXX17
; 373  : #ifdef __cpp_char8_t
; 374  :         if constexpr (is_same_v<_Elem, char8_t>) {
; 375  : #if _HAS_U8_INTRINSICS
; 376  :             return __builtin_u8strlen(_First);
; 377  : #else // ^^^ use u8 intrinsics / no u8 intrinsics vvv
; 378  :             return _Primary_char_traits::length(_First);
; 379  : #endif // ^^^ no u8 intrinsics ^^^
; 380  :         } else
; 381  : #endif // defined(__cpp_char8_t)
; 382  :         {
; 383  :             return __builtin_strlen(_First);
; 384  :         }
; 385  : #else // ^^^ _HAS_CXX17 / !_HAS_CXX17 vvv
; 386  :         return _CSTD strlen(reinterpret_cast<const char*>(_First));

  00020	48 8b 8d e0 00
	00 00		 mov	 rcx, QWORD PTR _First$[rbp]
  00027	e8 00 00 00 00	 call	 strlen

; 387  : #endif // ^^^ !_HAS_CXX17 ^^^
; 388  :     }

  0002c	48 8d a5 c8 00
	00 00		 lea	 rsp, QWORD PTR [rbp+200]
  00033	5f		 pop	 rdi
  00034	5d		 pop	 rbp
  00035	c3		 ret	 0
?length@?$_Narrow_char_traits@DH@std@@SA_KQEBD@Z ENDP	; std::_Narrow_char_traits<char,int>::length
_TEXT	ENDS
; Function compile flags: /Odtp /RTCsu /ZI
; File C:\Program Files\Microsoft Visual Studio\2022\Community\VC\Tools\MSVC\14.42.34433\include\__msvc_string_view.hpp
;	COMDAT ?copy@?$_Char_traits@DH@std@@SAPEADQEADQEBD_K@Z
_TEXT	SEGMENT
_First1$ = 224
_First2$ = 232
_Count$ = 240
?copy@?$_Char_traits@DH@std@@SAPEADQEADQEBD_K@Z PROC	; std::_Char_traits<char,int>::copy, COMDAT

; 43   :         _In_reads_(_Count) const _Elem* const _First2, const size_t _Count) noexcept /* strengthened */ {

$LN4:
  00000	4c 89 44 24 18	 mov	 QWORD PTR [rsp+24], r8
  00005	48 89 54 24 10	 mov	 QWORD PTR [rsp+16], rdx
  0000a	48 89 4c 24 08	 mov	 QWORD PTR [rsp+8], rcx
  0000f	55		 push	 rbp
  00010	57		 push	 rdi
  00011	48 81 ec e8 00
	00 00		 sub	 rsp, 232		; 000000e8H
  00018	48 8d 6c 24 20	 lea	 rbp, QWORD PTR [rsp+32]
  0001d	48 8d 0d 00 00
	00 00		 lea	 rcx, OFFSET FLAT:__39B162D3___msvc_string_view@hpp
  00024	e8 00 00 00 00	 call	 __CheckForDebuggerJustMyCode
  00029	90		 npad	 1

; 44   :         // copy [_First2, _First2 + _Count) to [_First1, ...)
; 45   : #if _HAS_MEMCPY_MEMMOVE_INTRINSICS
; 46   :         __builtin_memcpy(_First1, _First2, _Count * sizeof(_Elem));
; 47   : #else // ^^^ _HAS_MEMCPY_MEMMOVE_INTRINSICS / !_HAS_MEMCPY_MEMMOVE_INTRINSICS vvv
; 48   : #if _HAS_CXX20
; 49   :         if (_STD is_constant_evaluated()) {
; 50   :             // pre: [_First1, _First1 + _Count) and [_First2, _First2 + _Count) do not overlap
; 51   :             for (size_t _Idx = 0; _Idx != _Count; ++_Idx) {
; 52   :                 _First1[_Idx] = _First2[_Idx];
; 53   :             }
; 54   : 
; 55   :             return _First1;
; 56   :         }
; 57   : #endif // _HAS_CXX20
; 58   : 
; 59   :         _CSTD memcpy(_First1, _First2, _Count * sizeof(_Elem));

  0002a	4c 8b 85 f0 00
	00 00		 mov	 r8, QWORD PTR _Count$[rbp]
  00031	48 8b 95 e8 00
	00 00		 mov	 rdx, QWORD PTR _First2$[rbp]
  00038	48 8b 8d e0 00
	00 00		 mov	 rcx, QWORD PTR _First1$[rbp]
  0003f	e8 00 00 00 00	 call	 memcpy
  00044	90		 npad	 1

; 60   : #endif // ^^^ !_HAS_MEMCPY_MEMMOVE_INTRINSICS ^^^
; 61   : 
; 62   :         return _First1;

  00045	48 8b 85 e0 00
	00 00		 mov	 rax, QWORD PTR _First1$[rbp]

; 63   :     }

  0004c	48 8d a5 c8 00
	00 00		 lea	 rsp, QWORD PTR [rbp+200]
  00053	5f		 pop	 rdi
  00054	5d		 pop	 rbp
  00055	c3		 ret	 0
?copy@?$_Char_traits@DH@std@@SAPEADQEADQEBD_K@Z ENDP	; std::_Char_traits<char,int>::copy
_TEXT	ENDS
; Function compile flags: /Odtp /RTCsu /ZI
;	COMDAT ??_Gbad_array_new_length@std@@UEAAPEAXI@Z
_TEXT	SEGMENT
this$ = 224
__flags$ = 232
??_Gbad_array_new_length@std@@UEAAPEAXI@Z PROC		; std::bad_array_new_length::`scalar deleting destructor', COMDAT
$LN5:
  00000	89 54 24 10	 mov	 DWORD PTR [rsp+16], edx
  00004	48 89 4c 24 08	 mov	 QWORD PTR [rsp+8], rcx
  00009	55		 push	 rbp
  0000a	57		 push	 rdi
  0000b	48 81 ec e8 00
	00 00		 sub	 rsp, 232		; 000000e8H
  00012	48 8d 6c 24 20	 lea	 rbp, QWORD PTR [rsp+32]
  00017	48 8b 8d e0 00
	00 00		 mov	 rcx, QWORD PTR this$[rbp]
  0001e	e8 00 00 00 00	 call	 ??1bad_array_new_length@std@@UEAA@XZ
  00023	90		 npad	 1
  00024	8b 85 e8 00 00
	00		 mov	 eax, DWORD PTR __flags$[rbp]
  0002a	83 e0 01	 and	 eax, 1
  0002d	85 c0		 test	 eax, eax
  0002f	74 12		 je	 SHORT $LN2@scalar
  00031	ba 18 00 00 00	 mov	 edx, 24
  00036	48 8b 8d e0 00
	00 00		 mov	 rcx, QWORD PTR this$[rbp]
  0003d	e8 00 00 00 00	 call	 ??3@YAXPEAX_K@Z		; operator delete
  00042	90		 npad	 1
$LN2@scalar:
  00043	48 8b 85 e0 00
	00 00		 mov	 rax, QWORD PTR this$[rbp]
  0004a	48 8d a5 c8 00
	00 00		 lea	 rsp, QWORD PTR [rbp+200]
  00051	5f		 pop	 rdi
  00052	5d		 pop	 rbp
  00053	c3		 ret	 0
??_Gbad_array_new_length@std@@UEAAPEAXI@Z ENDP		; std::bad_array_new_length::`scalar deleting destructor'
_TEXT	ENDS
; Function compile flags: /Odtp /RTCsu /ZI
;	COMDAT ??0bad_array_new_length@std@@QEAA@AEBV01@@Z
_TEXT	SEGMENT
this$ = 224
__that$ = 232
??0bad_array_new_length@std@@QEAA@AEBV01@@Z PROC	; std::bad_array_new_length::bad_array_new_length, COMDAT
$LN4:
  00000	48 89 54 24 10	 mov	 QWORD PTR [rsp+16], rdx
  00005	48 89 4c 24 08	 mov	 QWORD PTR [rsp+8], rcx
  0000a	55		 push	 rbp
  0000b	57		 push	 rdi
  0000c	48 81 ec e8 00
	00 00		 sub	 rsp, 232		; 000000e8H
  00013	48 8d 6c 24 20	 lea	 rbp, QWORD PTR [rsp+32]
  00018	48 8b 95 e8 00
	00 00		 mov	 rdx, QWORD PTR __that$[rbp]
  0001f	48 8b 8d e0 00
	00 00		 mov	 rcx, QWORD PTR this$[rbp]
  00026	e8 00 00 00 00	 call	 ??0bad_alloc@std@@QEAA@AEBV01@@Z
  0002b	90		 npad	 1
  0002c	48 8b 85 e0 00
	00 00		 mov	 rax, QWORD PTR this$[rbp]
  00033	48 8d 0d 00 00
	00 00		 lea	 rcx, OFFSET FLAT:??_7bad_array_new_length@std@@6B@
  0003a	48 89 08	 mov	 QWORD PTR [rax], rcx
  0003d	48 8b 85 e0 00
	00 00		 mov	 rax, QWORD PTR this$[rbp]
  00044	48 8d a5 c8 00
	00 00		 lea	 rsp, QWORD PTR [rbp+200]
  0004b	5f		 pop	 rdi
  0004c	5d		 pop	 rbp
  0004d	c3		 ret	 0
??0bad_array_new_length@std@@QEAA@AEBV01@@Z ENDP	; std::bad_array_new_length::bad_array_new_length
_TEXT	ENDS
; Function compile flags: /Odtp /RTCsu /ZI
;	COMDAT ??1bad_array_new_length@std@@UEAA@XZ
_TEXT	SEGMENT
this$ = 224
??1bad_array_new_length@std@@UEAA@XZ PROC		; std::bad_array_new_length::~bad_array_new_length, COMDAT
$LN4:
  00000	48 89 4c 24 08	 mov	 QWORD PTR [rsp+8], rcx
  00005	55		 push	 rbp
  00006	57		 push	 rdi
  00007	48 81 ec e8 00
	00 00		 sub	 rsp, 232		; 000000e8H
  0000e	48 8d 6c 24 20	 lea	 rbp, QWORD PTR [rsp+32]
  00013	48 8b 8d e0 00
	00 00		 mov	 rcx, QWORD PTR this$[rbp]
  0001a	e8 00 00 00 00	 call	 ??1bad_alloc@std@@UEAA@XZ
  0001f	90		 npad	 1
  00020	48 8d a5 c8 00
	00 00		 lea	 rsp, QWORD PTR [rbp+200]
  00027	5f		 pop	 rdi
  00028	5d		 pop	 rbp
  00029	c3		 ret	 0
??1bad_array_new_length@std@@UEAA@XZ ENDP		; std::bad_array_new_length::~bad_array_new_length
_TEXT	ENDS
; Function compile flags: /Odtp /RTCsu /ZI
; File C:\Program Files\Microsoft Visual Studio\2022\Community\VC\Tools\MSVC\14.42.34433\include\vcruntime_exception.h
;	COMDAT ??0bad_array_new_length@std@@QEAA@XZ
_TEXT	SEGMENT
this$ = 224
??0bad_array_new_length@std@@QEAA@XZ PROC		; std::bad_array_new_length::bad_array_new_length, COMDAT

; 144  :     {

$LN4:
  00000	48 89 4c 24 08	 mov	 QWORD PTR [rsp+8], rcx
  00005	55		 push	 rbp
  00006	57		 push	 rdi
  00007	48 81 ec e8 00
	00 00		 sub	 rsp, 232		; 000000e8H
  0000e	48 8d 6c 24 20	 lea	 rbp, QWORD PTR [rsp+32]
  00013	48 8d 0d 00 00
	00 00		 lea	 rcx, OFFSET FLAT:__8E23F663_vcruntime_exception@h
  0001a	e8 00 00 00 00	 call	 __CheckForDebuggerJustMyCode
  0001f	90		 npad	 1

; 143  :         : bad_alloc("bad array new length")

  00020	48 8d 15 00 00
	00 00		 lea	 rdx, OFFSET FLAT:??_C@_0BF@KINCDENJ@bad?5array?5new?5length@
  00027	48 8b 8d e0 00
	00 00		 mov	 rcx, QWORD PTR this$[rbp]
  0002e	e8 00 00 00 00	 call	 ??0bad_alloc@std@@AEAA@QEBD@Z ; std::bad_alloc::bad_alloc
  00033	90		 npad	 1

; 144  :     {

  00034	48 8b 85 e0 00
	00 00		 mov	 rax, QWORD PTR this$[rbp]
  0003b	48 8d 0d 00 00
	00 00		 lea	 rcx, OFFSET FLAT:??_7bad_array_new_length@std@@6B@
  00042	48 89 08	 mov	 QWORD PTR [rax], rcx

; 145  :     }

  00045	48 8b 85 e0 00
	00 00		 mov	 rax, QWORD PTR this$[rbp]
  0004c	48 8d a5 c8 00
	00 00		 lea	 rsp, QWORD PTR [rbp+200]
  00053	5f		 pop	 rdi
  00054	5d		 pop	 rbp
  00055	c3		 ret	 0
??0bad_array_new_length@std@@QEAA@XZ ENDP		; std::bad_array_new_length::bad_array_new_length
_TEXT	ENDS
; Function compile flags: /Odtp /RTCsu /ZI
;	COMDAT ??_Gbad_alloc@std@@UEAAPEAXI@Z
_TEXT	SEGMENT
this$ = 224
__flags$ = 232
??_Gbad_alloc@std@@UEAAPEAXI@Z PROC			; std::bad_alloc::`scalar deleting destructor', COMDAT
$LN5:
  00000	89 54 24 10	 mov	 DWORD PTR [rsp+16], edx
  00004	48 89 4c 24 08	 mov	 QWORD PTR [rsp+8], rcx
  00009	55		 push	 rbp
  0000a	57		 push	 rdi
  0000b	48 81 ec e8 00
	00 00		 sub	 rsp, 232		; 000000e8H
  00012	48 8d 6c 24 20	 lea	 rbp, QWORD PTR [rsp+32]
  00017	48 8b 8d e0 00
	00 00		 mov	 rcx, QWORD PTR this$[rbp]
  0001e	e8 00 00 00 00	 call	 ??1bad_alloc@std@@UEAA@XZ
  00023	90		 npad	 1
  00024	8b 85 e8 00 00
	00		 mov	 eax, DWORD PTR __flags$[rbp]
  0002a	83 e0 01	 and	 eax, 1
  0002d	85 c0		 test	 eax, eax
  0002f	74 12		 je	 SHORT $LN2@scalar
  00031	ba 18 00 00 00	 mov	 edx, 24
  00036	48 8b 8d e0 00
	00 00		 mov	 rcx, QWORD PTR this$[rbp]
  0003d	e8 00 00 00 00	 call	 ??3@YAXPEAX_K@Z		; operator delete
  00042	90		 npad	 1
$LN2@scalar:
  00043	48 8b 85 e0 00
	00 00		 mov	 rax, QWORD PTR this$[rbp]
  0004a	48 8d a5 c8 00
	00 00		 lea	 rsp, QWORD PTR [rbp+200]
  00051	5f		 pop	 rdi
  00052	5d		 pop	 rbp
  00053	c3		 ret	 0
??_Gbad_alloc@std@@UEAAPEAXI@Z ENDP			; std::bad_alloc::`scalar deleting destructor'
_TEXT	ENDS
; Function compile flags: /Odtp /RTCsu /ZI
;	COMDAT ??0bad_alloc@std@@QEAA@AEBV01@@Z
_TEXT	SEGMENT
this$ = 224
__that$ = 232
??0bad_alloc@std@@QEAA@AEBV01@@Z PROC			; std::bad_alloc::bad_alloc, COMDAT
$LN4:
  00000	48 89 54 24 10	 mov	 QWORD PTR [rsp+16], rdx
  00005	48 89 4c 24 08	 mov	 QWORD PTR [rsp+8], rcx
  0000a	55		 push	 rbp
  0000b	57		 push	 rdi
  0000c	48 81 ec e8 00
	00 00		 sub	 rsp, 232		; 000000e8H
  00013	48 8d 6c 24 20	 lea	 rbp, QWORD PTR [rsp+32]
  00018	48 8b 95 e8 00
	00 00		 mov	 rdx, QWORD PTR __that$[rbp]
  0001f	48 8b 8d e0 00
	00 00		 mov	 rcx, QWORD PTR this$[rbp]
  00026	e8 00 00 00 00	 call	 ??0exception@std@@QEAA@AEBV01@@Z ; std::exception::exception
  0002b	90		 npad	 1
  0002c	48 8b 85 e0 00
	00 00		 mov	 rax, QWORD PTR this$[rbp]
  00033	48 8d 0d 00 00
	00 00		 lea	 rcx, OFFSET FLAT:??_7bad_alloc@std@@6B@
  0003a	48 89 08	 mov	 QWORD PTR [rax], rcx
  0003d	48 8b 85 e0 00
	00 00		 mov	 rax, QWORD PTR this$[rbp]
  00044	48 8d a5 c8 00
	00 00		 lea	 rsp, QWORD PTR [rbp+200]
  0004b	5f		 pop	 rdi
  0004c	5d		 pop	 rbp
  0004d	c3		 ret	 0
??0bad_alloc@std@@QEAA@AEBV01@@Z ENDP			; std::bad_alloc::bad_alloc
_TEXT	ENDS
; Function compile flags: /Odtp /RTCsu /ZI
;	COMDAT ??1bad_alloc@std@@UEAA@XZ
_TEXT	SEGMENT
this$ = 224
??1bad_alloc@std@@UEAA@XZ PROC				; std::bad_alloc::~bad_alloc, COMDAT
$LN4:
  00000	48 89 4c 24 08	 mov	 QWORD PTR [rsp+8], rcx
  00005	55		 push	 rbp
  00006	57		 push	 rdi
  00007	48 81 ec e8 00
	00 00		 sub	 rsp, 232		; 000000e8H
  0000e	48 8d 6c 24 20	 lea	 rbp, QWORD PTR [rsp+32]
  00013	48 8b 8d e0 00
	00 00		 mov	 rcx, QWORD PTR this$[rbp]
  0001a	e8 00 00 00 00	 call	 ??1exception@std@@UEAA@XZ ; std::exception::~exception
  0001f	90		 npad	 1
  00020	48 8d a5 c8 00
	00 00		 lea	 rsp, QWORD PTR [rbp+200]
  00027	5f		 pop	 rdi
  00028	5d		 pop	 rbp
  00029	c3		 ret	 0
??1bad_alloc@std@@UEAA@XZ ENDP				; std::bad_alloc::~bad_alloc
_TEXT	ENDS
; Function compile flags: /Odtp /RTCsu /ZI
; File C:\Program Files\Microsoft Visual Studio\2022\Community\VC\Tools\MSVC\14.42.34433\include\vcruntime_exception.h
;	COMDAT ??0bad_alloc@std@@AEAA@QEBD@Z
_TEXT	SEGMENT
this$ = 224
_Message$ = 232
??0bad_alloc@std@@AEAA@QEBD@Z PROC			; std::bad_alloc::bad_alloc, COMDAT

; 133  :     {

$LN4:
  00000	48 89 54 24 10	 mov	 QWORD PTR [rsp+16], rdx
  00005	48 89 4c 24 08	 mov	 QWORD PTR [rsp+8], rcx
  0000a	55		 push	 rbp
  0000b	57		 push	 rdi
  0000c	48 81 ec e8 00
	00 00		 sub	 rsp, 232		; 000000e8H
  00013	48 8d 6c 24 20	 lea	 rbp, QWORD PTR [rsp+32]
  00018	48 8d 0d 00 00
	00 00		 lea	 rcx, OFFSET FLAT:__8E23F663_vcruntime_exception@h
  0001f	e8 00 00 00 00	 call	 __CheckForDebuggerJustMyCode
  00024	90		 npad	 1

; 132  :         : exception(_Message, 1)

  00025	41 b8 01 00 00
	00		 mov	 r8d, 1
  0002b	48 8b 95 e8 00
	00 00		 mov	 rdx, QWORD PTR _Message$[rbp]
  00032	48 8b 8d e0 00
	00 00		 mov	 rcx, QWORD PTR this$[rbp]
  00039	e8 00 00 00 00	 call	 ??0exception@std@@QEAA@QEBDH@Z ; std::exception::exception
  0003e	90		 npad	 1

; 133  :     {

  0003f	48 8b 85 e0 00
	00 00		 mov	 rax, QWORD PTR this$[rbp]
  00046	48 8d 0d 00 00
	00 00		 lea	 rcx, OFFSET FLAT:??_7bad_alloc@std@@6B@
  0004d	48 89 08	 mov	 QWORD PTR [rax], rcx

; 134  :     }

  00050	48 8b 85 e0 00
	00 00		 mov	 rax, QWORD PTR this$[rbp]
  00057	48 8d a5 c8 00
	00 00		 lea	 rsp, QWORD PTR [rbp+200]
  0005e	5f		 pop	 rdi
  0005f	5d		 pop	 rbp
  00060	c3		 ret	 0
??0bad_alloc@std@@AEAA@QEBD@Z ENDP			; std::bad_alloc::bad_alloc
_TEXT	ENDS
; Function compile flags: /Odtp /RTCsu /ZI
;	COMDAT ??_Gexception@std@@UEAAPEAXI@Z
_TEXT	SEGMENT
this$ = 224
__flags$ = 232
??_Gexception@std@@UEAAPEAXI@Z PROC			; std::exception::`scalar deleting destructor', COMDAT
$LN5:
  00000	89 54 24 10	 mov	 DWORD PTR [rsp+16], edx
  00004	48 89 4c 24 08	 mov	 QWORD PTR [rsp+8], rcx
  00009	55		 push	 rbp
  0000a	57		 push	 rdi
  0000b	48 81 ec e8 00
	00 00		 sub	 rsp, 232		; 000000e8H
  00012	48 8d 6c 24 20	 lea	 rbp, QWORD PTR [rsp+32]
  00017	48 8b 8d e0 00
	00 00		 mov	 rcx, QWORD PTR this$[rbp]
  0001e	e8 00 00 00 00	 call	 ??1exception@std@@UEAA@XZ ; std::exception::~exception
  00023	90		 npad	 1
  00024	8b 85 e8 00 00
	00		 mov	 eax, DWORD PTR __flags$[rbp]
  0002a	83 e0 01	 and	 eax, 1
  0002d	85 c0		 test	 eax, eax
  0002f	74 12		 je	 SHORT $LN2@scalar
  00031	ba 18 00 00 00	 mov	 edx, 24
  00036	48 8b 8d e0 00
	00 00		 mov	 rcx, QWORD PTR this$[rbp]
  0003d	e8 00 00 00 00	 call	 ??3@YAXPEAX_K@Z		; operator delete
  00042	90		 npad	 1
$LN2@scalar:
  00043	48 8b 85 e0 00
	00 00		 mov	 rax, QWORD PTR this$[rbp]
  0004a	48 8d a5 c8 00
	00 00		 lea	 rsp, QWORD PTR [rbp+200]
  00051	5f		 pop	 rdi
  00052	5d		 pop	 rbp
  00053	c3		 ret	 0
??_Gexception@std@@UEAAPEAXI@Z ENDP			; std::exception::`scalar deleting destructor'
_TEXT	ENDS
; Function compile flags: /Odtp /RTCsu /ZI
; File C:\Program Files\Microsoft Visual Studio\2022\Community\VC\Tools\MSVC\14.42.34433\include\vcruntime_exception.h
;	COMDAT ?what@exception@std@@UEBAPEBDXZ
_TEXT	SEGMENT
tv69 = 192
this$ = 240
?what@exception@std@@UEBAPEBDXZ PROC			; std::exception::what, COMDAT

; 95   :     {

$LN5:
  00000	48 89 4c 24 08	 mov	 QWORD PTR [rsp+8], rcx
  00005	55		 push	 rbp
  00006	57		 push	 rdi
  00007	48 81 ec f8 00
	00 00		 sub	 rsp, 248		; 000000f8H
  0000e	48 8d 6c 24 20	 lea	 rbp, QWORD PTR [rsp+32]
  00013	48 8d 0d 00 00
	00 00		 lea	 rcx, OFFSET FLAT:__8E23F663_vcruntime_exception@h
  0001a	e8 00 00 00 00	 call	 __CheckForDebuggerJustMyCode
  0001f	90		 npad	 1

; 96   :         return _Data._What ? _Data._What : "Unknown exception";

  00020	48 8b 85 f0 00
	00 00		 mov	 rax, QWORD PTR this$[rbp]
  00027	48 83 78 08 00	 cmp	 QWORD PTR [rax+8], 0
  0002c	74 14		 je	 SHORT $LN3@what
  0002e	48 8b 85 f0 00
	00 00		 mov	 rax, QWORD PTR this$[rbp]
  00035	48 8b 40 08	 mov	 rax, QWORD PTR [rax+8]
  00039	48 89 85 c0 00
	00 00		 mov	 QWORD PTR tv69[rbp], rax
  00040	eb 0e		 jmp	 SHORT $LN4@what
$LN3@what:
  00042	48 8d 05 00 00
	00 00		 lea	 rax, OFFSET FLAT:??_C@_0BC@EOODALEL@Unknown?5exception@
  00049	48 89 85 c0 00
	00 00		 mov	 QWORD PTR tv69[rbp], rax
$LN4@what:
  00050	48 8b 85 c0 00
	00 00		 mov	 rax, QWORD PTR tv69[rbp]

; 97   :     }

  00057	48 8d a5 d8 00
	00 00		 lea	 rsp, QWORD PTR [rbp+216]
  0005e	5f		 pop	 rdi
  0005f	5d		 pop	 rbp
  00060	c3		 ret	 0
?what@exception@std@@UEBAPEBDXZ ENDP			; std::exception::what
_TEXT	ENDS
; Function compile flags: /Odtp /RTCsu /ZI
; File C:\Program Files\Microsoft Visual Studio\2022\Community\VC\Tools\MSVC\14.42.34433\include\vcruntime_exception.h
;	COMDAT ??1exception@std@@UEAA@XZ
_TEXT	SEGMENT
this$ = 224
??1exception@std@@UEAA@XZ PROC				; std::exception::~exception, COMDAT

; 90   :     {

$LN4:
  00000	48 89 4c 24 08	 mov	 QWORD PTR [rsp+8], rcx
  00005	55		 push	 rbp
  00006	57		 push	 rdi
  00007	48 81 ec e8 00
	00 00		 sub	 rsp, 232		; 000000e8H
  0000e	48 8d 6c 24 20	 lea	 rbp, QWORD PTR [rsp+32]
  00013	48 8d 0d 00 00
	00 00		 lea	 rcx, OFFSET FLAT:__8E23F663_vcruntime_exception@h
  0001a	e8 00 00 00 00	 call	 __CheckForDebuggerJustMyCode
  0001f	90		 npad	 1
  00020	48 8b 85 e0 00
	00 00		 mov	 rax, QWORD PTR this$[rbp]
  00027	48 8d 0d 00 00
	00 00		 lea	 rcx, OFFSET FLAT:??_7exception@std@@6B@
  0002e	48 89 08	 mov	 QWORD PTR [rax], rcx

; 91   :         __std_exception_destroy(&_Data);

  00031	48 8b 85 e0 00
	00 00		 mov	 rax, QWORD PTR this$[rbp]
  00038	48 83 c0 08	 add	 rax, 8
  0003c	48 8b c8	 mov	 rcx, rax
  0003f	e8 00 00 00 00	 call	 __std_exception_destroy
  00044	90		 npad	 1

; 92   :     }

  00045	48 8d a5 c8 00
	00 00		 lea	 rsp, QWORD PTR [rbp+200]
  0004c	5f		 pop	 rdi
  0004d	5d		 pop	 rbp
  0004e	c3		 ret	 0
??1exception@std@@UEAA@XZ ENDP				; std::exception::~exception
_TEXT	ENDS
; Function compile flags: /Odtp /RTCsu /ZI
; File C:\Program Files\Microsoft Visual Studio\2022\Community\VC\Tools\MSVC\14.42.34433\include\vcruntime_exception.h
;	COMDAT ??0exception@std@@QEAA@AEBV01@@Z
_TEXT	SEGMENT
this$ = 224
_Other$ = 232
??0exception@std@@QEAA@AEBV01@@Z PROC			; std::exception::exception, COMDAT

; 73   :     {

$LN4:
  00000	48 89 54 24 10	 mov	 QWORD PTR [rsp+16], rdx
  00005	48 89 4c 24 08	 mov	 QWORD PTR [rsp+8], rcx
  0000a	55		 push	 rbp
  0000b	57		 push	 rdi
  0000c	48 81 ec e8 00
	00 00		 sub	 rsp, 232		; 000000e8H
  00013	48 8d 6c 24 20	 lea	 rbp, QWORD PTR [rsp+32]
  00018	48 8d 0d 00 00
	00 00		 lea	 rcx, OFFSET FLAT:__8E23F663_vcruntime_exception@h
  0001f	e8 00 00 00 00	 call	 __CheckForDebuggerJustMyCode
  00024	90		 npad	 1
  00025	48 8b 85 e0 00
	00 00		 mov	 rax, QWORD PTR this$[rbp]
  0002c	48 8d 0d 00 00
	00 00		 lea	 rcx, OFFSET FLAT:??_7exception@std@@6B@
  00033	48 89 08	 mov	 QWORD PTR [rax], rcx

; 72   :         : _Data()

  00036	48 8b 85 e0 00
	00 00		 mov	 rax, QWORD PTR this$[rbp]
  0003d	48 83 c0 08	 add	 rax, 8
  00041	48 8b f8	 mov	 rdi, rax
  00044	33 c0		 xor	 eax, eax
  00046	b9 10 00 00 00	 mov	 ecx, 16
  0004b	f3 aa		 rep stosb

; 74   :         __std_exception_copy(&_Other._Data, &_Data);

  0004d	48 8b 85 e0 00
	00 00		 mov	 rax, QWORD PTR this$[rbp]
  00054	48 83 c0 08	 add	 rax, 8
  00058	48 8b 8d e8 00
	00 00		 mov	 rcx, QWORD PTR _Other$[rbp]
  0005f	48 83 c1 08	 add	 rcx, 8
  00063	48 8b d0	 mov	 rdx, rax
  00066	e8 00 00 00 00	 call	 __std_exception_copy
  0006b	90		 npad	 1

; 75   :     }

  0006c	48 8b 85 e0 00
	00 00		 mov	 rax, QWORD PTR this$[rbp]
  00073	48 8d a5 c8 00
	00 00		 lea	 rsp, QWORD PTR [rbp+200]
  0007a	5f		 pop	 rdi
  0007b	5d		 pop	 rbp
  0007c	c3		 ret	 0
??0exception@std@@QEAA@AEBV01@@Z ENDP			; std::exception::exception
_TEXT	ENDS
; Function compile flags: /Odtp /RTCsu /ZI
; File C:\Program Files\Microsoft Visual Studio\2022\Community\VC\Tools\MSVC\14.42.34433\include\vcruntime_exception.h
;	COMDAT ??0exception@std@@QEAA@QEBDH@Z
_TEXT	SEGMENT
this$ = 224
_Message$ = 232
__formal$ = 240
??0exception@std@@QEAA@QEBDH@Z PROC			; std::exception::exception, COMDAT

; 67   :     {

$LN4:
  00000	44 89 44 24 18	 mov	 DWORD PTR [rsp+24], r8d
  00005	48 89 54 24 10	 mov	 QWORD PTR [rsp+16], rdx
  0000a	48 89 4c 24 08	 mov	 QWORD PTR [rsp+8], rcx
  0000f	55		 push	 rbp
  00010	57		 push	 rdi
  00011	48 81 ec e8 00
	00 00		 sub	 rsp, 232		; 000000e8H
  00018	48 8d 6c 24 20	 lea	 rbp, QWORD PTR [rsp+32]
  0001d	48 8d 0d 00 00
	00 00		 lea	 rcx, OFFSET FLAT:__8E23F663_vcruntime_exception@h
  00024	e8 00 00 00 00	 call	 __CheckForDebuggerJustMyCode
  00029	90		 npad	 1
  0002a	48 8b 85 e0 00
	00 00		 mov	 rax, QWORD PTR this$[rbp]
  00031	48 8d 0d 00 00
	00 00		 lea	 rcx, OFFSET FLAT:??_7exception@std@@6B@
  00038	48 89 08	 mov	 QWORD PTR [rax], rcx

; 66   :         : _Data()

  0003b	48 8b 85 e0 00
	00 00		 mov	 rax, QWORD PTR this$[rbp]
  00042	48 83 c0 08	 add	 rax, 8
  00046	48 8b f8	 mov	 rdi, rax
  00049	33 c0		 xor	 eax, eax
  0004b	b9 10 00 00 00	 mov	 ecx, 16
  00050	f3 aa		 rep stosb

; 68   :         _Data._What = _Message;

  00052	48 8b 85 e0 00
	00 00		 mov	 rax, QWORD PTR this$[rbp]
  00059	48 8b 8d e8 00
	00 00		 mov	 rcx, QWORD PTR _Message$[rbp]
  00060	48 89 48 08	 mov	 QWORD PTR [rax+8], rcx

; 69   :     }

  00064	48 8b 85 e0 00
	00 00		 mov	 rax, QWORD PTR this$[rbp]
  0006b	48 8d a5 c8 00
	00 00		 lea	 rsp, QWORD PTR [rbp+200]
  00072	5f		 pop	 rdi
  00073	5d		 pop	 rbp
  00074	c3		 ret	 0
??0exception@std@@QEAA@QEBDH@Z ENDP			; std::exception::exception
_TEXT	ENDS
; Function compile flags: /Odtp /RTCsu /ZI
; File C:\Program Files (x86)\Windows Kits\10\Include\10.0.22621.0\ucrt\wchar.h
;	COMDAT wmemcpy
_TEXT	SEGMENT
_S1$ = 224
_S2$ = 232
_N$ = 240
wmemcpy	PROC						; COMDAT

; 234  :     {

$LN3:
  00000	4c 89 44 24 18	 mov	 QWORD PTR [rsp+24], r8
  00005	48 89 54 24 10	 mov	 QWORD PTR [rsp+16], rdx
  0000a	48 89 4c 24 08	 mov	 QWORD PTR [rsp+8], rcx
  0000f	55		 push	 rbp
  00010	57		 push	 rdi
  00011	48 81 ec e8 00
	00 00		 sub	 rsp, 232		; 000000e8H
  00018	48 8d 6c 24 20	 lea	 rbp, QWORD PTR [rsp+32]
  0001d	48 8d 0d 00 00
	00 00		 lea	 rcx, OFFSET FLAT:__3FCAD62E_wchar@h
  00024	e8 00 00 00 00	 call	 __CheckForDebuggerJustMyCode
  00029	90		 npad	 1

; 235  :         #pragma warning(suppress: 6386) // Buffer overrun
; 236  :         return (wchar_t*)memcpy(_S1, _S2, _N*sizeof(wchar_t));

  0002a	48 8b 85 f0 00
	00 00		 mov	 rax, QWORD PTR _N$[rbp]
  00031	48 d1 e0	 shl	 rax, 1
  00034	4c 8b c0	 mov	 r8, rax
  00037	48 8b 95 e8 00
	00 00		 mov	 rdx, QWORD PTR _S2$[rbp]
  0003e	48 8b 8d e0 00
	00 00		 mov	 rcx, QWORD PTR _S1$[rbp]
  00045	e8 00 00 00 00	 call	 memcpy

; 237  :     }

  0004a	48 8d a5 c8 00
	00 00		 lea	 rsp, QWORD PTR [rbp+200]
  00051	5f		 pop	 rdi
  00052	5d		 pop	 rbp
  00053	c3		 ret	 0
wmemcpy	ENDP
_TEXT	ENDS
; Function compile flags: /Odtp /RTCsu /ZI
; File C:\Program Files\Microsoft Visual Studio\2022\Community\VC\Tools\MSVC\14.42.34433\include\vcruntime_new.h
;	COMDAT ??2@YAPEAX_KPEAX@Z
_TEXT	SEGMENT
_Size$ = 224
_Where$ = 232
??2@YAPEAX_KPEAX@Z PROC					; operator new, COMDAT

; 164  :     {

$LN4:
  00000	48 89 54 24 10	 mov	 QWORD PTR [rsp+16], rdx
  00005	48 89 4c 24 08	 mov	 QWORD PTR [rsp+8], rcx
  0000a	55		 push	 rbp
  0000b	57		 push	 rdi
  0000c	48 81 ec e8 00
	00 00		 sub	 rsp, 232		; 000000e8H
  00013	48 8d 6c 24 20	 lea	 rbp, QWORD PTR [rsp+32]
  00018	48 8d 0d 00 00
	00 00		 lea	 rcx, OFFSET FLAT:__BCF39F11_vcruntime_new@h
  0001f	e8 00 00 00 00	 call	 __CheckForDebuggerJustMyCode
  00024	90		 npad	 1

; 165  :         (void)_Size;
; 166  :         return _Where;

  00025	48 8b 85 e8 00
	00 00		 mov	 rax, QWORD PTR _Where$[rbp]

; 167  :     }

  0002c	48 8d a5 c8 00
	00 00		 lea	 rsp, QWORD PTR [rbp+200]
  00033	5f		 pop	 rdi
  00034	5d		 pop	 rbp
  00035	c3		 ret	 0
??2@YAPEAX_KPEAX@Z ENDP					; operator new
_TEXT	ENDS
; Function compile flags: /Odtp /RTCsu /ZI
; File C:\\KPO\Calendar\laba01\laba01.cpp
;	COMDAT ?__empty_global_delete@@YAXPEAX_K@Z
_TEXT	SEGMENT
__formal$ = 224
__formal$ = 232
?__empty_global_delete@@YAXPEAX_K@Z PROC		; __empty_global_delete, COMDAT

$LN3:
  00000	48 89 54 24 10	 mov	 QWORD PTR [rsp+16], rdx
  00005	48 89 4c 24 08	 mov	 QWORD PTR [rsp+8], rcx
  0000a	55		 push	 rbp
  0000b	57		 push	 rdi
  0000c	48 81 ec e8 00
	00 00		 sub	 rsp, 232		; 000000e8H
  00013	48 8d 6c 24 20	 lea	 rbp, QWORD PTR [rsp+32]
  00018	48 8d 0d 00 00
	00 00		 lea	 rcx, OFFSET FLAT:__F068050D_laba01@cpp
  0001f	e8 00 00 00 00	 call	 __CheckForDebuggerJustMyCode
  00024	90		 npad	 1
  00025	48 8d a5 c8 00
	00 00		 lea	 rsp, QWORD PTR [rbp+200]
  0002c	5f		 pop	 rdi
  0002d	5d		 pop	 rbp
  0002e	c3		 ret	 0
?__empty_global_delete@@YAXPEAX_K@Z ENDP		; __empty_global_delete
_TEXT	ENDS
; Function compile flags: /Odtp /RTCsu /ZI
; File C:\\KPO\Calendar\laba01\laba01.cpp
;	COMDAT ?__empty_global_delete@@YAXPEAX@Z
_TEXT	SEGMENT
__formal$ = 224
?__empty_global_delete@@YAXPEAX@Z PROC			; __empty_global_delete, COMDAT

$LN3:
  00000	48 89 4c 24 08	 mov	 QWORD PTR [rsp+8], rcx
  00005	55		 push	 rbp
  00006	57		 push	 rdi
  00007	48 81 ec e8 00
	00 00		 sub	 rsp, 232		; 000000e8H
  0000e	48 8d 6c 24 20	 lea	 rbp, QWORD PTR [rsp+32]
  00013	48 8d 0d 00 00
	00 00		 lea	 rcx, OFFSET FLAT:__F068050D_laba01@cpp
  0001a	e8 00 00 00 00	 call	 __CheckForDebuggerJustMyCode
  0001f	90		 npad	 1
  00020	48 8d a5 c8 00
	00 00		 lea	 rsp, QWORD PTR [rbp+200]
  00027	5f		 pop	 rdi
  00028	5d		 pop	 rbp
  00029	c3		 ret	 0
?__empty_global_delete@@YAXPEAX@Z ENDP			; __empty_global_delete
_TEXT	ENDS
END
